 ext_server_ocioralog.x64

 Timestamp is 506793ac (Sun Sep 30 02:34:52 2012)

 Preferred load address is 0000000180000000

 Start         Length     Name                   Class
 0001:00000000 00033350H .text                   CODE
 0001:00033350 00000371H .text$x                 CODE
 0001:000336d0 0000008dH .text$yc                CODE
 0002:00000000 00000338H .idata$5                DATA
 0002:00000338 00000008H .CRT$XCA                DATA
 0002:00000340 00000018H .CRT$XCU                DATA
 0002:00000358 00000008H .CRT$XCZ                DATA
 0002:00000360 00000008H .CRT$XIA                DATA
 0002:00000368 00000018H .CRT$XIC                DATA
 0002:00000380 00000008H .CRT$XIZ                DATA
 0002:00000388 00000008H .CRT$XPA                DATA
 0002:00000390 00000008H .CRT$XPX                DATA
 0002:00000398 00000008H .CRT$XPXA               DATA
 0002:000003a0 00000008H .CRT$XPZ                DATA
 0002:000003a8 00000008H .CRT$XTA                DATA
 0002:000003b0 00000008H .CRT$XTZ                DATA
 0002:000003c0 0000db36H .rdata                  DATA
 0002:0000def8 00000008H .rtc$IAA                DATA
 0002:0000df00 00000008H .rtc$IZZ                DATA
 0002:0000df08 00000008H .rtc$TAA                DATA
 0002:0000df10 00000008H .rtc$TZZ                DATA
 0002:0000df18 00002574H .xdata                  DATA
 0002:0001048c 00000020H .didat$2                DATA
 0002:000104ac 00000020H .didat$3                DATA
 0002:000104d0 00000050H .didat$4                DATA
 0002:00010520 000000bcH .didat$6                DATA
 0002:000105e0 00000050H .didat$7                DATA
 0002:00010630 0000003cH .idata$2                DATA
 0002:0001066c 00000014H .idata$3                DATA
 0002:00010680 00000338H .idata$4                DATA
 0002:000109b8 0000074eH .idata$6                DATA
 0002:00011110 0000009eH .edata                  DATA
 0003:00000000 0003bf40H .data                   DATA
 0003:0003bf40 00000050H .didat$5                DATA
 0003:0003bfa0 000032a0H .bss                    DATA
 0004:00000000 000021f0H .pdata                  DATA

  Address         Publics by Value              Rva+Base               Lib:Object

 0000:00000000       ___safe_se_handler_table   0000000000000000     <absolute>
 0000:00000000       ___safe_se_handler_count   0000000000000000     <absolute>
 0000:00000000       __ImageBase                0000000180000000     <linker-defined>
 0001:00000000       GetInstruction             0000000180001000 f   disasm.obj
 0001:00000140       X86_InitInstruction        0000000180001140 f   disasm_x86.obj
 0001:000001e0       OutputAddress              00000001800011e0 f   disasm_x86.obj
 0001:00000b90       OutputBounds               0000000180001b90 f   disasm_x86.obj
 0001:00000ca0       OutputDescriptor           0000000180001ca0 f   disasm_x86.obj
 0001:00000d00       OutputPackedReal           0000000180001d00 f   disasm_x86.obj
 0001:00000d00       OutputPackedBCD            0000000180001d00 f   disasm_x86.obj
 0001:00000d00       OutputScalarReal           0000000180001d00 f   disasm_x86.obj
 0001:00000d00       OutputGeneral              0000000180001d00 f   disasm_x86.obj
 0001:00000da0       OutputScalarGeneral        0000000180001da0 f   disasm_x86.obj
 0001:00000dc0       OutputFPUEnvironment       0000000180001dc0 f   disasm_x86.obj
 0001:00000e20       OutputFPUState             0000000180001e20 f   disasm_x86.obj
 0001:00000e80       OutputCPUState             0000000180001e80 f   disasm_x86.obj
 0001:00000ee0       OutputSegOffset            0000000180001ee0 f   disasm_x86.obj
 0001:00000f40       X86_FindFunctionByPrologue 0000000180001f40 f   disasm_x86.obj
 0001:00000f70       X86_GetInstruction         0000000180001f70 f   disasm_x86.obj
 0001:0000dc10       Mhook_SetHook              000000018000ec10 f   mhook.obj
 0001:0000e080       Mhook_Unhook               000000018000f080 f   mhook.obj
 0001:0000e200       eip                        000000018000f200 f   ocioralog.obj
 0001:0000e210       ReflectiveLoader           000000018000f210 f   ocioralog.obj
 0001:0000e5d0       DllMain                    000000018000f5d0 f   ocioralog.obj
 0001:0000e660       m_OCISERVERATTACH          000000018000f660 f   ocioralog.obj
 0001:0000e7c0       m_OCIATTRSET               000000018000f7c0 f   ocioralog.obj
 0001:0000e8d0       m_OCISTMTEXECUTE           000000018000f8d0 f   ocioralog.obj
 0001:0000e950       logUsernamePassword        000000018000f950 f   ocioralog.obj
 0001:0000ebc0       logSQLStmt                 000000018000fbc0 f   ocioralog.obj
 0001:0000ecc0       hookOCIServerAttach        000000018000fcc0 f   ocioralog.obj
 0001:0000ee40       request_ocioralog_hookOCIServerAttach 000000018000fe40 f   ocioralog.obj
 0001:0000ef60       hookOCIStmtExecute         000000018000ff60 f   ocioralog.obj
 0001:0000f0e0       request_ocioralog_hookOCIStmtExecute 00000001800100e0 f   ocioralog.obj
 0001:0000f200       hookOCIAttrSet             0000000180010200 f   ocioralog.obj
 0001:0000f380       request_ocioralog_hookOCIAttrSet 0000000180010380 f   ocioralog.obj
 0001:0000f4a0       request_ocioralog_hook     00000001800104a0 f   ocioralog.obj
 0001:0000f580       unhookOCIServerAttach      0000000180010580 f   ocioralog.obj
 0001:0000f630       request_ocioralog_unhookOCIServerAttach 0000000180010630 f   ocioralog.obj
 0001:0000f6a0       unhookOCIStmtExecute       00000001800106a0 f   ocioralog.obj
 0001:0000f750       request_ocioralog_unhookOCIStmtExecute 0000000180010750 f   ocioralog.obj
 0001:0000f7c0       unhookOCIAttrSet           00000001800107c0 f   ocioralog.obj
 0001:0000f870       request_ocioralog_unhookOCIAttrSet 0000000180010870 f   ocioralog.obj
 0001:0000f8e0       request_ocioralog_unhook   00000001800108e0 f   ocioralog.obj
 0001:0000f950       request_ocioralog_getlogfile 0000000180010950 f   ocioralog.obj
 0001:0000faf0       request_ocioralog_setlogfile 0000000180010af0 f   ocioralog.obj
 0001:0000fc40       InitServerExtension        0000000180010c40 f   ocioralog.obj
 0001:0000fd80       DeinitServerExtension      0000000180010d80 f   ocioralog.obj
 0001:0000fe39       __imp_load_packet_add_tlv_uint 0000000180010e39     metsrv:metsrv.dll
 0001:0000fe45       __tailMerge_metsrv_dll     0000000180010e45     metsrv:metsrv.dll
 0001:0000febe       __imp_load_packet_transmit 0000000180010ebe     metsrv:metsrv.dll
 0001:0000feca       __imp_load_packet_add_tlv_string 0000000180010eca     metsrv:metsrv.dll
 0001:0000fed6       __imp_load_packet_get_tlv_value_string 0000000180010ed6     metsrv:metsrv.dll
 0001:0000fee2       __imp_load_packet_create_response 0000000180010ee2     metsrv:metsrv.dll
 0001:0000feee       __imp_load_command_register 0000000180010eee     metsrv:metsrv.dll
 0001:0000fefa       __imp_load_packet_get_tlv  0000000180010efa     metsrv:metsrv.dll
 0001:0000ff06       __imp_load_Init            0000000180010f06     metsrv:metsrv.dll
 0001:0000ff12       __imp_load_command_deregister 0000000180010f12     metsrv:metsrv.dll
 0001:0000ff20       EVP_DecryptInit_ex         0000000180010f20 f   libeay32:evp_enc.obj
 0001:0000ff50       EVP_EncryptUpdate          0000000180010f50 f   libeay32:evp_enc.obj
 0001:000100e0       EVP_DecryptUpdate          00000001800110e0 f   libeay32:evp_enc.obj
 0001:00010220       EVP_DecryptFinal_ex        0000000180011220 f   libeay32:evp_enc.obj
 0001:00010670       EVP_des_cbc                0000000180011670 f   libeay32:e_des.obj
 0001:00010700       EVP_CIPHER_CTX_init        0000000180011700 f   libeay32:enc_min.obj
 0001:000107e0       EVP_CIPHER_CTX_cleanup     00000001800117e0 f   libeay32:enc_min.obj
 0001:00010860       EVP_CIPHER_CTX_ctrl        0000000180011860 f   libeay32:enc_min.obj
 0001:000108d0       EVP_CIPHER_CTX_iv_length   00000001800118d0 f   libeay32:enc_min.obj
 0001:000108e0       EVP_CipherInit_ex          00000001800118e0 f   libeay32:enc_min.obj
 0001:00010ba0       CRYPTO_malloc              0000000180011ba0 f   libeay32:mem.obj
 0001:00010c70       CRYPTO_realloc             0000000180011c70 f   libeay32:mem.obj
 0001:00010d40       CRYPTO_realloc_clean       0000000180011d40 f   libeay32:mem.obj
 0001:00010e50       CRYPTO_free                0000000180011e50 f   libeay32:mem.obj
 0001:00010ea0       CRYPTO_push_info_          0000000180011ea0 f   libeay32:mem.obj
 0001:00010ed0       CRYPTO_pop_info            0000000180011ed0 f   libeay32:mem.obj
 0001:00010f20       CRYPTO_thread_id           0000000180011f20 f   libeay32:cryptlib.obj
 0001:00010f50       CRYPTO_lock                0000000180011f50 f   libeay32:cryptlib.obj
 0001:00010f80       CRYPTO_add_lock            0000000180011f80 f   libeay32:cryptlib.obj
 0001:00011090       OPENSSL_isservice          0000000180012090 f   libeay32:cryptlib.obj
 0001:000111c0       OPENSSL_showfatal          00000001800121c0 f   libeay32:cryptlib.obj
 0001:00011490       OpenSSLDie                 0000000180012490 f   libeay32:cryptlib.obj
 0001:000114c0       ERR_put_error              00000001800124c0 f   libeay32:err.obj
 0001:000115e0       ERR_clear_error            00000001800125e0 f   libeay32:err.obj
 0001:00011690       ERR_add_error_data         0000000180012690 f   libeay32:err.obj
 0001:00011810       ERR_peek_error             0000000180012810 f   libeay32:err.obj
 0001:00011860       RAND_get_rand_method       0000000180012860 f   libeay32:rand_lib.obj
 0001:000118d0       RAND_add                   00000001800128d0 f   libeay32:rand_lib.obj
 0001:00011920       RAND_bytes                 0000000180012920 f   libeay32:rand_lib.obj
 0001:00011970       EVP_CIPHER_get_asn1_iv     0000000180012970 f   libeay32:evp_lib.obj
 0001:00011a10       EVP_CIPHER_set_asn1_iv     0000000180012a10 f   libeay32:evp_lib.obj
 0001:00011a90       DES_ecb_encrypt            0000000180012a90 f   libeay32:ecb_enc.obj
 0001:00011b60       DES_ofb64_encrypt          0000000180012b60 f   libeay32:ofb64enc.obj
 0001:00011d60       DES_encrypt1               0000000180012d60 f   libeay32:des_enc.obj
 0001:00012370       DES_ncbc_encrypt           0000000180013370 f   libeay32:des_enc.obj
 0001:00012900       DES_cfb64_encrypt          0000000180013900 f   libeay32:cfb64enc.obj
 0001:00012b50       DES_cfb_encrypt            0000000180013b50 f   libeay32:cfb_enc.obj
 0001:00013260       DES_set_odd_parity         0000000180014260 f   libeay32:set_key.obj
 0001:000132c0       DES_set_key_unchecked      00000001800142c0 f   libeay32:set_key.obj
 0001:00013570       ENGINE_get_cipher_engine   0000000180014570 f   libeay32:tb_cipher.obj
 0001:00013590       ENGINE_get_cipher          0000000180014590 f   libeay32:tb_cipher.obj
 0001:000135f0       engine_unlocked_init       00000001800145f0 f   libeay32:eng_init.obj
 0001:00013640       engine_unlocked_finish     0000000180014640 f   libeay32:eng_init.obj
 0001:00013710       ENGINE_init                0000000180014710 f   libeay32:eng_init.obj
 0001:000137c0       ENGINE_finish              00000001800147c0 f   libeay32:eng_init.obj
 0001:000138f0       OPENSSL_cleanse            00000001800148f0 f   libeay32:mem_clr.obj
 0001:00013eb0       ERR_get_state              0000000180014eb0 f   libeay32:err_def.obj
 0001:000141f0       BUF_strlcpy                00000001800151f0 f   libeay32:buf_str.obj
 0001:00014250       BUF_strlcat                0000000180015250 f   libeay32:buf_str.obj
 0001:000142d0       RAND_SSLeay                00000001800152d0 f   libeay32:md_rand.obj
 0001:00014dc0       ENGINE_get_default_RAND    0000000180015dc0 f   libeay32:tb_rand.obj
 0001:00014de0       ENGINE_get_RAND            0000000180015de0 f   libeay32:tb_rand.obj
 0001:00014df0       ASN1_TYPE_set_octetstring  0000000180015df0 f   libeay32:evp_asn1.obj
 0001:00014e70       ASN1_TYPE_get_octetstring  0000000180015e70 f   libeay32:evp_asn1.obj
 0001:00014ef0       ASN1_OBJECT_new            0000000180015ef0 f   libeay32:a_object.obj
 0001:00014f60       ASN1_OBJECT_free           0000000180015f60 f   libeay32:a_object.obj
 0001:00014fe0       c2i_ASN1_OBJECT            0000000180015fe0 f   libeay32:a_object.obj
 0001:00015100       OBJ_nid2obj                0000000180016100 f   libeay32:obj_dat.obj
 0001:000151b0       OBJ_obj2nid                00000001800161b0 f   libeay32:obj_dat.obj
 0001:000152d0       engine_table_select        00000001800162d0 f   libeay32:eng_table.obj
 0001:00015420       engine_free_util           0000000180016420 f   libeay32:eng_lib.obj
 0001:000154d0       lh_free                    00000001800164d0 f   libeay32:lhash.obj
 0001:00015560       lh_doall                   0000000180016560 f   libeay32:lhash.obj
 0001:000157a0       lh_strhash                 00000001800167a0 f   libeay32:lhash.obj
 0001:00015800       lh_num_items               0000000180016800 f   libeay32:lhash.obj
 0001:00015810       lh_new                     0000000180016810 f   libeay32:lhash.obj
 0001:00015930       lh_insert                  0000000180016930 f   libeay32:lhash.obj
 0001:00015a40       lh_delete                  0000000180016a40 f   libeay32:lhash.obj
 0001:00015b30       lh_retrieve                0000000180016b30 f   libeay32:lhash.obj
 0001:00015bf0       EVP_MD_CTX_init            0000000180016bf0 f   libeay32:digest.obj
 0001:00015d00       EVP_DigestInit_ex          0000000180016d00 f   libeay32:digest.obj
 0001:00015db0       EVP_DigestUpdate           0000000180016db0 f   libeay32:digest.obj
 0001:00015dd0       EVP_DigestFinal_ex         0000000180016dd0 f   libeay32:digest.obj
 0001:00015e70       EVP_MD_CTX_cleanup         0000000180016e70 f   libeay32:digest.obj
 0001:00015f60       EVP_sha1                   0000000180016f60 f   libeay32:m_sha1.obj
 0001:000160e0       RAND_poll                  00000001800170e0 f   libeay32:rand_win.obj
 0001:000168f0       ASN1_TYPE_get              00000001800178f0 f   libeay32:a_type.obj
 0001:00016910       ASN1_TYPE_set              0000000180017910 f   libeay32:a_type.obj
 0001:00016980       ASN1_put_eoc               0000000180017980 f   libeay32:asn1_lib.obj
 0001:000169a0       ASN1_object_size           00000001800179a0 f   libeay32:asn1_lib.obj
 0001:000169e0       ASN1_STRING_set            00000001800179e0 f   libeay32:asn1_lib.obj
 0001:00016b00       ASN1_STRING_type_new       0000000180017b00 f   libeay32:asn1_lib.obj
 0001:00016b70       ASN1_get_object            0000000180017b70 f   libeay32:asn1_lib.obj
 0001:00016d40       ASN1_put_object            0000000180017d40 f   libeay32:asn1_lib.obj
 0001:00016e70       ASN1_OCTET_STRING_it       0000000180017e70 f   libeay32:tasn_typ.obj
 0001:00016e80       ASN1_OBJECT_it             0000000180017e80 f   libeay32:tasn_typ.obj
 0001:00016e90       ASN1_ANY_it                0000000180017e90 f   libeay32:tasn_typ.obj
 0001:00016ea0       ASN1_TYPE_new              0000000180017ea0 f   libeay32:tasn_typ.obj
 0001:00016ec0       ASN1_TYPE_free             0000000180017ec0 f   libeay32:tasn_typ.obj
 0001:00016ee0       i2c_ASN1_INTEGER           0000000180017ee0 f   libeay32:a_int.obj
 0001:00017070       c2i_ASN1_INTEGER           0000000180018070 f   libeay32:a_int.obj
 0001:00017240       ASN1_INTEGER_get           0000000180018240 f   libeay32:a_int.obj
 0001:000172b0       BN_num_bits_word           00000001800182b0 f   libeay32:bn_lib.obj
 0001:000173c0       BN_num_bits                00000001800183c0 f   libeay32:bn_lib.obj
 0001:00017400       BIO_clear_flags            0000000180018400 f   libeay32:bio_lib.obj
 0001:00017410       sk_new                     0000000180018410 f   libeay32:stack.obj
 0001:000174b0       sk_insert                  00000001800184b0 f   libeay32:stack.obj
 0001:000175a0       sk_push                    00000001800185a0 f   libeay32:stack.obj
 0001:000175c0       sk_pop                     00000001800185c0 f   libeay32:stack.obj
 0001:000175f0       sk_free                    00000001800185f0 f   libeay32:stack.obj
 0001:000175f0       ASN1_STRING_free           00000001800185f0 f   libeay32:asn1_lib.obj
 0001:00017630       sk_num                     0000000180018630 f   libeay32:stack.obj
 0001:00017640       sk_value                   0000000180018640 f   libeay32:stack.obj
 0001:00017660       sk_set                     0000000180018660 f   libeay32:stack.obj
 0001:00017680       sk_new_null                0000000180018680 f   libeay32:stack.obj
 0001:000176a0       sk_pop_free                00000001800186a0 f   libeay32:stack.obj
 0001:00017c10       CRYPTO_free_ex_data        0000000180018c10 f   libeay32:ex_data.obj
 0001:00017c70       CRYPTO_set_ex_data         0000000180018c70 f   libeay32:ex_data.obj
 0001:000182a0       ENGINE_get_digest_engine   00000001800192a0 f   libeay32:tb_digest.obj
 0001:000182c0       ENGINE_get_digest          00000001800192c0 f   libeay32:tb_digest.obj
 0001:00018320       RSA_sign                   0000000180019320 f   libeay32:rsa_sign.obj
 0001:00018590       RSA_verify                 0000000180019590 f   libeay32:rsa_sign.obj
 0001:00018840       SHA1_Init                  0000000180019840 f   libeay32:sha1dgst.obj
 0001:00019c00       SHA1_Update                000000018001ac00 f   libeay32:sha1dgst.obj
 0001:00019d30       SHA1_Final                 000000018001ad30 f   libeay32:sha1dgst.obj
 0001:00019ed0       SHA224_Init                000000018001aed0 f   libeay32:sha256.obj
 0001:00019f20       SHA256_Init                000000018001af20 f   libeay32:sha256.obj
 0001:0001aff0       SHA256_Update              000000018001bff0 f   libeay32:sha256.obj
 0001:0001b120       SHA256_Final               000000018001c120 f   libeay32:sha256.obj
 0001:0001b450       SHA384_Init                000000018001c450 f   libeay32:sha512.obj
 0001:0001b4e0       SHA512_Init                000000018001c4e0 f   libeay32:sha512.obj
 0001:0001cc30       SHA512_Final               000000018001dc30 f   libeay32:sha512.obj
 0001:0001d1f0       SHA512_Update              000000018001e1f0 f   libeay32:sha512.obj
 0001:0001d300       ASN1_primitive_free        000000018001e300 f   libeay32:tasn_fre.obj
 0001:0001d650       ASN1_template_free         000000018001e650 f   libeay32:tasn_fre.obj
 0001:0001d710       ASN1_item_free             000000018001e710 f   libeay32:tasn_fre.obj
 0001:0001d740       ASN1_item_ex_free          000000018001e740 f   libeay32:tasn_fre.obj
 0001:0001d760       asn1_ex_c2i                000000018001e760 f   libeay32:tasn_dec.obj
 0001:0001e7e0       ASN1_item_ex_d2i           000000018001f7e0 f   libeay32:tasn_dec.obj
 0001:0001f7c0       ASN1_item_d2i              00000001800207c0 f   libeay32:tasn_dec.obj
 0001:0001f830       BUF_MEM_grow_clean         0000000180020830 f   libeay32:buffer.obj
 0001:0001fcb0       asn1_ex_i2c                0000000180020cb0 f   libeay32:tasn_enc.obj
 0001:00020070       ASN1_item_ex_i2d           0000000180021070 f   libeay32:tasn_enc.obj
 0001:00020760       ASN1_item_i2d              0000000180021760 f   libeay32:tasn_enc.obj
 0001:00020780       ASN1_primitive_new         0000000180021780 f   libeay32:tasn_new.obj
 0001:00020880       asn1_primitive_clear       0000000180021880 f   libeay32:tasn_new.obj
 0001:00020c40       ASN1_item_ex_new           0000000180021c40 f   libeay32:tasn_new.obj
 0001:00020c60       ASN1_template_new          0000000180021c60 f   libeay32:tasn_new.obj
 0001:00020d40       ASN1_item_new              0000000180021d40 f   libeay32:tasn_new.obj
 0001:000212f0       RSA_private_encrypt        00000001800222f0 f   libeay32:rsa_lib.obj
 0001:00021320       RSA_public_decrypt         0000000180022320 f   libeay32:rsa_lib.obj
 0001:00021350       RSA_size                   0000000180022350 f   libeay32:rsa_lib.obj
 0001:00021380       d2i_X509_SIG               0000000180022380 f   libeay32:x_sig.obj
 0001:000213a0       i2d_X509_SIG               00000001800223a0 f   libeay32:x_sig.obj
 0001:000213c0       X509_SIG_free              00000001800223c0 f   libeay32:x_sig.obj
 0001:000213e0       asn1_get_choice_selector   00000001800223e0 f   libeay32:tasn_utl.obj
 0001:000213f0       asn1_set_choice_selector   00000001800223f0 f   libeay32:tasn_utl.obj
 0001:00021400       asn1_do_lock               0000000180022400 f   libeay32:tasn_utl.obj
 0001:00021470       asn1_enc_init              0000000180022470 f   libeay32:tasn_utl.obj
 0001:000214b0       asn1_enc_free              00000001800224b0 f   libeay32:tasn_utl.obj
 0001:00021510       asn1_enc_save              0000000180022510 f   libeay32:tasn_utl.obj
 0001:000215c0       asn1_enc_restore           00000001800225c0 f   libeay32:tasn_utl.obj
 0001:00021660       asn1_get_field_ptr         0000000180022660 f   libeay32:tasn_utl.obj
 0001:00021680       asn1_do_adb                0000000180022680 f   libeay32:tasn_utl.obj
 0001:00021760       i2c_ASN1_BIT_STRING        0000000180022760 f   libeay32:a_bitstr.obj
 0001:000218b0       c2i_ASN1_BIT_STRING        00000001800228b0 f   libeay32:a_bitstr.obj
 0001:00021a00       X509_ALGOR_it              0000000180022a00 f   libeay32:x_algor.obj
 0001:00021a08       __delayLoadHelper2         0000000180022a08 f   Delayimp:delayhlp.obj
 0001:00021cd0       delayHook                  0000000180022cd0 f   ReflectiveDllInjection:DelayLoadMetSrv.obj
 0001:00021d50       GetProcAddressR            0000000180022d50 f   ReflectiveDllInjection:GetProcAddressR.obj
 0001:00021e60       __security_check_cookie    0000000180022e60 f   LIBCMT:amdsecgs.obj
 0001:00021ea4       _wassert                   0000000180022ea4 f   LIBCMT:wassert.obj
 0001:00022790       memcpy                     0000000180023790 f   LIBCMT:memcpy.obj
 0001:00022790       memmove                    0000000180023790     LIBCMT:memcpy.obj
 0001:00022ac4       __iob_func                 0000000180023ac4 f   LIBCMT:_file.obj
 0001:00022acc       __initstdio                0000000180023acc f   LIBCMT:_file.obj
 0001:00022bac       __endstdio                 0000000180023bac f   LIBCMT:_file.obj
 0001:00022bd4       _lock_file                 0000000180023bd4 f   LIBCMT:_file.obj
 0001:00022c38       _lock_file2                0000000180023c38 f   LIBCMT:_file.obj
 0001:00022c6c       _unlock_file               0000000180023c6c f   LIBCMT:_file.obj
 0001:00022cb8       _unlock_file2              0000000180023cb8 f   LIBCMT:_file.obj
 0001:00022cd8       _flush                     0000000180023cd8 f   LIBCMT:fflush.obj
 0001:00022d54       _fflush_nolock             0000000180023d54 f   LIBCMT:fflush.obj
 0001:00022e8c       fflush                     0000000180023e8c f   LIBCMT:fflush.obj
 0001:00022ed0       _flushall                  0000000180023ed0 f   LIBCMT:fflush.obj
 0001:00022edc       _snprintf                  0000000180023edc f   LIBCMT:snprintf.obj
 0001:00022f90       printf                     0000000180023f90 f   LIBCMT:printf.obj
 0001:0002303c       _get_printf_count_output   000000018002403c f   LIBCMT:printf.obj
 0001:00023054       ??0_LocaleUpdate@@QEAA@PEAUlocaleinfo_struct@@@Z 0000000180024054 f i LIBCMT:_ctype.obj
 0001:000230f8       isdigit                    00000001800240f8 f i LIBCMT:_ctype.obj
 0001:00023178       free                       0000000180024178 f   LIBCMT:free.obj
 0001:000231b8       malloc                     00000001800241b8 f   LIBCMT:malloc.obj
 0001:00023270       strchr                     0000000180024270 f   LIBCMT:strchr.obj
 0001:0002328c       sprintf                    000000018002428c f   LIBCMT:sprintf.obj
 0001:00023340       strncat                    0000000180024340 f   LIBCMT:strncat.obj
 0001:000234f0       strncpy                    00000001800244f0 f   LIBCMT:strncpy.obj
 0001:00023654       fgets                      0000000180024654 f   LIBCMT:fgets.obj
 0001:000237bc       _fsopen                    00000001800247bc f   LIBCMT:fopen.obj
 0001:00023894       fopen                      0000000180024894 f   LIBCMT:fopen.obj
 0001:000238a0       fprintf                    00000001800248a0 f   LIBCMT:fprintf.obj
 0001:000239d0       _ftell_nolock              00000001800249d0 f   LIBCMT:ftell.obj
 0001:00023b88       ftell                      0000000180024b88 f   LIBCMT:ftell.obj
 0001:00023be0       _fseek_nolock              0000000180024be0 f   LIBCMT:fseek.obj
 0001:00023c94       fseek                      0000000180024c94 f   LIBCMT:fseek.obj
 0001:00023d10       _getenv_helper_nolock      0000000180024d10 f   LIBCMT:getenv.obj
 0001:00023db4       getenv                     0000000180024db4 f   LIBCMT:getenv.obj
 0001:00023e20       _fclose_nolock             0000000180024e20 f   LIBCMT:fclose.obj
 0001:00023e9c       fclose                     0000000180024e9c f   LIBCMT:fclose.obj
 0001:00023f04       _CRT_INIT                  0000000180024f04 f   LIBCMT:dllcrt0.obj
 0001:00024174       _DllMainCRTStartup         0000000180025174 f   LIBCMT:dllcrt0.obj
 0001:000241d0       __chkstk                   00000001800251d0 f   LIBCMT:chkstk.obj
 0001:000241d0       _alloca_probe              00000001800251d0     LIBCMT:chkstk.obj
 0001:00024230       memset                     0000000180025230 f   LIBCMT:memset.obj
 0001:0002431c       realloc                    000000018002531c f   LIBCMT:realloc.obj
 0001:000243f0       __GSHandlerCheckCommon     00000001800253f0 f   LIBCMT:gshandler.obj
 0001:00024454       __GSHandlerCheck           0000000180025454 f   LIBCMT:gshandler.obj
 0001:00024474       wcsstr                     0000000180025474 f   LIBCMT:wcsstr.obj
 0001:000244d8       _vsnwprintf_l              00000001800254d8 f   LIBCMT:vsnwprnt.obj
 0001:000245d4       _vsnwprintf                00000001800255d4 f   LIBCMT:vsnwprnt.obj
 0001:000245ec       vfprintf_helper            00000001800255ec f   LIBCMT:vfprintf.obj
 0001:00024730       vfprintf                   0000000180025730 f   LIBCMT:vfprintf.obj
 0001:00024754       abort                      0000000180025754 f   LIBCMT:abort.obj
 0001:00024794       _cfltcvt_init              0000000180025794 f   LIBCMT:_fpinit_.obj
 0001:0002481c       _fpmath                    000000018002581c f   LIBCMT:_fpinit_.obj
 0001:00024824       memchr                     0000000180025824 f   LIBCMT:memchr.obj
 0001:00024850       memcmp                     0000000180025850 f   LIBCMT:memcmp.obj
 0001:00024930       strcmp                     0000000180025930 f   LIBCMT:strcmp.obj
 0001:00024aa0       qsort                      0000000180025aa0 f   LIBCMT:qsort.obj
 0001:00024d98       feof                       0000000180025d98 f   LIBCMT:feoferr.obj
 0001:00024dc0       ferror                     0000000180025dc0 f   LIBCMT:feoferr.obj
 0001:00024de8       _fread_nolock_s            0000000180025de8 f   LIBCMT:fread.obj
 0001:00025020       fread_s                    0000000180026020 f   LIBCMT:fread.obj
 0001:000250c8       fread                      00000001800260c8 f   LIBCMT:fread.obj
 0001:000250e8       _fwrite_nolock             00000001800260e8 f   LIBCMT:fwrite.obj
 0001:00025274       fwrite                     0000000180026274 f   LIBCMT:fwrite.obj
 0001:00025304       _setmode_nolock            0000000180026304 f   LIBCMT:setmode.obj
 0001:000253d4       _get_fmode                 00000001800263d4 f   LIBCMT:setmode.obj
 0001:00025404       _setmode                   0000000180026404 f   LIBCMT:setmode.obj
 0001:00025500       _fileno                    0000000180026500 f   LIBCMT:fileno.obj
 0001:00025528       _get_errno_from_oserr      0000000180026528 f   LIBCMT:dosmap.obj
 0001:00025570       _errno                     0000000180026570 f   LIBCMT:dosmap.obj
 0001:00025590       __doserrno                 0000000180026590 f   LIBCMT:dosmap.obj
 0001:000255b0       _dosmaperr                 00000001800265b0 f   LIBCMT:dosmap.obj
 0001:000255f8       __C_specific_handler       00000001800265f8 f   LIBCMT:chandler.obj
 0001:000257f8       __report_gsfailure         00000001800267f8 f   LIBCMT:gs_report.obj
 0001:00025944       _initp_misc_invarg         0000000180026944 f   LIBCMT:invarg.obj
 0001:0002594c       _call_reportfault          000000018002694c f   LIBCMT:invarg.obj
 0001:00025a98       _invoke_watson             0000000180026a98 f   LIBCMT:invarg.obj
 0001:00025acc       _invalid_parameter         0000000180026acc f   LIBCMT:invarg.obj
 0001:00025b3c       _invalid_parameter_noinfo  0000000180026b3c f   LIBCMT:invarg.obj
 0001:00025b5c       _vswprintf_helper          0000000180026b5c f   LIBCMT:vswprnc.obj
 0001:00025c78       _vswprintf_c_l             0000000180026c78 f   LIBCMT:vswprnc.obj
 0001:00025cb0       fwprintf                   0000000180026cb0 f   LIBCMT:fwprintf.obj
 0001:00025d44       setvbuf                    0000000180026d44 f   LIBCMT:setvbuf.obj
 0001:00025e54       __crtCorExitProcess        0000000180026e54 f   LIBCMT:crt0dat.obj
 0001:00025e90       __crtExitProcess           0000000180026e90 f   LIBCMT:crt0dat.obj
 0001:00025ea8       _lockexit                  0000000180026ea8 f   LIBCMT:crt0dat.obj
 0001:00025eb4       _unlockexit                0000000180026eb4 f   LIBCMT:crt0dat.obj
 0001:00025ec0       _init_pointers             0000000180026ec0 f   LIBCMT:crt0dat.obj
 0001:00025f38       _initterm_e                0000000180026f38 f   LIBCMT:crt0dat.obj
 0001:00025f74       _cinit                     0000000180026f74 f   LIBCMT:crt0dat.obj
 0001:000261b4       _exit                      00000001800271b4 f   LIBCMT:crt0dat.obj
 0001:000261c0       _cexit                     00000001800271c0 f   LIBCMT:crt0dat.obj
 0001:000261d0       _amsg_exit                 00000001800271d0 f   LIBCMT:crt0dat.obj
 0001:000261f8       _initp_misc_winsig         00000001800271f8 f   LIBCMT:winsig.obj
 0001:00026218       __get_sigabrt              0000000180027218 f   LIBCMT:winsig.obj
 0001:00026228       raise                      0000000180027228 f   LIBCMT:winsig.obj
 0001:0002645c       __crtMessageBoxW           000000018002745c f   LIBCMT:crtmboxw.obj
 0001:00026770       _itow_s                    0000000180027770 f   LIBCMT:xtows.obj
 0001:00026798       wcsncat_s                  0000000180027798 f   LIBCMT:wcsncat_s.obj
 0001:00026880       wcsncpy_s                  0000000180027880 f   LIBCMT:wcsncpy_s.obj
 0001:00026950       wcslen                     0000000180027950 f   LIBCMT:wcslen.obj
 0001:0002696c       wcscat_s                   000000018002796c f   LIBCMT:wcscat_s.obj
 0001:000269f4       wcscpy_s                   00000001800279f4 f   LIBCMT:wcscpy_s.obj
 0001:00026a60       _set_error_mode            0000000180027a60 f   LIBCMT:errmode.obj
 0001:00026aa0       _ioinit                    0000000180027aa0 f   LIBCMT:ioinit.obj
 0001:00026d74       _ioterm                    0000000180027d74 f   LIBCMT:ioinit.obj
 0001:00026de8       _malloc_crt                0000000180027de8 f   LIBCMT:crtheap.obj
 0001:00026e68       _calloc_crt                0000000180027e68 f   LIBCMT:crtheap.obj
 0001:00026eec       _realloc_crt               0000000180027eec f   LIBCMT:crtheap.obj
 0001:00026f74       _recalloc_crt              0000000180027f74 f   LIBCMT:crtheap.obj
 0001:00026ffc       _fcloseall                 0000000180027ffc f   LIBCMT:closeall.obj
 0001:000270a8       _mtinitlocks               00000001800280a8 f   LIBCMT:mlock.obj
 0001:0002712c       _mtdeletelocks             000000018002812c f   LIBCMT:mlock.obj
 0001:000271b4       _unlock                    00000001800281b4 f   LIBCMT:mlock.obj
 0001:000271cc       _mtinitlocknum             00000001800281cc f   LIBCMT:mlock.obj
 0001:000272b4       _lock                      00000001800282b4 f   LIBCMT:mlock.obj
 0001:000272f8       _write_nolock              00000001800282f8 f   LIBCMT:write.obj
 0001:00027a58       _write                     0000000180028a58 f   LIBCMT:write.obj
 0001:00027b38       _commit                    0000000180028b38 f   LIBCMT:commit.obj
 0001:00027c10       _flsbuf                    0000000180028c10 f   LIBCMT:_flsbuf.obj
 0001:00027ee4       _output_l                  0000000180028ee4 f   LIBCMT:output.obj
 0001:00028948       _stbuf                     0000000180029948 f   LIBCMT:_sftbuf.obj
 0001:00028a1c       _ftbuf                     0000000180029a1c f   LIBCMT:_sftbuf.obj
 0001:00028cd0       __updatetmbcinfo           0000000180029cd0 f   LIBCMT:mbctype.obj
 0001:00028e1c       _setmbcp_nolock            0000000180029e1c f   LIBCMT:mbctype.obj
 0001:00029094       _setmbcp                   000000018002a094 f   LIBCMT:mbctype.obj
 0001:00029274       __initmbctable             000000018002a274 f   LIBCMT:mbctype.obj
 0001:0002929c       __addlocaleref             000000018002a29c f   LIBCMT:localref.obj
 0001:00029328       __removelocaleref          000000018002a328 f   LIBCMT:localref.obj
 0001:000293cc       __freetlocinfo             000000018002a3cc f   LIBCMT:localref.obj
 0001:00029548       _updatetlocinfoEx_nolock   000000018002a548 f   LIBCMT:localref.obj
 0001:000295a0       __updatetlocinfo           000000018002a5a0 f   LIBCMT:localref.obj
 0001:00029618       _encoded_null              000000018002a618 f   LIBCMT:tidtable.obj
 0001:00029624       __set_flsgetvalue          000000018002a624 f   LIBCMT:tidtable.obj
 0001:00029628       _mtterm                    000000018002a628 f   LIBCMT:tidtable.obj
 0001:00029650       _initptd                   000000018002a650 f   LIBCMT:tidtable.obj
 0001:00029708       _getptd_noexit             000000018002a708 f   LIBCMT:tidtable.obj
 0001:0002978c       _getptd                    000000018002a78c f   LIBCMT:tidtable.obj
 0001:000297b0       _freefls                   000000018002a7b0 f   LIBCMT:tidtable.obj
 0001:000298e4       _freeptd                   000000018002a8e4 f   LIBCMT:tidtable.obj
 0001:00029924       _mtinit                    000000018002a924 f   LIBCMT:tidtable.obj
 0001:000299a8       _isctype_l                 000000018002a9a8 f   LIBCMT:isctype.obj
 0001:00029a90       _heap_init                 000000018002aa90 f   LIBCMT:heapinit.obj
 0001:00029ae8       _heap_term                 000000018002aae8 f   LIBCMT:heapinit.obj
 0001:00029b08       _GET_RTERRMSG              000000018002ab08 f   LIBCMT:crt0msg.obj
 0001:00029b34       _NMSG_WRITE                000000018002ab34 f   LIBCMT:crt0msg.obj
 0001:00029d94       _FF_MSGBANNER              000000018002ad94 f   LIBCMT:crt0msg.obj
 0001:00029dd8       _initp_heap_handler        000000018002add8 f   LIBCMT:handler.obj
 0001:00029de0       _callnewh                  000000018002ade0 f   LIBCMT:handler.obj
 0001:00029e14       _filbuf                    000000018002ae14 f   LIBCMT:_filbuf.obj
 0001:00029f68       _openfile                  000000018002af68 f   LIBCMT:_open.obj
 0001:0002a220       _getstream                 000000018002b220 f   LIBCMT:stream.obj
 0001:0002a390       _local_unwind              000000018002b390 f   LIBCMT:jmpuwind.obj
 0001:0002a3c0       _NLG_Notify                000000018002b3c0 f   LIBCMT:jmpuwind.obj
 0001:0002a3e0       __NLG_Dispatch2            000000018002b3e0 f   LIBCMT:jmpuwind.obj
 0001:0002a3f0       __NLG_Return2              000000018002b3f0 f   LIBCMT:jmpuwind.obj
 0001:0002a3f4       _lseek_nolock              000000018002b3f4 f   LIBCMT:lseek.obj
 0001:0002a48c       _lseek                     000000018002b48c f   LIBCMT:lseek.obj
 0001:0002a56c       _mbsnbicoll_l              000000018002b56c f   LIBCMT:mbsnbico.obj
 0001:0002a670       _mbsnbicoll                000000018002b670 f   LIBCMT:mbsnbico.obj
 0001:0002a690       strlen                     000000018002b690 f   LIBCMT:strlen.obj
 0001:0002a738       __wtomb_environ            000000018002b738 f   LIBCMT:wtombenv.obj
 0001:0002a82c       strcpy_s                   000000018002b82c f   LIBCMT:strcpy_s.obj
 0001:0002a890       strnlen                    000000018002b890 f   LIBCMT:strlen_s.obj
 0001:0002a8ac       _close_nolock              000000018002b8ac f   LIBCMT:close.obj
 0001:0002a968       _close                     000000018002b968 f   LIBCMT:close.obj
 0001:0002aa2c       _freebuf                   000000018002ba2c f   LIBCMT:_freebuf.obj
 0001:0002aa64       _setenvp                   000000018002ba64 f   LIBCMT:stdenvp.obj
 0001:0002ad64       _setargv                   000000018002bd64 f   LIBCMT:stdargv.obj
 0001:0002ae5c       __crtGetEnvironmentStringsA 000000018002be5c f   LIBCMT:a_env.obj
 0001:0002af50       _RTC_Initialize            000000018002bf50 f   LIBCMT:_initsect_.obj
 0001:0002af88       _RTC_Terminate             000000018002bf88 f   LIBCMT:_initsect_.obj
 0001:0002afc0       _XcptFilter                000000018002bfc0 f   LIBCMT:winxfltr.obj
 0001:0002b190       __CppXcptFilter            000000018002c190 f   LIBCMT:winxfltr.obj
 0001:0002b1a4       __security_init_cookie     000000018002c1a4 f   LIBCMT:gs_support.obj
 0001:0002b390       _woutput_l                 000000018002c390 f   LIBCMT:woutput.obj
 0001:0002be70       _forcdecpt_l               000000018002ce70 f   LIBCMT:cvt.obj
 0001:0002bef0       _cropzeros_l               000000018002cef0 f   LIBCMT:cvt.obj
 0001:0002bf90       _positive                  000000018002cf90 f   LIBCMT:cvt.obj
 0001:0002bfa8       _fassign_l                 000000018002cfa8 f   LIBCMT:cvt.obj
 0001:0002bfec       _fassign                   000000018002cfec f   LIBCMT:cvt.obj
 0001:0002bff4       _forcdecpt                 000000018002cff4 f   LIBCMT:cvt.obj
 0001:0002bffc       _cropzeros                 000000018002cffc f   LIBCMT:cvt.obj
 0001:0002c238       _cftoe_l                   000000018002d238 f   LIBCMT:cvt.obj
 0001:0002c330       _cftoa_l                   000000018002d330 f   LIBCMT:cvt.obj
 0001:0002c8ac       _cftof_l                   000000018002d8ac f   LIBCMT:cvt.obj
 0001:0002c980       _cftog_l                   000000018002d980 f   LIBCMT:cvt.obj
 0001:0002cab4       _cfltcvt_l                 000000018002dab4 f   LIBCMT:cvt.obj
 0001:0002cb4c       _cfltcvt                   000000018002db4c f   LIBCMT:cvt.obj
 0001:0002cb70       _initp_misc_cfltcvt_tab    000000018002db70 f   LIBCMT:cmiscdat.obj
 0001:0002cba8       _read_nolock               000000018002dba8 f   LIBCMT:read.obj
 0001:0002d2cc       _read                      000000018002e2cc f   LIBCMT:read.obj
 0001:0002d3e8       memcpy_s                   000000018002e3e8 f   LIBCMT:memcpy_s.obj
 0001:0002d470       _set_osfhnd                000000018002e470 f   LIBCMT:osfinfo.obj
 0001:0002d520       _free_osfhnd               000000018002e520 f   LIBCMT:osfinfo.obj
 0001:0002d5cc       _get_osfhandle             000000018002e5cc f   LIBCMT:osfinfo.obj
 0001:0002d640       __lock_fhandle             000000018002e640 f   LIBCMT:osfinfo.obj
 0001:0002d6e8       _unlock_fhandle            000000018002e6e8 f   LIBCMT:osfinfo.obj
 0001:0002d710       _alloc_osfhnd              000000018002e710 f   LIBCMT:osfinfo.obj
 0001:0002d920       _ValidateImageBase         000000018002e920 f   LIBCMT:pesect.obj
 0001:0002d950       _FindPESection             000000018002e950 f   LIBCMT:pesect.obj
 0001:0002d9a0       _IsNonwritableInCurrentImage 000000018002e9a0 f   LIBCMT:pesect.obj
 0001:0002d9e4       __crt_debugger_hook        000000018002e9e4 f   LIBCMT:dbghook.obj
 0001:0002d9ec       ?terminate@@YAXXZ          000000018002e9ec f   LIBCMT:hooks.obj
 0001:0002da10       _initp_eh_hooks            000000018002ea10 f   LIBCMT:hooks.obj
 0001:0002da30       _initp_misc_rand_s         000000018002ea30 f   LIBCMT:rand_s.obj
 0001:0002da38       _initp_misc_purevirt       000000018002ea38 f   LIBCMT:inithelp.obj
 0001:0002da40       __onexitinit               000000018002ea40 f   LIBCMT:onexit.obj
 0001:0002da84       _onexit                    000000018002ea84 f   LIBCMT:onexit.obj
 0001:0002db90       atexit                     000000018002eb90 f   LIBCMT:onexit.obj
 0001:0002dba8       _calloc_impl               000000018002eba8 f   LIBCMT:calloc_impl.obj
 0001:0002dc44       _recalloc                  000000018002ec44 f   LIBCMT:recalloc.obj
 0001:0002dccc       _putwch_nolock             000000018002eccc f   LIBCMT:putwch.obj
 0001:0002dd28       _mbtowc_l                  000000018002ed28 f   LIBCMT:mbtowc.obj
 0001:0002dea0       mbtowc                     000000018002eea0 f   LIBCMT:mbtowc.obj
 0001:0002dea8       _isleadbyte_l              000000018002eea8 f i LIBCMT:_wctype.obj
 0001:0002def0       isleadbyte                 000000018002eef0 f i LIBCMT:_wctype.obj
 0001:0002df38       _isatty                    000000018002ef38 f   LIBCMT:isatty.obj
 0001:0002df98       _lseeki64_nolock           000000018002ef98 f   LIBCMT:lseeki64.obj
 0001:0002e030       _lseeki64                  000000018002f030 f   LIBCMT:lseeki64.obj
 0001:0002e114       _getbuf                    000000018002f114 f   LIBCMT:_getbuf.obj
 0001:0002e168       _wctomb_s_l                000000018002f168 f   LIBCMT:wctomb.obj
 0001:0002e32c       wctomb_s                   000000018002f32c f   LIBCMT:wctomb.obj
 0001:0002e60c       __crtLCMapStringA          000000018002f60c f   LIBCMT:a_map.obj
 0001:0002e804       __crtGetStringTypeA        000000018002f804 f   LIBCMT:a_str.obj
 0001:0002e884       __free_lc_time             000000018002f884 f   LIBCMT:inittime.obj
 0001:0002ec74       __free_lconv_num           000000018002fc74 f   LIBCMT:initnum.obj
 0001:0002ece0       __free_lconv_mon           000000018002fce0 f   LIBCMT:initmon.obj
 0001:0002ee00       strncmp                    000000018002fe00 f   LIBCMT:strncmp.obj
 0001:0002f660       _sopen_helper              0000000180030660 f   LIBCMT:open.obj
 0001:0002f734       _sopen_s                   0000000180030734 f   LIBCMT:open.obj
 0001:0002f768       _mbsnbicmp_l               0000000180030768 f   LIBCMT:mbsnbicm.obj
 0001:0002f950       _mbsnbicmp                 0000000180030950 f   LIBCMT:mbsnbicm.obj
 0001:0002f958       _mbsnbcmp_l                0000000180030958 f   LIBCMT:mbsnbcmp.obj
 0001:0002fab8       _mbsnbcmp                  0000000180030ab8 f   LIBCMT:mbsnbcmp.obj
 0001:0002fe04       __crtCompareStringA        0000000180030e04 f   LIBCMT:a_cmp.obj
 0001:0002fe90       _strnicoll_l               0000000180030e90 f   LIBCMT:strnicol.obj
 0001:0002ff94       __crtsetenv                0000000180030f94 f   LIBCMT:setenv.obj
 0001:000303ac       _ismbblead                 00000001800313ac f   LIBCMT:ismbbyte.obj
 0001:000303c0       _fputwc_nolock             00000001800313c0 f   LIBCMT:fputwc.obj
 0001:000305c0       strrchr                    00000001800315c0 f   LIBCMT:strrchr.obj
 0001:000305e8       _tolower_l                 00000001800315e8 f   LIBCMT:tolower.obj
 0001:00030738       tolower                    0000000180031738 f   LIBCMT:tolower.obj
 0001:00030758       _atodbl_l                  0000000180031758 f   LIBCMT:atodbl.obj
 0001:00030858       _atoflt_l                  0000000180031858 f   LIBCMT:atodbl.obj
 0001:00030958       _fptostr                   0000000180031958 f   LIBCMT:_fptostr.obj
 0001:00030a24       __dtold                    0000000180031a24 f   LIBCMT:_cfout_.obj
 0001:00030aec       _fltout2                   0000000180031aec f   LIBCMT:_cfout_.obj
 0001:00030ba4       _fptrap                    0000000180031ba4 f   LIBCMT:crt0fp.obj
 0001:00030bb0       _msize                     0000000180031bb0 f   LIBCMT:msize.obj
 0001:00030bec       __initconout               0000000180031bec f   LIBCMT:initcon.obj
 0001:00030c28       __termconout               0000000180031c28 f   LIBCMT:initcon.obj
 0001:00030c4c       __ascii_strnicmp           0000000180031c4c f   LIBCMT:strnicmp.obj
 0001:00030c94       _strnicmp_l                0000000180031c94 f   LIBCMT:strnicmp.obj
 0001:00030d98       _strnicmp                  0000000180031d98 f   LIBCMT:strnicmp.obj
 0001:00030de8       _chsize_nolock             0000000180031de8 f   LIBCMT:chsize.obj
 0001:00030f80       _strdup                    0000000180031f80 f   LIBCMT:strdup.obj
 0001:00030ff0       _mbschr_l                  0000000180031ff0 f   LIBCMT:mbschr.obj
 0001:000310dc       _mbschr                    00000001800320dc f   LIBCMT:mbschr.obj
 0001:000310e4       _flswbuf                   00000001800320e4 f   LIBCMT:_flswbuf.obj
 0001:00031274       _ld12tod                   0000000180032274 f   LIBCMT:_intrncvt_.obj
 0001:00031840       _ld12tof                   0000000180032840 f   LIBCMT:_intrncvt_.obj
 0001:00031e0c       __strgtold12_l             0000000180032e0c f   LIBCMT:_strgtold_.obj
 0001:00032670       $I10_OUTPUT                0000000180033670 f   LIBCMT:_x10fout_.obj
 0001:00033124       __mtold12                  0000000180034124 f   LIBCMT:_mantold_.obj
 0001:0003333e       RtlUnwindEx                000000018003433e f   kernel32:KERNEL32.dll
 0001:00033344       RtlVirtualUnwind           0000000180034344 f   kernel32:KERNEL32.dll
 0001:0003334a       RtlLookupFunctionEntry     000000018003434a f   kernel32:KERNEL32.dll
 0002:00000000       __imp_ReportEventW         0000000180035000     advapi32:ADVAPI32.dll
 0002:00000008       __imp_DeregisterEventSource 0000000180035008     advapi32:ADVAPI32.dll
 0002:00000010       __imp_RegisterEventSourceW 0000000180035010     advapi32:ADVAPI32.dll
 0002:00000018       \177ADVAPI32_NULL_THUNK_DATA 0000000180035018     advapi32:ADVAPI32.dll
 0002:00000020       __imp_VirtualProtectEx     0000000180035020     kernel32:KERNEL32.dll
 0002:00000028       __imp_OpenThread           0000000180035028     kernel32:KERNEL32.dll
 0002:00000030       __imp_GetSystemInfo        0000000180035030     kernel32:KERNEL32.dll
 0002:00000038       __imp_GetThreadPriority    0000000180035038     kernel32:KERNEL32.dll
 0002:00000040       __imp_GetCurrentThreadId   0000000180035040     kernel32:KERNEL32.dll
 0002:00000048       __imp_CloseHandle          0000000180035048     kernel32:KERNEL32.dll
 0002:00000050       __imp_GetCurrentProcessId  0000000180035050     kernel32:KERNEL32.dll
 0002:00000058       __imp_SuspendThread        0000000180035058     kernel32:KERNEL32.dll
 0002:00000060       __imp_ResumeThread         0000000180035060     kernel32:KERNEL32.dll
 0002:00000068       __imp_ExitProcess          0000000180035068     kernel32:KERNEL32.dll
 0002:00000070       __imp_SetUnhandledExceptionFilter 0000000180035070     kernel32:KERNEL32.dll
 0002:00000078       __imp_ExitThread           0000000180035078     kernel32:KERNEL32.dll
 0002:00000080       __imp_GetModuleHandleA     0000000180035080     kernel32:KERNEL32.dll
 0002:00000088       __imp_GetLastError         0000000180035088     kernel32:KERNEL32.dll
 0002:00000090       __imp_EnterCriticalSection 0000000180035090     kernel32:KERNEL32.dll
 0002:00000098       __imp_MultiByteToWideChar  0000000180035098     kernel32:KERNEL32.dll
 0002:000000a0       __imp_GetFileType          00000001800350a0     kernel32:KERNEL32.dll
 0002:000000a8       __imp_GetStdHandle         00000001800350a8     kernel32:KERNEL32.dll
 0002:000000b0       __imp_GetTickCount         00000001800350b0     kernel32:KERNEL32.dll
 0002:000000b8       __imp_QueryPerformanceCounter 00000001800350b8     kernel32:KERNEL32.dll
 0002:000000c0       __imp_GlobalMemoryStatus   00000001800350c0     kernel32:KERNEL32.dll
 0002:000000c8       __imp_FreeLibrary          00000001800350c8     kernel32:KERNEL32.dll
 0002:000000d0       __imp_LoadLibraryW         00000001800350d0     kernel32:KERNEL32.dll
 0002:000000d8       __imp_GetVersionExW        00000001800350d8     kernel32:KERNEL32.dll
 0002:000000e0       __imp_SetEndOfFile         00000001800350e0     kernel32:KERNEL32.dll
 0002:000000e8       __imp_CreateFileW          00000001800350e8     kernel32:KERNEL32.dll
 0002:000000f0       __imp_HeapSize             00000001800350f0     kernel32:KERNEL32.dll
 0002:000000f8       __imp_SetEnvironmentVariableA 00000001800350f8     kernel32:KERNEL32.dll
 0002:00000100       __imp_CompareStringW       0000000180035100     kernel32:KERNEL32.dll
 0002:00000108       __imp_VirtualAlloc         0000000180035108     kernel32:KERNEL32.dll
 0002:00000110       __imp_GetProcAddress       0000000180035110     kernel32:KERNEL32.dll
 0002:00000118       __imp_FlushInstructionCache 0000000180035118     kernel32:KERNEL32.dll
 0002:00000120       __imp_SetThreadPriority    0000000180035120     kernel32:KERNEL32.dll
 0002:00000128       __imp_LeaveCriticalSection 0000000180035128     kernel32:KERNEL32.dll
 0002:00000130       __imp_Sleep                0000000180035130     kernel32:KERNEL32.dll
 0002:00000138       __imp_InitializeCriticalSection 0000000180035138     kernel32:KERNEL32.dll
 0002:00000140       __imp_VirtualFree          0000000180035140     kernel32:KERNEL32.dll
 0002:00000148       __imp_GetModuleHandleW     0000000180035148     kernel32:KERNEL32.dll
 0002:00000150       __imp_VirtualQuery         0000000180035150     kernel32:KERNEL32.dll
 0002:00000158       __imp_GetCurrentProcess    0000000180035158     kernel32:KERNEL32.dll
 0002:00000160       __imp_GetThreadContext     0000000180035160     kernel32:KERNEL32.dll
 0002:00000168       __imp_GetVersion           0000000180035168     kernel32:KERNEL32.dll
 0002:00000170       __imp_GetCurrentThread     0000000180035170     kernel32:KERNEL32.dll
 0002:00000178       __imp_LocalAlloc           0000000180035178     kernel32:KERNEL32.dll
 0002:00000180       __imp_LoadLibraryA         0000000180035180     kernel32:KERNEL32.dll
 0002:00000188       __imp_RaiseException       0000000180035188     kernel32:KERNEL32.dll
 0002:00000190       __imp_WriteConsoleW        0000000180035190     kernel32:KERNEL32.dll
 0002:00000198       __imp_GetModuleFileNameW   0000000180035198     kernel32:KERNEL32.dll
 0002:000001a0       __imp_HeapFree             00000001800351a0     kernel32:KERNEL32.dll
 0002:000001a8       __imp_HeapAlloc            00000001800351a8     kernel32:KERNEL32.dll
 0002:000001b0       __imp_FlsSetValue          00000001800351b0     kernel32:KERNEL32.dll
 0002:000001b8       __imp_GetCommandLineA      00000001800351b8     kernel32:KERNEL32.dll
 0002:000001c0       __imp_HeapReAlloc          00000001800351c0     kernel32:KERNEL32.dll
 0002:000001c8       __imp_GetSystemTimeAsFileTime 00000001800351c8     kernel32:KERNEL32.dll
 0002:000001d0       __imp_RtlUnwindEx          00000001800351d0     kernel32:KERNEL32.dll
 0002:000001d8       __imp_TerminateProcess     00000001800351d8     kernel32:KERNEL32.dll
 0002:000001e0       __imp_UnhandledExceptionFilter 00000001800351e0     kernel32:KERNEL32.dll
 0002:000001e8       __imp_IsDebuggerPresent    00000001800351e8     kernel32:KERNEL32.dll
 0002:000001f0       __imp_RtlVirtualUnwind     00000001800351f0     kernel32:KERNEL32.dll
 0002:000001f8       __imp_RtlLookupFunctionEntry 00000001800351f8     kernel32:KERNEL32.dll
 0002:00000200       __imp_RtlCaptureContext    0000000180035200     kernel32:KERNEL32.dll
 0002:00000208       __imp_EncodePointer        0000000180035208     kernel32:KERNEL32.dll
 0002:00000210       __imp_DecodePointer        0000000180035210     kernel32:KERNEL32.dll
 0002:00000218       __imp_SetHandleCount       0000000180035218     kernel32:KERNEL32.dll
 0002:00000220       __imp_InitializeCriticalSectionAndSpinCount 0000000180035220     kernel32:KERNEL32.dll
 0002:00000228       __imp_GetStartupInfoW      0000000180035228     kernel32:KERNEL32.dll
 0002:00000230       __imp_DeleteCriticalSection 0000000180035230     kernel32:KERNEL32.dll
 0002:00000238       __imp_WriteFile            0000000180035238     kernel32:KERNEL32.dll
 0002:00000240       __imp_WideCharToMultiByte  0000000180035240     kernel32:KERNEL32.dll
 0002:00000248       __imp_GetConsoleCP         0000000180035248     kernel32:KERNEL32.dll
 0002:00000250       __imp_GetConsoleMode       0000000180035250     kernel32:KERNEL32.dll
 0002:00000258       __imp_FlushFileBuffers     0000000180035258     kernel32:KERNEL32.dll
 0002:00000260       __imp_GetCPInfo            0000000180035260     kernel32:KERNEL32.dll
 0002:00000268       __imp_GetACP               0000000180035268     kernel32:KERNEL32.dll
 0002:00000270       __imp_GetOEMCP             0000000180035270     kernel32:KERNEL32.dll
 0002:00000278       __imp_IsValidCodePage      0000000180035278     kernel32:KERNEL32.dll
 0002:00000280       __imp_FlsGetValue          0000000180035280     kernel32:KERNEL32.dll
 0002:00000288       __imp_FlsFree              0000000180035288     kernel32:KERNEL32.dll
 0002:00000290       __imp_SetLastError         0000000180035290     kernel32:KERNEL32.dll
 0002:00000298       __imp_FlsAlloc             0000000180035298     kernel32:KERNEL32.dll
 0002:000002a0       __imp_HeapSetInformation   00000001800352a0     kernel32:KERNEL32.dll
 0002:000002a8       __imp_HeapCreate           00000001800352a8     kernel32:KERNEL32.dll
 0002:000002b0       __imp_HeapDestroy          00000001800352b0     kernel32:KERNEL32.dll
 0002:000002b8       __imp_SetFilePointer       00000001800352b8     kernel32:KERNEL32.dll
 0002:000002c0       __imp_GetModuleFileNameA   00000001800352c0     kernel32:KERNEL32.dll
 0002:000002c8       __imp_FreeEnvironmentStringsW 00000001800352c8     kernel32:KERNEL32.dll
 0002:000002d0       __imp_GetEnvironmentStringsW 00000001800352d0     kernel32:KERNEL32.dll
 0002:000002d8       __imp_ReadFile             00000001800352d8     kernel32:KERNEL32.dll
 0002:000002e0       __imp_SetStdHandle         00000001800352e0     kernel32:KERNEL32.dll
 0002:000002e8       __imp_LCMapStringW         00000001800352e8     kernel32:KERNEL32.dll
 0002:000002f0       __imp_GetStringTypeW       00000001800352f0     kernel32:KERNEL32.dll
 0002:000002f8       __imp_CreateFileA          00000001800352f8     kernel32:KERNEL32.dll
 0002:00000300       __imp_GetProcessHeap       0000000180035300     kernel32:KERNEL32.dll
 0002:00000308       \177KERNEL32_NULL_THUNK_DATA 0000000180035308     kernel32:KERNEL32.dll
 0002:00000310       __imp_GetDesktopWindow     0000000180035310     user32:USER32.dll
 0002:00000318       __imp_GetProcessWindowStation 0000000180035318     user32:USER32.dll
 0002:00000320       __imp_GetUserObjectInformationW 0000000180035320     user32:USER32.dll
 0002:00000328       __imp_MessageBoxW          0000000180035328     user32:USER32.dll
 0002:00000330       \177USER32_NULL_THUNK_DATA 0000000180035330     user32:USER32.dll
 0002:00000338       __xc_a                     0000000180035338     LIBCMT:crt0init.obj
 0002:00000358       __xc_z                     0000000180035358     LIBCMT:crt0init.obj
 0002:00000360       __xi_a                     0000000180035360     LIBCMT:crt0init.obj
 0002:00000380       __xi_z                     0000000180035380     LIBCMT:crt0init.obj
 0002:00000388       __xp_a                     0000000180035388     LIBCMT:crt0init.obj
 0002:000003a0       __xp_z                     00000001800353a0     LIBCMT:crt0init.obj
 0002:000003a8       __xt_a                     00000001800353a8     LIBCMT:crt0init.obj
 0002:000003b0       __xt_z                     00000001800353b0     LIBCMT:crt0init.obj
 0002:000003c0       __sz_metsrv_dll            00000001800353c0     metsrv:metsrv.dll
 0002:000003d0       EVP_version                00000001800353d0     libeay32:evp_enc.obj
 0002:000003f8       ??_C@_0BH@FPKHLGPK@?4?2crypto?2evp?2evp_enc?4c?$AA@ 00000001800353f8     libeay32:evp_enc.obj
 0002:00000410       ??_C@_0BM@NOPGEACO@bl?5?$DM?$DN?5?$CIint?$CJsizeof?$CIctx?9?$DObuf?$CJ?$AA@ 0000000180035410     libeay32:evp_enc.obj
 0002:00000430       ??_C@_0BH@JPOFFCDO@b?5?$DM?$DN?5sizeof?5ctx?9?$DOfinal?$AA@ 0000000180035430     libeay32:evp_enc.obj
 0002:00000688       ??_C@_0BH@BGJCOGPL@?4?2crypto?2evp?2enc_min?4c?$AA@ 0000000180035688     libeay32:enc_min.obj
 0002:000006a0       ??_C@_0DG@IKOHIL@EVP_CIPHER_CTX_iv_length?$CIctx?$CJ?5?$DM?$DN@ 00000001800356a0     libeay32:enc_min.obj
 0002:000006e0       ??_C@_0FO@KIBMBINE@ctx?9?$DOcipher?9?$DOblock_size?5?$DN?$DN?51?5?$HM?$HM?5@ 00000001800356e0     libeay32:enc_min.obj
 0002:00000740       ??_C@_1BG@MLNJHGBB@?$AAS?$AAe?$AAr?$AAv?$AAi?$AAc?$AAe?$AA?9?$AA0?$AAx?$AA?$AA@ 0000000180035740     libeay32:cryptlib.obj
 0002:00000758       ??_C@_1BO@DCCMIJEM@?$AAO?$AAp?$AAe?$AAn?$AAS?$AAS?$AAL?$AA?3?$AA?5?$AAF?$AAA?$AAT?$AAA?$AAL?$AA?$AA@ 0000000180035758     libeay32:cryptlib.obj
 0002:00000778       ??_C@_1BA@DMBJHAPN@?$AAO?$AAP?$AAE?$AAN?$AAS?$AAS?$AAL?$AA?$AA@ 0000000180035778     libeay32:cryptlib.obj
 0002:00000788       ??_C@_1BE@NLCFDLCA@?$AAn?$AAo?$AA?5?$AAs?$AAt?$AAa?$AAc?$AAk?$AA?$DP?$AA?$AA@ 0000000180035788     libeay32:cryptlib.obj
 0002:000007a0       ??_C@_0DG@JJAMFCAP@?$CFs?$CI?$CFd?$CJ?3?5OpenSSL?5internal?5error?0?5@ 00000001800357a0     libeay32:cryptlib.obj
 0002:000007d6       ??_C@_00CNPNBAHC@?$AA@     00000001800357d6     libeay32:err.obj
 0002:000007d8       ??_C@_0BD@CKILGKAI@?4?2crypto?2err?2err?4c?$AA@ 00000001800357d8     libeay32:err.obj
 0002:000007f0       ??_C@_0BH@HCDEFMEH@?4?2crypto?2evp?2evp_lib?4c?$AA@ 00000001800357f0     libeay32:evp_lib.obj
 0002:00000808       ??_C@_0BD@LHHAEAAJ@l?5?$DM?$DN?5sizeof?$CIc?9?$DOiv?$CJ?$AA@ 0000000180035808     libeay32:evp_lib.obj
 0002:00000820       ??_C@_0BD@CKKMELBK@j?5?$DM?$DN?5sizeof?$CIc?9?$DOiv?$CJ?$AA@ 0000000180035820     libeay32:evp_lib.obj
 0002:00000840       DES_SPtrans                0000000180035840     libeay32:ecb_enc.obj
 0002:000019c0       ??_C@_0BM@JJNBBBD@?4?2crypto?2engine?2tb_cipher?4c?$AA@ 00000001800369c0     libeay32:tb_cipher.obj
 0002:000019e0       ??_C@_0BL@BEBELKO@?4?2crypto?2engine?2eng_init?4c?$AA@ 00000001800369e0     libeay32:eng_init.obj
 0002:00001a58       ??_C@_0BH@OHLOAGAE@?4?2crypto?2err?2err_def?4c?$AA@ 0000000180036a58     libeay32:err_def.obj
 0002:00001a70       ??_C@_0BE@CGMKPIME@int_err_get?5?$CIerr?4c?$CJ?$AA@ 0000000180036a70     libeay32:err_def.obj
 0002:00001a88       ??_C@_0BH@KBGLDIDO@int_thread_get?5?$CIerr?4c?$CJ?$AA@ 0000000180036a88     libeay32:err_def.obj
 0002:00001aa0       RAND_version               0000000180036aa0     libeay32:md_rand.obj
 0002:00001ac8       __real@4040000000000000    0000000180036ac8     libeay32:md_rand.obj
 0002:00001ad0       ??_C@_0BI@MJCOAGKM@?4?2crypto?2rand?2md_rand?4c?$AA@ 0000000180036ad0     libeay32:md_rand.obj
 0002:00001af0       ??_C@_0EK@MHBHPLPP@You?5need?5to?5read?5the?5OpenSSL?5FAQ@ 0000000180036af0     libeay32:md_rand.obj
 0002:00001b40       ??_C@_0BF@KNMHCCP@?4?4?4?4?4?4?4?4?4?4?4?4?4?4?4?4?4?4?4?4?$AA@ 0000000180036b40     libeay32:md_rand.obj
 0002:00001b60       ??_C@_0BJ@IFLEADKK@?4?2crypto?2asn1?2evp_asn1?4c?$AA@ 0000000180036b60     libeay32:evp_asn1.obj
 0002:00001b80       ??_C@_0BJ@GIEGEKPM@?4?2crypto?2asn1?2a_object?4c?$AA@ 0000000180036b80     libeay32:a_object.obj
 0002:00001b9c       ??_C@_04HIBGFPH@NULL?$AA@  0000000180036b9c     libeay32:a_object.obj
 0002:00001ba8       ??_C@_0BF@DGGAJJCO@Permanent?5Identifier?$AA@ 0000000180036ba8     libeay32:obj_dat.obj
 0002:00001bc0       ??_C@_0BK@BMFCOPIC@id?9on?9permanentIdentifier?$AA@ 0000000180036bc0     libeay32:obj_dat.obj
 0002:00001be0       ??_C@_0BE@KEJIKEFG@X509v3?5Freshest?5CRL?$AA@ 0000000180036be0     libeay32:obj_dat.obj
 0002:00001bf8       ??_C@_0M@PKNKMHEG@freshestCRL?$AA@ 0000000180036bf8     libeay32:obj_dat.obj
 0002:00001c08       ??_C@_0BI@FMFOLFMC@Microsoft?5Local?5Key?5set?$AA@ 0000000180036c08     libeay32:obj_dat.obj
 0002:00001c20       ??_C@_0M@LCODBGNO@LocalKeySet?$AA@ 0000000180036c20     libeay32:obj_dat.obj
 0002:00001c2c       ??_C@_04FOBGICMD@hmac?$AA@ 0000000180036c2c     libeay32:obj_dat.obj
 0002:00001c34       ??_C@_04JCCMGALL@HMAC?$AA@ 0000000180036c34     libeay32:obj_dat.obj
 0002:00001c40       ??_C@_0CJ@NCCJHEBD@GOST?5R?53410?92001?5Parameter?5Set?5C@ 0000000180036c40     libeay32:obj_dat.obj
 0002:00001c70       ??_C@_0BO@LBPHKLOM@id?9GostR3410?92001?9ParamSet?9cc?$AA@ 0000000180036c70     libeay32:obj_dat.obj
 0002:00001c90       ??_C@_0DB@BGOOPLFE@GOST?5R?534?411?994?5with?5GOST?5R?534?41@ 0000000180036c90     libeay32:obj_dat.obj
 0002:00001cc8       ??_C@_0CH@JJNMILDM@id?9GostR3411?994?9with?9GostR3410?92@ 0000000180036cc8     libeay32:obj_dat.obj
 0002:00001cf0       ??_C@_0CP@ILDIBBAJ@GOST?5R?534?411?994?5with?5GOST?5R?534?41@ 0000000180036cf0     libeay32:obj_dat.obj
 0002:00001d20       ??_C@_0CF@FCIKJGLH@id?9GostR3411?994?9with?9GostR3410?99@ 0000000180036d20     libeay32:obj_dat.obj
 0002:00001d48       ??_C@_0BK@IGCJADLM@GOST?534?410?92001?5Cryptocom?$AA@ 0000000180036d48     libeay32:obj_dat.obj
 0002:00001d68       ??_C@_0L@PKDOCLKG@gost2001cc?$AA@ 0000000180036d68     libeay32:obj_dat.obj
 0002:00001d78       ??_C@_0BI@GJIILMEB@GOST?534?410?994?5Cryptocom?$AA@ 0000000180036d78     libeay32:obj_dat.obj
 0002:00001d90       ??_C@_08LCDFMIFG@gost94cc?$AA@ 0000000180036d90     libeay32:obj_dat.obj
 0002:00001da0       ??_C@_0CB@KNOPDNHN@GOST?528147?989?5Cryptocom?5ParamSet@ 0000000180036da0     libeay32:obj_dat.obj
 0002:00001dc8       ??_C@_0BD@MEAAKKFJ@id?9Gost28147?989?9cc?$AA@ 0000000180036dc8     libeay32:obj_dat.obj
 0002:00001de0       ??_C@_0BF@PGMBMCGF@id?9GostR3410?994?9bBis?$AA@ 0000000180036de0     libeay32:obj_dat.obj
 0002:00001df8       ??_C@_0BC@MKOAJFN@id?9GostR3410?994?9b?$AA@ 0000000180036df8     libeay32:obj_dat.obj
 0002:00001e10       ??_C@_0BF@LBGBLILF@id?9GostR3410?994?9aBis?$AA@ 0000000180036e10     libeay32:obj_dat.obj
 0002:00001e28       ??_C@_0BC@CHIDFKJO@id?9GostR3410?994?9a?$AA@ 0000000180036e28     libeay32:obj_dat.obj
 0002:00001e40       ??_C@_0CK@GDLEHLKF@id?9GostR3410?92001?9CryptoPro?9XchB@ 0000000180036e40     libeay32:obj_dat.obj
 0002:00001e70       ??_C@_0CK@PKFGBNKE@id?9GostR3410?92001?9CryptoPro?9XchA@ 0000000180036e70     libeay32:obj_dat.obj
 0002:00001ea0       ??_C@_0CH@DLGDIIGO@id?9GostR3410?92001?9CryptoPro?9C?9Pa@ 0000000180036ea0     libeay32:obj_dat.obj
 0002:00001ec8       ??_C@_0CH@PKONFHKO@id?9GostR3410?92001?9CryptoPro?9B?9Pa@ 0000000180036ec8     libeay32:obj_dat.obj
 0002:00001ef0       ??_C@_0CH@GDAPDBKP@id?9GostR3410?92001?9CryptoPro?9A?9Pa@ 0000000180036ef0     libeay32:obj_dat.obj
 0002:00001f18       ??_C@_0BP@GEEJLPDI@id?9GostR3410?92001?9TestParamSet?$AA@ 0000000180036f18     libeay32:obj_dat.obj
 0002:00001f38       ??_C@_0CI@DAANNIN@id?9GostR3410?994?9CryptoPro?9XchC?9P@ 0000000180036f38     libeay32:obj_dat.obj
 0002:00001f60       ??_C@_0CI@MCIOACEN@id?9GostR3410?994?9CryptoPro?9XchB?9P@ 0000000180036f60     libeay32:obj_dat.obj
 0002:00001f88       ??_C@_0CI@FLGMGEEM@id?9GostR3410?994?9CryptoPro?9XchA?9P@ 0000000180036f88     libeay32:obj_dat.obj
 0002:00001fb0       ??_C@_0CF@LMAJFDGB@id?9GostR3410?994?9CryptoPro?9D?9Para@ 0000000180036fb0     libeay32:obj_dat.obj
 0002:00001fd8       ??_C@_0CF@JFDCEGOC@id?9GostR3410?994?9CryptoPro?9C?9Para@ 0000000180036fd8     libeay32:obj_dat.obj
 0002:00002000       ??_C@_0CF@FELMJJCC@id?9GostR3410?994?9CryptoPro?9B?9Para@ 0000000180037000     libeay32:obj_dat.obj
 0002:00002028       ??_C@_0CF@MNFOPPCD@id?9GostR3410?994?9CryptoPro?9A?9Para@ 0000000180037028     libeay32:obj_dat.obj
 0002:00002050       ??_C@_0BN@NAOAJFAF@id?9GostR3410?994?9TestParamSet?$AA@ 0000000180037050     libeay32:obj_dat.obj
 0002:00002070       ??_C@_0CJ@IIADIAJH@id?9Gost28147?989?9CryptoPro?9RIC?91?9@ 0000000180037070     libeay32:obj_dat.obj
 0002:000020a0       ??_C@_0CN@IIJDEMNM@id?9Gost28147?989?9CryptoPro?9Oscar?9@ 00000001800370a0     libeay32:obj_dat.obj
 0002:000020d0       ??_C@_0CN@EJBNJDBM@id?9Gost28147?989?9CryptoPro?9Oscar?9@ 00000001800370d0     libeay32:obj_dat.obj
 0002:00002100       ??_C@_0CF@IEBLBMOP@id?9Gost28147?989?9CryptoPro?9D?9Para@ 0000000180037100     libeay32:obj_dat.obj
 0002:00002128       ??_C@_0CF@KNCAAJGM@id?9Gost28147?989?9CryptoPro?9C?9Para@ 0000000180037128     libeay32:obj_dat.obj
 0002:00002150       ??_C@_0CF@GMKONGKM@id?9Gost28147?989?9CryptoPro?9B?9Para@ 0000000180037150     libeay32:obj_dat.obj
 0002:00002178       ??_C@_0CF@PFEMLAKN@id?9Gost28147?989?9CryptoPro?9A?9Para@ 0000000180037178     libeay32:obj_dat.obj
 0002:000021a0       ??_C@_0BN@GKJFBLMI@id?9Gost28147?989?9TestParamSet?$AA@ 00000001800371a0     libeay32:obj_dat.obj
 0002:000021c0       ??_C@_0CC@DOHJLMBI@id?9GostR3411?994?9CryptoProParamSe@ 00000001800371c0     libeay32:obj_dat.obj
 0002:000021e8       ??_C@_0BN@DPLCCDOE@id?9GostR3411?994?9TestParamSet?$AA@ 00000001800371e8     libeay32:obj_dat.obj
 0002:00002208       ??_C@_0CA@BLJAEGEG@id?9Gost28147?989?9None?9KeyMeshing?$AA@ 0000000180037208     libeay32:obj_dat.obj
 0002:00002228       ??_C@_0CF@MMKONEIK@id?9Gost28147?989?9CryptoPro?9KeyMes@ 0000000180037228     libeay32:obj_dat.obj
 0002:00002250       ??_C@_0BD@LGKAOLPL@GOST?5R?534?410?994?5DH?$AA@ 0000000180037250     libeay32:obj_dat.obj
 0002:00002268       ??_C@_0BC@CEMDDFNK@id?9GostR3410?994DH?$AA@ 0000000180037268     libeay32:obj_dat.obj
 0002:00002280       ??_C@_0BF@OKPANPLK@GOST?5R?534?410?92001?5DH?$AA@ 0000000180037280     libeay32:obj_dat.obj
 0002:00002298       ??_C@_0BE@OBKEJCJB@id?9GostR3410?92001DH?$AA@ 0000000180037298     libeay32:obj_dat.obj
 0002:000022b0       ??_C@_0BE@FFELJBNB@GOST?5R?534?411?994?5PRF?$AA@ 00000001800372b0     libeay32:obj_dat.obj
 0002:000022c8       ??_C@_0BB@LJIINAAP@prf?9gostr3411?994?$AA@ 00000001800372c8     libeay32:obj_dat.obj
 0002:000022e0       ??_C@_0BC@BPAGAEJB@GOST?528147?989?5MAC?$AA@ 00000001800372e0     libeay32:obj_dat.obj
 0002:000022f8       ??_C@_08JCNEGNFC@gost?9mac?$AA@ 00000001800372f8     libeay32:obj_dat.obj
 0002:00002308       ??_C@_0L@INGOKGPP@gost89?9cnt?$AA@ 0000000180037308     libeay32:obj_dat.obj
 0002:00002318       ??_C@_0O@POKHNLDL@GOST?528147?989?$AA@ 0000000180037318     libeay32:obj_dat.obj
 0002:00002328       ??_C@_06KLPDHLCD@gost89?$AA@ 0000000180037328     libeay32:obj_dat.obj
 0002:00002330       ??_C@_0BA@JOCBNIHN@GOST?5R?534?410?994?$AA@ 0000000180037330     libeay32:obj_dat.obj
 0002:00002340       ??_C@_06BPJPGPFJ@gost94?$AA@ 0000000180037340     libeay32:obj_dat.obj
 0002:00002348       ??_C@_0BC@IBNIHBI@GOST?5R?534?410?92001?$AA@ 0000000180037348     libeay32:obj_dat.obj
 0002:00002360       ??_C@_08KMPAMBCP@gost2001?$AA@ 0000000180037360     libeay32:obj_dat.obj
 0002:00002370       ??_C@_0BD@BHKLGKNG@HMAC?5GOST?534?411?994?$AA@ 0000000180037370     libeay32:obj_dat.obj
 0002:00002388       ??_C@_0BE@EBBOKDGI@id?9HMACGostR3411?994?$AA@ 0000000180037388     libeay32:obj_dat.obj
 0002:000023a0       ??_C@_0BA@KDEBPBMN@GOST?5R?534?411?994?$AA@ 00000001800373a0     libeay32:obj_dat.obj
 0002:000023b0       ??_C@_09MIOJGGFD@md_gost94?$AA@ 00000001800373b0     libeay32:obj_dat.obj
 0002:000023c0       ??_C@_0CF@PAGBHGOC@GOST?5R?534?411?994?5with?5GOST?5R?534?41@ 00000001800373c0     libeay32:obj_dat.obj
 0002:000023e8       ??_C@_0CC@LCAPGDKC@id?9GostR3411?994?9with?9GostR3410?99@ 00000001800373e8     libeay32:obj_dat.obj
 0002:00002410       ??_C@_0CH@MPKKPBGC@GOST?5R?534?411?994?5with?5GOST?5R?534?41@ 0000000180037410     libeay32:obj_dat.obj
 0002:00002438       ??_C@_0CE@FCAOBIOC@id?9GostR3411?994?9with?9GostR3410?92@ 0000000180037438     libeay32:obj_dat.obj
 0002:00002460       ??_C@_09JGBNPHGI@cryptocom?$AA@ 0000000180037460     libeay32:obj_dat.obj
 0002:00002470       ??_C@_09PCHJFNLI@cryptopro?$AA@ 0000000180037470     libeay32:obj_dat.obj
 0002:00002480       ??_C@_09DEGKDAEL@whirlpool?$AA@ 0000000180037480     libeay32:obj_dat.obj
 0002:00002490       ??_C@_0BA@FMFCOCGA@dsa_with_SHA256?$AA@ 0000000180037490     libeay32:obj_dat.obj
 0002:000024a0       ??_C@_0BA@GLCLJGGH@dsa_with_SHA224?$AA@ 00000001800374a0     libeay32:obj_dat.obj
 0002:000024b0       ??_C@_0P@FLKKCAHA@hmacWithSHA512?$AA@ 00000001800374b0     libeay32:obj_dat.obj
 0002:000024c0       ??_C@_0P@CHEKODKF@hmacWithSHA384?$AA@ 00000001800374c0     libeay32:obj_dat.obj
 0002:000024d0       ??_C@_0P@KFBIHFBB@hmacWithSHA256?$AA@ 00000001800374d0     libeay32:obj_dat.obj
 0002:000024e0       ??_C@_0P@JCGBABBG@hmacWithSHA224?$AA@ 00000001800374e0     libeay32:obj_dat.obj
 0002:000024f0       ??_C@_0M@KOBPMNIO@hmacWithMD5?$AA@ 00000001800374f0     libeay32:obj_dat.obj
 0002:00002500       ??_C@_0BC@DONDMJAG@ecdsa?9with?9SHA512?$AA@ 0000000180037500     libeay32:obj_dat.obj
 0002:00002518       ??_C@_0BC@ECDDAKND@ecdsa?9with?9SHA384?$AA@ 0000000180037518     libeay32:obj_dat.obj
 0002:00002530       ??_C@_0BC@MAGBJMGH@ecdsa?9with?9SHA256?$AA@ 0000000180037530     libeay32:obj_dat.obj
 0002:00002548       ??_C@_0BC@PHBIOIGA@ecdsa?9with?9SHA224?$AA@ 0000000180037548     libeay32:obj_dat.obj
 0002:00002560       ??_C@_0BF@INFCLNHO@ecdsa?9with?9Specified?$AA@ 0000000180037560     libeay32:obj_dat.obj
 0002:00002578       ??_C@_0BH@GCJALNKM@ecdsa?9with?9Recommended?$AA@ 0000000180037578     libeay32:obj_dat.obj
 0002:00002590       ??_C@_0P@KDMMBOEP@id?9aes256?9wrap?$AA@ 0000000180037590     libeay32:obj_dat.obj
 0002:000025a0       ??_C@_0P@DJKBBDNG@id?9aes192?9wrap?$AA@ 00000001800375a0     libeay32:obj_dat.obj
 0002:000025b0       ??_C@_0P@MALLFAMO@id?9aes128?9wrap?$AA@ 00000001800375b0     libeay32:obj_dat.obj
 0002:000025c0       ??_C@_0BI@FNBGJEPL@id?9ct?9asciiTextWithCRLF?$AA@ 00000001800375c0     libeay32:obj_dat.obj
 0002:000025d8       ??_C@_0BL@HEJKLKLL@id?9smime?9ct?9compressedData?$AA@ 00000001800375d8     libeay32:obj_dat.obj
 0002:000025f8       ??_C@_0O@LBCGFGCI@CA?5Repository?$AA@ 00000001800375f8     libeay32:obj_dat.obj
 0002:00002608       ??_C@_0N@CKNFLOGG@caRepository?$AA@ 0000000180037608     libeay32:obj_dat.obj
 0002:00002618       ??_C@_0BD@MGCOMIO@id?9it?9suppLangTags?$AA@ 0000000180037618     libeay32:obj_dat.obj
 0002:00002630       ??_C@_0BJ@CDGIGDFG@Diffie?9Hellman?5based?5MAC?$AA@ 0000000180037630     libeay32:obj_dat.obj
 0002:00002650       ??_C@_0O@MEHCKGFD@id?9DHBasedMac?$AA@ 0000000180037650     libeay32:obj_dat.obj
 0002:00002660       ??_C@_0BD@FANJCJAP@password?5based?5MAC?$AA@ 0000000180037660     libeay32:obj_dat.obj
 0002:00002678       ??_C@_0BE@HCNFOMHA@id?9PasswordBasedMAC?$AA@ 0000000180037678     libeay32:obj_dat.obj
 0002:00002690       ??_C@_09KBOMLGBN@hmac?9sha1?$AA@ 0000000180037690     libeay32:obj_dat.obj
 0002:000026a0       ??_C@_09DDFKKHO@HMAC?9SHA1?$AA@ 00000001800376a0     libeay32:obj_dat.obj
 0002:000026b0       ??_C@_08LPACCAD@hmac?9md5?$AA@ 00000001800376b0     libeay32:obj_dat.obj
 0002:000026c0       ??_C@_08CABJBHIC@HMAC?9MD5?$AA@ 00000001800376c0     libeay32:obj_dat.obj
 0002:000026d0       ??_C@_08JGLJJHP@seed?9cfb?$AA@ 00000001800376d0     libeay32:obj_dat.obj
 0002:000026e0       ??_C@_08LHAGIIFM@SEED?9CFB?$AA@ 00000001800376e0     libeay32:obj_dat.obj
 0002:000026f0       ??_C@_08EDLNCGMH@seed?9ofb?$AA@ 00000001800376f0     libeay32:obj_dat.obj
 0002:00002700       ??_C@_08PNNADHOE@SEED?9OFB?$AA@ 0000000180037700     libeay32:obj_dat.obj
 0002:00002710       ??_C@_08BHHJAAOC@seed?9cbc?$AA@ 0000000180037710     libeay32:obj_dat.obj
 0002:00002720       ??_C@_08KJBEBBMB@SEED?9CBC?$AA@ 0000000180037720     libeay32:obj_dat.obj
 0002:00002730       ??_C@_08CKMLAEEI@seed?9ecb?$AA@ 0000000180037730     libeay32:obj_dat.obj
 0002:00002740       ??_C@_08JEKGBFGL@SEED?9ECB?$AA@ 0000000180037740     libeay32:obj_dat.obj
 0002:0000274c       ??_C@_04LLEAHKNI@kisa?$AA@ 000000018003774c     libeay32:obj_dat.obj
 0002:00002754       ??_C@_04HHHKJIKA@KISA?$AA@ 0000000180037754     libeay32:obj_dat.obj
 0002:00002760       ??_C@_0BK@EMNEMCDI@X509v3?5Certificate?5Issuer?$AA@ 0000000180037760     libeay32:obj_dat.obj
 0002:00002780       ??_C@_0BC@NAJGKAHO@certificateIssuer?$AA@ 0000000180037780     libeay32:obj_dat.obj
 0002:00002798       ??_C@_0CC@MMIACGNM@X509v3?5Issuing?5Distrubution?5Poin@ 0000000180037798     libeay32:obj_dat.obj
 0002:000027c0       ??_C@_0BJ@OAOPOBMH@issuingDistributionPoint?$AA@ 00000001800377c0     libeay32:obj_dat.obj
 0002:000027e0       ??_C@_0CE@OGGDDHCK@X509v3?5Subject?5Directory?5Attribu@ 00000001800377e0     libeay32:obj_dat.obj
 0002:00002808       ??_C@_0BL@GAJEKNCJ@subjectDirectoryAttributes?$AA@ 0000000180037808     libeay32:obj_dat.obj
 0002:00002828       ??_C@_0BB@EGAOKAEM@camellia?9256?9ofb?$AA@ 0000000180037828     libeay32:obj_dat.obj
 0002:00002840       ??_C@_0BB@FFEGHOPL@CAMELLIA?9256?9OFB?$AA@ 0000000180037840     libeay32:obj_dat.obj
 0002:00002858       ??_C@_0BB@JELAIPMN@camellia?9192?9ofb?$AA@ 0000000180037858     libeay32:obj_dat.obj
 0002:00002870       ??_C@_0BB@IHPIFBHK@CAMELLIA?9192?9OFB?$AA@ 0000000180037870     libeay32:obj_dat.obj
 0002:00002888       ??_C@_0BB@DHCMPIFB@camellia?9128?9ofb?$AA@ 0000000180037888     libeay32:obj_dat.obj
 0002:000028a0       ??_C@_0BB@CEGECGOG@CAMELLIA?9128?9OFB?$AA@ 00000001800378a0     libeay32:obj_dat.obj
 0002:000028b8       ??_C@_0BC@KNEDFCOB@camellia?9256?9cfb8?$AA@ 00000001800378b8     libeay32:obj_dat.obj
 0002:000028d0       ??_C@_0BC@PIFFDMBA@CAMELLIA?9256?9CFB8?$AA@ 00000001800378d0     libeay32:obj_dat.obj
 0002:000028e8       ??_C@_0BC@DHCOFPHI@camellia?9192?9cfb8?$AA@ 00000001800378e8     libeay32:obj_dat.obj
 0002:00002900       ??_C@_0BC@GCDIDBIJ@CAMELLIA?9192?9CFB8?$AA@ 0000000180037900     libeay32:obj_dat.obj
 0002:00002918       ??_C@_0BC@MODEBMGA@camellia?9128?9cfb8?$AA@ 0000000180037918     libeay32:obj_dat.obj
 0002:00002930       ??_C@_0BC@JLCCHCJB@CAMELLIA?9128?9CFB8?$AA@ 0000000180037930     libeay32:obj_dat.obj
 0002:00002948       ??_C@_0BC@HMIBOJKI@camellia?9256?9cfb1?$AA@ 0000000180037948     libeay32:obj_dat.obj
 0002:00002960       ??_C@_0BC@CJJHIHFJ@CAMELLIA?9256?9CFB1?$AA@ 0000000180037960     libeay32:obj_dat.obj
 0002:00002978       ??_C@_0BC@OGOMOEDB@camellia?9192?9cfb1?$AA@ 0000000180037978     libeay32:obj_dat.obj
 0002:00002990       ??_C@_0BC@LDPKIKMA@CAMELLIA?9192?9CFB1?$AA@ 0000000180037990     libeay32:obj_dat.obj
 0002:000029a8       ??_C@_0BC@BPPGKHCJ@camellia?9128?9cfb1?$AA@ 00000001800379a8     libeay32:obj_dat.obj
 0002:000029c0       ??_C@_0BC@EKOAMJNI@CAMELLIA?9128?9CFB1?$AA@ 00000001800379c0     libeay32:obj_dat.obj
 0002:000029d8       ??_C@_0BB@MNIBPPE@camellia?9256?9cfb?$AA@ 00000001800379d8     libeay32:obj_dat.obj
 0002:000029f0       ??_C@_0BB@BPJAMBED@CAMELLIA?9256?9CFB?$AA@ 00000001800379f0     libeay32:obj_dat.obj
 0002:00002a08       ??_C@_0BB@NOGGDAHF@camellia?9192?9cfb?$AA@ 0000000180037a08     libeay32:obj_dat.obj
 0002:00002a20       ??_C@_0BB@MNCOOOMC@CAMELLIA?9192?9CFB?$AA@ 0000000180037a20     libeay32:obj_dat.obj
 0002:00002a38       ??_C@_0BB@HNPKEHOJ@camellia?9128?9cfb?$AA@ 0000000180037a38     libeay32:obj_dat.obj
 0002:00002a50       ??_C@_0BB@GOLCJJFO@CAMELLIA?9128?9CFB?$AA@ 0000000180037a50     libeay32:obj_dat.obj
 0002:00002a68       ??_C@_0BB@CPHIICMD@camellia?9256?9ecb?$AA@ 0000000180037a68     libeay32:obj_dat.obj
 0002:00002a80       ??_C@_0BB@DMDAFMHE@CAMELLIA?9256?9ECB?$AA@ 0000000180037a80     libeay32:obj_dat.obj
 0002:00002a98       ??_C@_0BB@PNMGKNEC@camellia?9192?9ecb?$AA@ 0000000180037a98     libeay32:obj_dat.obj
 0002:00002ab0       ??_C@_0BB@OOIOHDPF@CAMELLIA?9192?9ECB?$AA@ 0000000180037ab0     libeay32:obj_dat.obj
 0002:00002ac8       ??_C@_0BB@FOFKNKNO@camellia?9128?9ecb?$AA@ 0000000180037ac8     libeay32:obj_dat.obj
 0002:00002ae0       ??_C@_0BB@ENBCAEGJ@CAMELLIA?9128?9ECB?$AA@ 0000000180037ae0     libeay32:obj_dat.obj
 0002:00002af8       ??_C@_0BB@BCMKIGGJ@camellia?9256?9cbc?$AA@ 0000000180037af8     libeay32:obj_dat.obj
 0002:00002b10       ??_C@_0BB@BICFINO@CAMELLIA?9256?9CBC?$AA@ 0000000180037b10     libeay32:obj_dat.obj
 0002:00002b28       ??_C@_0BB@MAHEKJOI@camellia?9192?9cbc?$AA@ 0000000180037b28     libeay32:obj_dat.obj
 0002:00002b40       ??_C@_0BB@NDDMHHFP@CAMELLIA?9192?9CBC?$AA@ 0000000180037b40     libeay32:obj_dat.obj
 0002:00002b58       ??_C@_0BB@GDOINOHE@camellia?9128?9cbc?$AA@ 0000000180037b58     libeay32:obj_dat.obj
 0002:00002b70       ??_C@_0BB@HAKAAAMD@CAMELLIA?9128?9CBC?$AA@ 0000000180037b70     libeay32:obj_dat.obj
 0002:00002b84       ??_C@_06DEKODPNG@ipsec4?$AA@ 0000000180037b84     libeay32:obj_dat.obj
 0002:00002b90       ??_C@_0O@FENFAHJA@Oakley?9EC2N?94?$AA@ 0000000180037b90     libeay32:obj_dat.obj
 0002:00002ba0       ??_C@_06HLOPKJBB@ipsec3?$AA@ 0000000180037ba0     libeay32:obj_dat.obj
 0002:00002ba8       ??_C@_0O@BLJEJBFH@Oakley?9EC2N?93?$AA@ 0000000180037ba8     libeay32:obj_dat.obj
 0002:00002bb8       ??_C@_0BK@FPAAFIAO@X509v3?5Inhibit?5Any?5Policy?$AA@ 0000000180037bb8     libeay32:obj_dat.obj
 0002:00002bd8       ??_C@_0BB@CFCCDKGF@inhibitAnyPolicy?$AA@ 0000000180037bd8     libeay32:obj_dat.obj
 0002:00002bf0       ??_C@_0BH@NJBPACCN@X509v3?5Policy?5Mappings?$AA@ 0000000180037bf0     libeay32:obj_dat.obj
 0002:00002c08       ??_C@_0P@MEGGINDP@policyMappings?$AA@ 0000000180037c08     libeay32:obj_dat.obj
 0002:00002c18       ??_C@_0BC@CEEMIAHF@X509v3?5Any?5Policy?$AA@ 0000000180037c18     libeay32:obj_dat.obj
 0002:00002c30       ??_C@_09HBBJOJHB@anyPolicy?$AA@ 0000000180037c30     libeay32:obj_dat.obj
 0002:00002c40       ??_C@_0BI@MNOLKEAO@wap?9wsg?9idm?9ecid?9wtls12?$AA@ 0000000180037c40     libeay32:obj_dat.obj
 0002:00002c58       ??_C@_0BI@OGMGPHMN@wap?9wsg?9idm?9ecid?9wtls11?$AA@ 0000000180037c58     libeay32:obj_dat.obj
 0002:00002c70       ??_C@_0BI@PPNNMGIM@wap?9wsg?9idm?9ecid?9wtls10?$AA@ 0000000180037c70     libeay32:obj_dat.obj
 0002:00002c88       ??_C@_0BH@DMKMEGHN@wap?9wsg?9idm?9ecid?9wtls9?$AA@ 0000000180037c88     libeay32:obj_dat.obj
 0002:00002ca0       ??_C@_0BH@CFLHHHDM@wap?9wsg?9idm?9ecid?9wtls8?$AA@ 0000000180037ca0     libeay32:obj_dat.obj
 0002:00002cb8       ??_C@_0BH@KCCPGLPD@wap?9wsg?9idm?9ecid?9wtls7?$AA@ 0000000180037cb8     libeay32:obj_dat.obj
 0002:00002cd0       ??_C@_0BH@LLDEFKLC@wap?9wsg?9idm?9ecid?9wtls6?$AA@ 0000000180037cd0     libeay32:obj_dat.obj
 0002:00002ce8       ??_C@_0BH@JABJAJHB@wap?9wsg?9idm?9ecid?9wtls5?$AA@ 0000000180037ce8     libeay32:obj_dat.obj
 0002:00002d00       ??_C@_0BH@IJACDIDA@wap?9wsg?9idm?9ecid?9wtls4?$AA@ 0000000180037d00     libeay32:obj_dat.obj
 0002:00002d18       ??_C@_0BH@MGEDKOPH@wap?9wsg?9idm?9ecid?9wtls3?$AA@ 0000000180037d18     libeay32:obj_dat.obj
 0002:00002d30       ??_C@_0BH@PEHFMMHF@wap?9wsg?9idm?9ecid?9wtls1?$AA@ 0000000180037d30     libeay32:obj_dat.obj
 0002:00002d48       ??_C@_09MPLFOIFJ@sect571r1?$AA@ 0000000180037d48     libeay32:obj_dat.obj
 0002:00002d58       ??_C@_09NMECHAKG@sect571k1?$AA@ 0000000180037d58     libeay32:obj_dat.obj
 0002:00002d68       ??_C@_09HDHNMPAD@sect409r1?$AA@ 0000000180037d68     libeay32:obj_dat.obj
 0002:00002d78       ??_C@_09GAIKFHPM@sect409k1?$AA@ 0000000180037d78     libeay32:obj_dat.obj
 0002:00002d88       ??_C@_09PKOJIHLL@sect283r1?$AA@ 0000000180037d88     libeay32:obj_dat.obj
 0002:00002d98       ??_C@_09OJBOBPEE@sect283k1?$AA@ 0000000180037d98     libeay32:obj_dat.obj
 0002:00002da8       ??_C@_09PBHDMODB@sect239k1?$AA@ 0000000180037da8     libeay32:obj_dat.obj
 0002:00002db8       ??_C@_09INDJLGKK@sect233r1?$AA@ 0000000180037db8     libeay32:obj_dat.obj
 0002:00002dc8       ??_C@_09JOMOCOFF@sect233k1?$AA@ 0000000180037dc8     libeay32:obj_dat.obj
 0002:00002dd8       ??_C@_09GKDAIPGG@sect193r2?$AA@ 0000000180037dd8     libeay32:obj_dat.obj
 0002:00002de8       ??_C@_09EBBNNMKF@sect193r1?$AA@ 0000000180037de8     libeay32:obj_dat.obj
 0002:00002df8       ??_C@_09OIGABILH@sect163r2?$AA@ 0000000180037df8     libeay32:obj_dat.obj
 0002:00002e08       ??_C@_09MDENELHE@sect163r1?$AA@ 0000000180037e08     libeay32:obj_dat.obj
 0002:00002e18       ??_C@_09NALKNDIL@sect163k1?$AA@ 0000000180037e18     libeay32:obj_dat.obj
 0002:00002e28       ??_C@_09IKIJFPEM@sect131r2?$AA@ 0000000180037e28     libeay32:obj_dat.obj
 0002:00002e38       ??_C@_09KBKEAMIP@sect131r1?$AA@ 0000000180037e38     libeay32:obj_dat.obj
 0002:00002e48       ??_C@_09FKEAMEKH@sect113r2?$AA@ 0000000180037e48     libeay32:obj_dat.obj
 0002:00002e58       ??_C@_09HBGNJHGE@sect113r1?$AA@ 0000000180037e58     libeay32:obj_dat.obj
 0002:00002e68       ??_C@_09PDBKEDDK@secp521r1?$AA@ 0000000180037e68     libeay32:obj_dat.obj
 0002:00002e78       ??_C@_09FICNEILE@secp384r1?$AA@ 0000000180037e78     libeay32:obj_dat.obj
 0002:00002e88       ??_C@_09NCBPAPNE@secp256k1?$AA@ 0000000180037e88     libeay32:obj_dat.obj
 0002:00002e98       ??_C@_09NJMBIDLA@secp224r1?$AA@ 0000000180037e98     libeay32:obj_dat.obj
 0002:00002ea8       ??_C@_09MKDGBLEP@secp224k1?$AA@ 0000000180037ea8     libeay32:obj_dat.obj
 0002:00002eb8       ??_C@_09BOBJAHCM@secp192k1?$AA@ 0000000180037eb8     libeay32:obj_dat.obj
 0002:00002ec8       ??_C@_09OJKJDEK@secp160r2?$AA@ 0000000180037ec8     libeay32:obj_dat.obj
 0002:00002ed8       ??_C@_09CFLHMAIJ@secp160r1?$AA@ 0000000180037ed8     libeay32:obj_dat.obj
 0002:00002ee8       ??_C@_09DGEAFIHG@secp160k1?$AA@ 0000000180037ee8     libeay32:obj_dat.obj
 0002:00002ef8       ??_C@_09DOKOBNGF@secp128r2?$AA@ 0000000180037ef8     libeay32:obj_dat.obj
 0002:00002f08       ??_C@_09BFIDEOKG@secp128r1?$AA@ 0000000180037f08     libeay32:obj_dat.obj
 0002:00002f18       ??_C@_09BGLDIHNB@secp112r2?$AA@ 0000000180037f18     libeay32:obj_dat.obj
 0002:00002f28       ??_C@_09DNJONEBC@secp112r1?$AA@ 0000000180037f28     libeay32:obj_dat.obj
 0002:00002f38       ??_C@_0L@OFJKDCBG@c2tnb431r1?$AA@ 0000000180037f38     libeay32:obj_dat.obj
 0002:00002f48       ??_C@_0L@BGFAFBLD@c2pnb368w1?$AA@ 0000000180037f48     libeay32:obj_dat.obj
 0002:00002f58       ??_C@_0L@LFGCHHDN@c2tnb359v1?$AA@ 0000000180037f58     libeay32:obj_dat.obj
 0002:00002f68       ??_C@_0L@NDMGBLKL@c2pnb304w1?$AA@ 0000000180037f68     libeay32:obj_dat.obj
 0002:00002f78       ??_C@_0L@IPNBELMC@c2pnb272w1?$AA@ 0000000180037f78     libeay32:obj_dat.obj
 0002:00002f88       ??_C@_0L@LLIHEIJA@c2onb239v5?$AA@ 0000000180037f88     libeay32:obj_dat.obj
 0002:00002f98       ??_C@_0L@KCJMHJNB@c2onb239v4?$AA@ 0000000180037f98     libeay32:obj_dat.obj
 0002:00002fa8       ??_C@_0L@MDEIDDLK@c2tnb239v3?$AA@ 0000000180037fa8     libeay32:obj_dat.obj
 0002:00002fb8       ??_C@_0L@NKFDACPL@c2tnb239v2?$AA@ 0000000180037fb8     libeay32:obj_dat.obj
 0002:00002fc8       ??_C@_0L@PBHOFBDI@c2tnb239v1?$AA@ 0000000180037fc8     libeay32:obj_dat.obj
 0002:00002fd8       ??_C@_0L@FCEMHHLG@c2pnb208w1?$AA@ 0000000180037fd8     libeay32:obj_dat.obj
 0002:00002fe8       ??_C@_0L@LCBHAKHA@c2onb191v5?$AA@ 0000000180037fe8     libeay32:obj_dat.obj
 0002:00002ff8       ??_C@_0L@KLAMDLDB@c2onb191v4?$AA@ 0000000180037ff8     libeay32:obj_dat.obj
 0002:00003008       ??_C@_0L@MKNIHBFK@c2tnb191v3?$AA@ 0000000180038008     libeay32:obj_dat.obj
 0002:00003018       ??_C@_0L@NDMDEABL@c2tnb191v2?$AA@ 0000000180038018     libeay32:obj_dat.obj
 0002:00003028       ??_C@_0L@PIOOBDNI@c2tnb191v1?$AA@ 0000000180038028     libeay32:obj_dat.obj
 0002:00003038       ??_C@_0L@IHOFMEAM@c2pnb176v1?$AA@ 0000000180038038     libeay32:obj_dat.obj
 0002:00003048       ??_C@_0L@LPGNHPAM@c2pnb163v3?$AA@ 0000000180038048     libeay32:obj_dat.obj
 0002:00003058       ??_C@_0L@KGHGEOEN@c2pnb163v2?$AA@ 0000000180038058     libeay32:obj_dat.obj
 0002:00003068       ??_C@_0L@INFLBNIO@c2pnb163v1?$AA@ 0000000180038068     libeay32:obj_dat.obj
 0002:00003078       ??_C@_07GLJEBFP@ppBasis?$AA@ 0000000180038078     libeay32:obj_dat.obj
 0002:00003080       ??_C@_07ICPDEPKF@tpBasis?$AA@ 0000000180038080     libeay32:obj_dat.obj
 0002:00003088       ??_C@_07JEMDIFEL@onBasis?$AA@ 0000000180038088     libeay32:obj_dat.obj
 0002:00003090       ??_C@_0BM@PPOCDOAJ@id?9characteristic?9two?9basis?$AA@ 0000000180038090     libeay32:obj_dat.obj
 0002:000030b0       ??_C@_07KJBJKKHG@wap?9wsg?$AA@ 00000001800380b0     libeay32:obj_dat.obj
 0002:000030b8       ??_C@_03EOHJGACH@wap?$AA@  00000001800380b8     libeay32:obj_dat.obj
 0002:000030c0       ??_C@_0N@GOPBJFID@certicom?9arc?$AA@ 00000001800380c0     libeay32:obj_dat.obj
 0002:000030d0       ??_C@_0BI@NDBFOMIA@identified?9organization?$AA@ 00000001800380d0     libeay32:obj_dat.obj
 0002:000030e8       ??_C@_06DJABMLNO@sha224?$AA@ 00000001800380e8     libeay32:obj_dat.obj
 0002:000030f0       ??_C@_06DANBNIHA@SHA224?$AA@ 00000001800380f0     libeay32:obj_dat.obj
 0002:000030f8       ??_C@_06PAMKOKLI@sha512?$AA@ 00000001800380f8     libeay32:obj_dat.obj
 0002:00003100       ??_C@_06PJBKPJBG@SHA512?$AA@ 0000000180038100     libeay32:obj_dat.obj
 0002:00003108       ??_C@_06IMCKCJGN@sha384?$AA@ 0000000180038108     libeay32:obj_dat.obj
 0002:00003110       ??_C@_06IFPKDKMD@SHA384?$AA@ 0000000180038110     libeay32:obj_dat.obj
 0002:00003118       ??_C@_06OHILPNJ@sha256?$AA@ 0000000180038118     libeay32:obj_dat.obj
 0002:00003120       ??_C@_06HKIKMHH@SHA256?$AA@ 0000000180038120     libeay32:obj_dat.obj
 0002:00003128       ??_C@_0BI@HODNLFBE@sha224WithRSAEncryption?$AA@ 0000000180038128     libeay32:obj_dat.obj
 0002:00003140       ??_C@_0L@BPFBIPIP@RSA?9SHA224?$AA@ 0000000180038140     libeay32:obj_dat.obj
 0002:00003150       ??_C@_0BI@CFKPHFJF@sha512WithRSAEncryption?$AA@ 0000000180038150     libeay32:obj_dat.obj
 0002:00003168       ??_C@_0L@NGJKKOOJ@RSA?9SHA512?$AA@ 0000000180038168     libeay32:obj_dat.obj
 0002:00003178       ??_C@_0BI@LGPCJGLE@sha384WithRSAEncryption?$AA@ 0000000180038178     libeay32:obj_dat.obj
 0002:00003190       ??_C@_0L@KKHKGNDM@RSA?9SHA384?$AA@ 0000000180038190     libeay32:obj_dat.obj
 0002:000031a0       ??_C@_0BI@OLMNBFHG@sha256WithRSAEncryption?$AA@ 00000001800381a0     libeay32:obj_dat.obj
 0002:000031b8       ??_C@_0L@CICIPLII@RSA?9SHA256?$AA@ 00000001800381b8     libeay32:obj_dat.obj
 0002:000031c8       ??_C@_0M@MLMKHJLC@Independent?$AA@ 00000001800381c8     libeay32:obj_dat.obj
 0002:000031d8       ??_C@_0BD@JMNHHICP@id?9ppl?9independent?$AA@ 00000001800381d8     libeay32:obj_dat.obj
 0002:000031f0       ??_C@_0BI@MLJLAGL@X509v3?5Name?5Constraints?$AA@ 00000001800381f0     libeay32:obj_dat.obj
 0002:00003208       ??_C@_0BA@NDBMPGLN@nameConstraints?$AA@ 0000000180038208     libeay32:obj_dat.obj
 0002:00003218       ??_C@_0M@FFLAPACB@Inherit?5all?$AA@ 0000000180038218     libeay32:obj_dat.obj
 0002:00003228       ??_C@_0BC@PCEJIIF@id?9ppl?9inheritAll?$AA@ 0000000180038228     libeay32:obj_dat.obj
 0002:00003240       ??_C@_0N@BEBFEGLC@Any?5language?$AA@ 0000000180038240     libeay32:obj_dat.obj
 0002:00003250       ??_C@_0BD@HNCKDFAM@id?9ppl?9anyLanguage?$AA@ 0000000180038250     libeay32:obj_dat.obj
 0002:00003268       ??_C@_0BO@CCHFGBDO@Proxy?5Certificate?5Information?$AA@ 0000000180038268     libeay32:obj_dat.obj
 0002:00003288       ??_C@_0O@LOINHHBF@proxyCertInfo?$AA@ 0000000180038288     libeay32:obj_dat.obj
 0002:00003298       ??_C@_06CAAPGDCJ@id?9ppl?$AA@ 0000000180038298     libeay32:obj_dat.obj
 0002:000032a0       ??_C@_0L@NCDHJCMF@postalCode?$AA@ 00000001800382a0     libeay32:obj_dat.obj
 0002:000032b0       ??_C@_0O@GFJANBCD@streetAddress?$AA@ 00000001800382b0     libeay32:obj_dat.obj
 0002:000032c0       ??_C@_0O@KGNFGAAA@des?9ede3?9cfb8?$AA@ 00000001800382c0     libeay32:obj_dat.obj
 0002:000032d0       ??_C@_0O@KNJKKNCK@DES?9EDE3?9CFB8?$AA@ 00000001800382d0     libeay32:obj_dat.obj
 0002:000032e0       ??_C@_0O@HHBHNLEJ@des?9ede3?9cfb1?$AA@ 00000001800382e0     libeay32:obj_dat.obj
 0002:000032f0       ??_C@_0O@HMFIBGGD@DES?9EDE3?9CFB1?$AA@ 00000001800382f0     libeay32:obj_dat.obj
 0002:00003300       ??_C@_08HKNDEPIP@des?9cfb8?$AA@ 0000000180038300     libeay32:obj_dat.obj
 0002:00003310       ??_C@_08JHFHFADM@DES?9CFB8?$AA@ 0000000180038310     libeay32:obj_dat.obj
 0002:00003320       ??_C@_08KLBBPEMG@des?9cfb1?$AA@ 0000000180038320     libeay32:obj_dat.obj
 0002:00003330       ??_C@_08EGJFOLHF@DES?9CFB1?$AA@ 0000000180038330     libeay32:obj_dat.obj
 0002:00003340       ??_C@_0N@GPAECIBG@aes?9256?9cfb8?$AA@ 0000000180038340     libeay32:obj_dat.obj
 0002:00003350       ??_C@_0N@BLGJPBBG@AES?9256?9CFB8?$AA@ 0000000180038350     libeay32:obj_dat.obj
 0002:00003360       ??_C@_0N@PFGJCFIP@aes?9192?9cfb8?$AA@ 0000000180038360     libeay32:obj_dat.obj
 0002:00003370       ??_C@_0N@IBAEPMIP@AES?9192?9CFB8?$AA@ 0000000180038370     libeay32:obj_dat.obj
 0002:00003380       ??_C@_0N@MHDGGJH@aes?9128?9cfb8?$AA@ 0000000180038380     libeay32:obj_dat.obj
 0002:00003390       ??_C@_0N@HIBOLPJH@AES?9128?9CFB8?$AA@ 0000000180038390     libeay32:obj_dat.obj
 0002:000033a0       ??_C@_0N@LOMGJDFP@aes?9256?9cfb1?$AA@ 00000001800383a0     libeay32:obj_dat.obj
 0002:000033b0       ??_C@_0N@MKKLEKFP@AES?9256?9CFB1?$AA@ 00000001800383b0     libeay32:obj_dat.obj
 0002:000033c0       ??_C@_0N@CEKLJOMG@aes?9192?9cfb1?$AA@ 00000001800383c0     libeay32:obj_dat.obj
 0002:000033d0       ??_C@_0N@FAMGEHMG@AES?9192?9CFB1?$AA@ 00000001800383d0     libeay32:obj_dat.obj
 0002:000033e0       ??_C@_0N@NNLBNNNO@aes?9128?9cfb1?$AA@ 00000001800383e0     libeay32:obj_dat.obj
 0002:000033f0       ??_C@_0N@KJNMAENO@AES?9128?9CFB1?$AA@ 00000001800383f0     libeay32:obj_dat.obj
 0002:00003400       ??_C@_0CD@POJHJMFG@Microsoft?5Universal?5Principal?5Na@ 0000000180038400     libeay32:obj_dat.obj
 0002:00003424       ??_C@_05LKLAGLGM@msUPN?$AA@ 0000000180038424     libeay32:obj_dat.obj
 0002:00003430       ??_C@_0BJ@BHLLFCI@Microsoft?5Smartcardlogin?$AA@ 0000000180038430     libeay32:obj_dat.obj
 0002:00003450       ??_C@_0BB@MJPMDGHF@msSmartcardLogin?$AA@ 0000000180038450     libeay32:obj_dat.obj
 0002:00003468       ??_C@_0BM@PGMBEIHL@International?5Organizations?$AA@ 0000000180038468     libeay32:obj_dat.obj
 0002:00003488       ??_C@_0BM@PBBEOBAP@international?9organizations?$AA@ 0000000180038488     libeay32:obj_dat.obj
 0002:000034a8       ??_C@_0BA@DDCJMADA@joint?9iso?9itu?9t?$AA@ 00000001800384a8     libeay32:obj_dat.obj
 0002:000034b8       ??_C@_0BA@NPJCPIN@JOINT?9ISO?9ITU?9T?$AA@ 00000001800384b8     libeay32:obj_dat.obj
 0002:000034c8       ??_C@_05EKLDHPCO@itu?9t?$AA@ 00000001800384c8     libeay32:obj_dat.obj
 0002:000034d0       ??_C@_05LJGINOIA@ITU?9T?$AA@ 00000001800384d0     libeay32:obj_dat.obj
 0002:000034d8       ??_C@_0BF@EIIDBKMM@rsaOAEPEncryptionSET?$AA@ 00000001800384d8     libeay32:obj_dat.obj
 0002:000034f0       ??_C@_08PPLOLAOD@des?9cdmf?$AA@ 00000001800384f0     libeay32:obj_dat.obj
 0002:00003500       ??_C@_08IHLOILPC@DES?9CDMF?$AA@ 0000000180038500     libeay32:obj_dat.obj
 0002:00003510       ??_C@_0BA@JHOGHBHC@set?9brand?9Novus?$AA@ 0000000180038510     libeay32:obj_dat.obj
 0002:00003520       ??_C@_0BF@EKCBHCKG@set?9brand?9MasterCard?$AA@ 0000000180038520     libeay32:obj_dat.obj
 0002:00003538       ??_C@_0P@KADKEMKM@set?9brand?9Visa?$AA@ 0000000180038538     libeay32:obj_dat.obj
 0002:00003548       ??_C@_0O@ODFDKJIN@set?9brand?9JCB?$AA@ 0000000180038548     libeay32:obj_dat.obj
 0002:00003558       ??_C@_0BK@NGHCPIFJ@set?9brand?9AmericanExpress?$AA@ 0000000180038558     libeay32:obj_dat.obj
 0002:00003578       ??_C@_0BB@MJOMIBOM@set?9brand?9Diners?$AA@ 0000000180038578     libeay32:obj_dat.obj
 0002:00003590       ??_C@_0BD@EBDAHFCK@set?9brand?9IATA?9ATA?$AA@ 0000000180038590     libeay32:obj_dat.obj
 0002:000035a8       ??_C@_0BI@BMDLNIII@secure?5device?5signature?$AA@ 00000001800385a8     libeay32:obj_dat.obj
 0002:000035c0       ??_C@_0BC@HILPEDHB@setAttr?9SecDevSig?$AA@ 00000001800385c0     libeay32:obj_dat.obj
 0002:000035d8       ??_C@_0BH@FLMFBHA@ICC?5or?5token?5signature?$AA@ 00000001800385d8     libeay32:obj_dat.obj
 0002:000035f0       ??_C@_0BC@KFHJNGAA@setAttr?9TokICCsig?$AA@ 00000001800385f0     libeay32:obj_dat.obj
 0002:00003608       ??_C@_0BC@EEELFHMJ@cleartext?5track?52?$AA@ 0000000180038608     libeay32:obj_dat.obj
 0002:00003620       ??_C@_0BD@GDDCOMNC@setAttr?9T2cleartxt?$AA@ 0000000180038620     libeay32:obj_dat.obj
 0002:00003638       ??_C@_0BC@MCHFBPJF@encrypted?5track?52?$AA@ 0000000180038638     libeay32:obj_dat.obj
 0002:00003650       ??_C@_0O@GFEDKLID@setAttr?9T2Enc?$AA@ 0000000180038650     libeay32:obj_dat.obj
 0002:00003660       ??_C@_0BE@BANBLNDJ@generate?5cryptogram?$AA@ 0000000180038660     libeay32:obj_dat.obj
 0002:00003678       ??_C@_0BE@FJCINFHM@setAttr?9GenCryptgrm?$AA@ 0000000180038678     libeay32:obj_dat.obj
 0002:00003690       ??_C@_0BD@DMNGIJGO@setAttr?9IssCap?9Sig?$AA@ 0000000180038690     libeay32:obj_dat.obj
 0002:000036a8       ??_C@_0BC@FKLLNJMF@setAttr?9IssCap?9T2?$AA@ 00000001800386a8     libeay32:obj_dat.obj
 0002:000036c0       ??_C@_0BD@CMJDLAHE@setAttr?9IssCap?9CVM?$AA@ 00000001800386c0     libeay32:obj_dat.obj
 0002:000036d8       ??_C@_0BG@ICNBHDJ@setAttr?9Token?9B0Prime?$AA@ 00000001800386d8     libeay32:obj_dat.obj
 0002:000036f0       ??_C@_0BC@BMANBENP@setAttr?9Token?9EMV?$AA@ 00000001800386f0     libeay32:obj_dat.obj
 0002:00003708       ??_C@_0O@NOCONBCM@set?9addPolicy?$AA@ 0000000180038708     libeay32:obj_dat.obj
 0002:00003718       ??_C@_0BB@MADMNAKK@set?9rootKeyThumb?$AA@ 0000000180038718     libeay32:obj_dat.obj
 0002:00003730       ??_C@_0BE@HBDPGKCG@issuer?5capabilities?$AA@ 0000000180038730     libeay32:obj_dat.obj
 0002:00003748       ??_C@_0P@OGFLCCKL@setAttr?9IssCap?$AA@ 0000000180038748     libeay32:obj_dat.obj
 0002:00003758       ??_C@_0BC@IKOKMCIL@setAttr?9TokenType?$AA@ 0000000180038758     libeay32:obj_dat.obj
 0002:00003770       ??_C@_0BN@HEFBDPEB@payment?5gateway?5capabilities?$AA@ 0000000180038770     libeay32:obj_dat.obj
 0002:00003790       ??_C@_0BA@FAIFDKDK@setAttr?9PGWYcap?$AA@ 0000000180038790     libeay32:obj_dat.obj
 0002:000037a0       ??_C@_0N@DCNKAAPN@setAttr?9Cert?$AA@ 00000001800387a0     libeay32:obj_dat.obj
 0002:000037b0       ??_C@_0BL@OLCLGJDA@setCext?9IssuerCapabilities?$AA@ 00000001800387b0     libeay32:obj_dat.obj
 0002:000037d0       ??_C@_0BC@KMFGLCBL@setCext?9TokenType?$AA@ 00000001800387d0     libeay32:obj_dat.obj
 0002:000037e8       ??_C@_0BD@FHFLAKJD@setCext?9Track2Data?$AA@ 00000001800387e8     libeay32:obj_dat.obj
 0002:00003800       ??_C@_0BI@FIIEHNL@setCext?9TokenIdentifier?$AA@ 0000000180038800     libeay32:obj_dat.obj
 0002:00003818       ??_C@_0BJ@CNLNHONG@setCext?9PGWYcapabilities?$AA@ 0000000180038818     libeay32:obj_dat.obj
 0002:00003838       ??_C@_0BB@HIAOOOIO@setCext?9setQualf?$AA@ 0000000180038838     libeay32:obj_dat.obj
 0002:00003850       ??_C@_0P@DFHCPLJG@setCext?9setExt?$AA@ 0000000180038850     libeay32:obj_dat.obj
 0002:00003860       ??_C@_0BC@BPADJLFJ@setCext?9tunneling?$AA@ 0000000180038860     libeay32:obj_dat.obj
 0002:00003878       ??_C@_0BG@CMNKGOHO@setCext?9cCertRequired?$AA@ 0000000180038878     libeay32:obj_dat.obj
 0002:00003890       ??_C@_0BC@ONMLOIHK@setCext?9merchData?$AA@ 0000000180038890     libeay32:obj_dat.obj
 0002:000038a8       ??_C@_0BB@LHGCHNFD@setCext?9certType?$AA@ 00000001800388a8     libeay32:obj_dat.obj
 0002:000038c0       ??_C@_0BD@MELPLACB@setCext?9hashedRoot?$AA@ 00000001800388c0     libeay32:obj_dat.obj
 0002:000038d8       ??_C@_0BA@DLJGCPKK@set?9policy?9root?$AA@ 00000001800388d8     libeay32:obj_dat.obj
 0002:000038e8       ??_C@_0BI@MFPOFNGC@additional?5verification?$AA@ 00000001800388e8     libeay32:obj_dat.obj
 0002:00003900       ??_C@_09GMOEIEJI@setext?9cv?$AA@ 0000000180038900     libeay32:obj_dat.obj
 0002:00003910       ??_C@_0O@PNAFPHHK@setext?9track2?$AA@ 0000000180038910     libeay32:obj_dat.obj
 0002:00003920       ??_C@_0O@PNHGIFHA@setext?9pinAny?$AA@ 0000000180038920     libeay32:obj_dat.obj
 0002:00003930       ??_C@_0BB@IKLFBNP@setext?9pinSecure?$AA@ 0000000180038930     libeay32:obj_dat.obj
 0002:00003948       ??_C@_0BI@IMGNFPLI@merchant?5initiated?5auth?$AA@ 0000000180038948     libeay32:obj_dat.obj
 0002:00003960       ??_C@_0O@IFMPKKOL@setext?9miAuth?$AA@ 0000000180038960     libeay32:obj_dat.obj
 0002:00003970       ??_C@_0BD@IMJHIOH@generic?5cryptogram?$AA@ 0000000180038970     libeay32:obj_dat.obj
 0002:00003988       ??_C@_0BA@NKJJMGPC@setext?9genCrypt?$AA@ 0000000180038988     libeay32:obj_dat.obj
 0002:00003998       ??_C@_0BJ@BPGLEKIJ@setct?9BCIDistributionTBS?$AA@ 0000000180038998     libeay32:obj_dat.obj
 0002:000039b8       ??_C@_0BM@GINBKIMJ@setct?9CRLNotificationResTBS?$AA@ 00000001800389b8     libeay32:obj_dat.obj
 0002:000039d8       ??_C@_0BJ@KMIJGANO@setct?9CRLNotificationTBS?$AA@ 00000001800389d8     libeay32:obj_dat.obj
 0002:000039f8       ??_C@_0BB@KEDMFAIN@setct?9CertResTBE?$AA@ 00000001800389f8     libeay32:obj_dat.obj
 0002:00003a10       ??_C@_0BC@KMAHLFJK@setct?9CertReqTBEX?$AA@ 0000000180038a10     libeay32:obj_dat.obj
 0002:00003a28       ??_C@_0BB@NOPMADON@setct?9CertReqTBE?$AA@ 0000000180038a28     libeay32:obj_dat.obj
 0002:00003a40       ??_C@_0BE@MIADHNEP@setct?9RegFormReqTBE?$AA@ 0000000180038a40     libeay32:obj_dat.obj
 0002:00003a58       ??_C@_0BH@PFFPEIML@setct?9BatchAdminResTBE?$AA@ 0000000180038a58     libeay32:obj_dat.obj
 0002:00003a70       ??_C@_0BH@IPJPBLKL@setct?9BatchAdminReqTBE?$AA@ 0000000180038a70     libeay32:obj_dat.obj
 0002:00003a88       ??_C@_0BE@MGLMPAHD@setct?9CredRevResTBE?$AA@ 0000000180038a88     libeay32:obj_dat.obj
 0002:00003aa0       ??_C@_0BF@PGGAOKCB@setct?9CredRevReqTBEX?$AA@ 0000000180038aa0     libeay32:obj_dat.obj
 0002:00003ab8       ??_C@_0BE@LMHMKDBD@setct?9CredRevReqTBE?$AA@ 0000000180038ab8     libeay32:obj_dat.obj
 0002:00003ad0       ??_C@_0BB@NFFENEIP@setct?9CredResTBE?$AA@ 0000000180038ad0     libeay32:obj_dat.obj
 0002:00003ae8       ??_C@_0BC@ECHILMDC@setct?9CredReqTBEX?$AA@ 0000000180038ae8     libeay32:obj_dat.obj
 0002:00003b00       ??_C@_0BB@KPJEIHOP@setct?9CredReqTBE?$AA@ 0000000180038b00     libeay32:obj_dat.obj
 0002:00003b18       ??_C@_0BD@GIBDNMDG@setct?9CapRevResTBE?$AA@ 0000000180038b18     libeay32:obj_dat.obj
 0002:00003b30       ??_C@_0BE@PAHIPABC@setct?9CapRevReqTBEX?$AA@ 0000000180038b30     libeay32:obj_dat.obj
 0002:00003b48       ??_C@_0BD@BCNDIPFG@setct?9CapRevReqTBE?$AA@ 0000000180038b48     libeay32:obj_dat.obj
 0002:00003b60       ??_C@_0BA@MEFGIEBL@setct?9CapResTBE?$AA@ 0000000180038b60     libeay32:obj_dat.obj
 0002:00003b70       ??_C@_0BB@LFALOJDP@setct?9CapReqTBEX?$AA@ 0000000180038b70     libeay32:obj_dat.obj
 0002:00003b88       ??_C@_0BA@LOJGNHHL@setct?9CapReqTBE?$AA@ 0000000180038b88     libeay32:obj_dat.obj
 0002:00003b98       ??_C@_0BF@KKFFJIHO@setct?9AuthRevResTBEB?$AA@ 0000000180038b98     libeay32:obj_dat.obj
 0002:00003bb0       ??_C@_0BE@MHAGABNC@setct?9AuthRevResTBE?$AA@ 0000000180038bb0     libeay32:obj_dat.obj
 0002:00003bc8       ??_C@_0BE@LNMGFCLC@setct?9AuthRevReqTBE?$AA@ 0000000180038bc8     libeay32:obj_dat.obj
 0002:00003be0       ??_C@_0BI@PALCIALL@setct?9AcqCardCodeMsgTBE?$AA@ 0000000180038be0     libeay32:obj_dat.obj
 0002:00003bf8       ??_C@_0BD@OMCOOIME@setct?9CapTokenTBEX?$AA@ 0000000180038bf8     libeay32:obj_dat.obj
 0002:00003c10       ??_C@_0BC@CIKKDLAH@setct?9CapTokenTBE?$AA@ 0000000180038c10     libeay32:obj_dat.obj
 0002:00003c28       ??_C@_0BD@DHGMJDKO@setct?9AuthTokenTBE?$AA@ 0000000180038c28     libeay32:obj_dat.obj
 0002:00003c40       ??_C@_0BC@OEOIIPOH@setct?9AuthResTBEX?$AA@ 0000000180038c40     libeay32:obj_dat.obj
 0002:00003c58       ??_C@_0BB@IDPADFEK@setct?9AuthResTBE?$AA@ 0000000180038c58     libeay32:obj_dat.obj
 0002:00003c70       ??_C@_0BB@PJDAGGCK@setct?9AuthReqTBE?$AA@ 0000000180038c70     libeay32:obj_dat.obj
 0002:00003c88       ??_C@_0BE@IBOAPLDD@setct?9PIUnsignedTBE?$AA@ 0000000180038c88     libeay32:obj_dat.obj
 0002:00003ca0       ??_C@_0BG@JDDNBPAG@setct?9PIDualSignedTBE?$AA@ 0000000180038ca0     libeay32:obj_dat.obj
 0002:00003cb8       ??_C@_0P@DLHKHMDJ@setct?9ErrorTBS?$AA@ 0000000180038cb8     libeay32:obj_dat.obj
 0002:00003cc8       ??_C@_0BE@OIDIJLCF@setct?9CertInqReqTBS?$AA@ 0000000180038cc8     libeay32:obj_dat.obj
 0002:00003ce0       ??_C@_0BC@BIIFIBNO@setct?9CertResData?$AA@ 0000000180038ce0     libeay32:obj_dat.obj
 0002:00003cf8       ??_C@_0BB@MCGELGDK@setct?9CertReqTBS?$AA@ 0000000180038cf8     libeay32:obj_dat.obj
 0002:00003d10       ??_C@_0BC@FFENCANF@setct?9CertReqData?$AA@ 0000000180038d10     libeay32:obj_dat.obj
 0002:00003d28       ??_C@_0BE@KOFLJLPI@setct?9RegFormResTBS?$AA@ 0000000180038d28     libeay32:obj_dat.obj
 0002:00003d40       ??_C@_0BG@DIBJJIJB@setct?9MeAqCInitResTBS?$AA@ 0000000180038d40     libeay32:obj_dat.obj
 0002:00003d58       ??_C@_0BG@OMHIHPPP@setct?9CardCInitResTBS?$AA@ 0000000180038d58     libeay32:obj_dat.obj
 0002:00003d70       ??_C@_0BI@IHGLAGGD@setct?9BatchAdminResData?$AA@ 0000000180038d70     libeay32:obj_dat.obj
 0002:00003d88       ??_C@_0BI@MKKDKHGI@setct?9BatchAdminReqData?$AA@ 0000000180038d88     libeay32:obj_dat.obj
 0002:00003da0       ??_C@_0BC@CFHCKIIA@setct?9PCertResTBS?$AA@ 0000000180038da0     libeay32:obj_dat.obj
 0002:00003db8       ??_C@_0BD@DDNGMNFC@setct?9PCertReqData?$AA@ 0000000180038db8     libeay32:obj_dat.obj
 0002:00003dd0       ??_C@_0BF@ECOCNOGF@setct?9CredRevResData?$AA@ 0000000180038dd0     libeay32:obj_dat.obj
 0002:00003de8       ??_C@_0BF@OOMLDFOD@setct?9CredRevReqTBSX?$AA@ 0000000180038de8     libeay32:obj_dat.obj
 0002:00003e00       ??_C@_0BE@KAOEBGME@setct?9CredRevReqTBS?$AA@ 0000000180038e00     libeay32:obj_dat.obj
 0002:00003e18       ??_C@_0BC@PGPKIIHG@setct?9CredResData?$AA@ 0000000180038e18     libeay32:obj_dat.obj
 0002:00003e30       ??_C@_0BC@FKNDGDPA@setct?9CredReqTBSX?$AA@ 0000000180038e30     libeay32:obj_dat.obj
 0002:00003e48       ??_C@_0BB@LDAMDCDI@setct?9CredReqTBS?$AA@ 0000000180038e48     libeay32:obj_dat.obj
 0002:00003e60       ??_C@_0BE@EEPKMEFG@setct?9CapRevResData?$AA@ 0000000180038e60     libeay32:obj_dat.obj
 0002:00003e78       ??_C@_0BE@OINDCPNA@setct?9CapRevReqTBSX?$AA@ 0000000180038e78     libeay32:obj_dat.obj
 0002:00003e90       ??_C@_0BD@OELDKIB@setct?9CapRevReqTBS?$AA@ 0000000180038e90     libeay32:obj_dat.obj
 0002:00003ea8       ??_C@_0BB@BIJNNHL@setct?9CapResData?$AA@ 0000000180038ea8     libeay32:obj_dat.obj
 0002:00003ec0       ??_C@_0BB@KNKADGPN@setct?9CapReqTBSX?$AA@ 0000000180038ec0     libeay32:obj_dat.obj
 0002:00003ed8       ??_C@_0BA@KCAOGCKM@setct?9CapReqTBS?$AA@ 0000000180038ed8     libeay32:obj_dat.obj
 0002:00003ee8       ??_C@_0BE@NLJOLEAF@setct?9AuthRevResTBS?$AA@ 0000000180038ee8     libeay32:obj_dat.obj
 0002:00003f00       ??_C@_0BF@ODDCPHOK@setct?9AuthRevResData?$AA@ 0000000180038f00     libeay32:obj_dat.obj
 0002:00003f18       ??_C@_0BE@KBFOOHGF@setct?9AuthRevReqTBS?$AA@ 0000000180038f18     libeay32:obj_dat.obj
 0002:00003f30       ??_C@_0BF@LAOAGKEH@setct?9AcqCardCodeMsg?$AA@ 0000000180038f30     libeay32:obj_dat.obj
 0002:00003f48       ??_C@_0BC@DEDCIONA@setct?9CapTokenTBS?$AA@ 0000000180038f48     libeay32:obj_dat.obj
 0002:00003f60       ??_C@_0BD@BFGEHNIL@setct?9CapTokenData?$AA@ 0000000180038f60     libeay32:obj_dat.obj
 0002:00003f78       ??_C@_0BD@CLPECGHJ@setct?9AuthTokenTBS?$AA@ 0000000180038f78     libeay32:obj_dat.obj
 0002:00003f90       ??_C@_0BC@PMEDFACF@setct?9AuthResTBSX?$AA@ 0000000180038f90     libeay32:obj_dat.obj
 0002:00003fa8       ??_C@_0BB@JPGIIAJN@setct?9AuthResTBS?$AA@ 0000000180038fa8     libeay32:obj_dat.obj
 0002:00003fc0       ??_C@_0BB@OFKINDPN@setct?9AuthReqTBS?$AA@ 0000000180038fc0     libeay32:obj_dat.obj
 0002:00003fd8       ??_C@_0P@NGDEPBBH@setct?9PResData?$AA@ 0000000180038fd8     libeay32:obj_dat.obj
 0002:00003fe8       ??_C@_0N@GIGHFPBJ@setct?9PI?9TBS?$AA@ 0000000180038fe8     libeay32:obj_dat.obj
 0002:00003ff8       ??_C@_0BD@GIEGHJGD@setct?9PInitResData?$AA@ 0000000180038ff8     libeay32:obj_dat.obj
 0002:00004010       ??_C@_0BC@DDFFKACM@setct?9CapTokenSeq?$AA@ 0000000180039010     libeay32:obj_dat.obj
 0002:00004028       ??_C@_0BI@CNLKCNFM@setct?9AuthRevResBaggage?$AA@ 0000000180039028     libeay32:obj_dat.obj
 0002:00004040       ??_C@_0BI@DEMAFNK@setct?9AuthRevReqBaggage?$AA@ 0000000180039040     libeay32:obj_dat.obj
 0002:00004058       ??_C@_0BF@EFHLGKOJ@setct?9AuthResBaggage?$AA@ 0000000180039058     libeay32:obj_dat.obj
 0002:00004070       ??_C@_0P@LPBKKIBL@setct?9HODInput?$AA@ 0000000180039070     libeay32:obj_dat.obj
 0002:00004080       ??_C@_0BF@BDFGFMFJ@setct?9PIDataUnsigned?$AA@ 0000000180039080     libeay32:obj_dat.obj
 0002:00004098       ??_C@_0N@PGCGIPOF@setct?9PIData?$AA@ 0000000180039098     libeay32:obj_dat.obj
 0002:000040a8       ??_C@_08MNJJNIEC@setct?9PI?$AA@ 00000001800390a8     libeay32:obj_dat.obj
 0002:000040b8       ??_C@_0N@GHLAGDMC@setct?9OIData?$AA@ 00000001800390b8     libeay32:obj_dat.obj
 0002:000040c8       ??_C@_0O@PFJCCKAL@setct?9PANOnly?$AA@ 00000001800390c8     libeay32:obj_dat.obj
 0002:000040d8       ??_C@_0P@LAMDLEMO@setct?9PANToken?$AA@ 00000001800390d8     libeay32:obj_dat.obj
 0002:000040e8       ??_C@_0O@EKAPGBNN@setct?9PANData?$AA@ 00000001800390e8     libeay32:obj_dat.obj
 0002:000040f8       ??_C@_09JHODGPNO@set?9brand?$AA@ 00000001800390f8     libeay32:obj_dat.obj
 0002:00004108       ??_C@_0BH@PDPIEGPA@certificate?5extensions?$AA@ 0000000180039108     libeay32:obj_dat.obj
 0002:00004120       ??_C@_0M@KEIBDDC@set?9certExt?$AA@ 0000000180039120     libeay32:obj_dat.obj
 0002:00004130       ??_C@_0L@LAAAKICM@set?9policy?$AA@ 0000000180039130     libeay32:obj_dat.obj
 0002:00004140       ??_C@_08OFDIOKIA@set?9attr?$AA@ 0000000180039140     libeay32:obj_dat.obj
 0002:00004150       ??_C@_0BD@LEIDLLNO@message?5extensions?$AA@ 0000000180039150     libeay32:obj_dat.obj
 0002:00004168       ??_C@_0L@PKPEIEIJ@set?9msgExt?$AA@ 0000000180039168     libeay32:obj_dat.obj
 0002:00004178       ??_C@_0O@HJGLMADJ@content?5types?$AA@ 0000000180039178     libeay32:obj_dat.obj
 0002:00004188       ??_C@_09EJPBIJJA@set?9ctype?$AA@ 0000000180039188     libeay32:obj_dat.obj
 0002:00004198       ??_C@_0BP@KEIHJPNF@Secure?5Electronic?5Transactions?$AA@ 0000000180039198     libeay32:obj_dat.obj
 0002:000041b8       ??_C@_06KKEMDFAF@id?9set?$AA@ 00000001800391b8     libeay32:obj_dat.obj
 0002:000041c0       ??_C@_09NNMENHIH@pseudonym?$AA@ 00000001800391c0     libeay32:obj_dat.obj
 0002:000041d0       ??_C@_0BE@DAEHFOO@generationQualifier?$AA@ 00000001800391d0     libeay32:obj_dat.obj
 0002:000041e8       ??_C@_0BJ@KCNAIDP@id?9hex?9multipart?9message?$AA@ 00000001800391e8     libeay32:obj_dat.obj
 0002:00004208       ??_C@_0BH@ILCJEHBB@id?9hex?9partial?9message?$AA@ 0000000180039208     libeay32:obj_dat.obj
 0002:00004220       ??_C@_0BA@MOFCNIEE@mime?9mhs?9bodies?$AA@ 0000000180039220     libeay32:obj_dat.obj
 0002:00004230       ??_C@_0BC@NIFMCBEJ@mime?9mhs?9headings?$AA@ 0000000180039230     libeay32:obj_dat.obj
 0002:00004248       ??_C@_08DNBACEKK@MIME?5MHS?$AA@ 0000000180039248     libeay32:obj_dat.obj
 0002:00004258       ??_C@_08HLONPBDI@mime?9mhs?$AA@ 0000000180039258     libeay32:obj_dat.obj
 0002:00004268       ??_C@_0BF@EFCCADKK@x500UniqueIdentifier?$AA@ 0000000180039268     libeay32:obj_dat.obj
 0002:00004280       ??_C@_0BC@KCCHJGGO@documentPublisher?$AA@ 0000000180039280     libeay32:obj_dat.obj
 0002:00004294       ??_C@_05KNIAAKIP@audio?$AA@ 0000000180039294     libeay32:obj_dat.obj
 0002:000042a0       ??_C@_0M@KIABODOB@dITRedirect?$AA@ 00000001800392a0     libeay32:obj_dat.obj
 0002:000042b0       ??_C@_0BC@CBOFINFC@personalSignature?$AA@ 00000001800392b0     libeay32:obj_dat.obj
 0002:000042c8       ??_C@_0BG@FLFPEGPE@subtreeMaximumQuality?$AA@ 00000001800392c8     libeay32:obj_dat.obj
 0002:000042e0       ??_C@_0BG@HMOECBMF@subtreeMinimumQuality?$AA@ 00000001800392e0     libeay32:obj_dat.obj
 0002:000042f8       ??_C@_0BD@EHDOPADK@singleLevelQuality?$AA@ 00000001800392f8     libeay32:obj_dat.obj
 0002:00004310       ??_C@_0L@LMCCHBHL@dSAQuality?$AA@ 0000000180039310     libeay32:obj_dat.obj
 0002:00004320       ??_C@_0N@POAALOHC@buildingName?$AA@ 0000000180039320     libeay32:obj_dat.obj
 0002:00004330       ??_C@_0BF@OFOHKDCI@mailPreferenceOption?$AA@ 0000000180039330     libeay32:obj_dat.obj
 0002:00004348       ??_C@_0N@DGNBNBGJ@janetMailbox?$AA@ 0000000180039348     libeay32:obj_dat.obj
 0002:00004358       ??_C@_0BF@IANLBJMF@organizationalStatus?$AA@ 0000000180039358     libeay32:obj_dat.obj
 0002:00004370       ??_C@_0BE@MGDAFGCM@friendlyCountryName?$AA@ 0000000180039370     libeay32:obj_dat.obj
 0002:00004388       ??_C@_0BF@JICDDEFM@pagerTelephoneNumber?$AA@ 0000000180039388     libeay32:obj_dat.obj
 0002:000043a0       ??_C@_0BG@DCPABLLG@mobileTelephoneNumber?$AA@ 00000001800393a0     libeay32:obj_dat.obj
 0002:000043b8       ??_C@_0O@CCHLDBGG@personalTitle?$AA@ 00000001800393b8     libeay32:obj_dat.obj
 0002:000043c8       ??_C@_0BC@NPJKACJF@homePostalAddress?$AA@ 00000001800393c8     libeay32:obj_dat.obj
 0002:000043e0       ??_C@_0P@OJOOFNGB@associatedName?$AA@ 00000001800393e0     libeay32:obj_dat.obj
 0002:000043f0       ??_C@_0BB@MEFMIBKO@associatedDomain?$AA@ 00000001800393f0     libeay32:obj_dat.obj
 0002:00004408       ??_C@_0M@GHEAGPOE@cNAMERecord?$AA@ 0000000180039408     libeay32:obj_dat.obj
 0002:00004418       ??_C@_09OCFHDJJF@sOARecord?$AA@ 0000000180039418     libeay32:obj_dat.obj
 0002:00004428       ??_C@_08FBLONLGA@nSRecord?$AA@ 0000000180039428     libeay32:obj_dat.obj
 0002:00004438       ??_C@_08DFFJPLPD@mXRecord?$AA@ 0000000180039438     libeay32:obj_dat.obj
 0002:00004448       ??_C@_0BF@MIIMJDJB@pilotAttributeType27?$AA@ 0000000180039448     libeay32:obj_dat.obj
 0002:00004460       ??_C@_07IBNMBOJB@aRecord?$AA@ 0000000180039460     libeay32:obj_dat.obj
 0002:00004468       ??_C@_0P@ECLEJAJJ@lastModifiedBy?$AA@ 0000000180039468     libeay32:obj_dat.obj
 0002:00004478       ??_C@_0BB@LHLABCIP@lastModifiedTime?$AA@ 0000000180039478     libeay32:obj_dat.obj
 0002:00004490       ??_C@_0N@CEOKELFP@otherMailbox?$AA@ 0000000180039490     libeay32:obj_dat.obj
 0002:000044a0       ??_C@_09EMBFDNKC@secretary?$AA@ 00000001800394a0     libeay32:obj_dat.obj
 0002:000044b0       ??_C@_0BE@CPLAKLNE@homeTelephoneNumber?$AA@ 00000001800394b0     libeay32:obj_dat.obj
 0002:000044c8       ??_C@_0BB@COFKDFJ@documentLocation?$AA@ 00000001800394c8     libeay32:obj_dat.obj
 0002:000044e0       ??_C@_0P@DABDJKFB@documentAuthor?$AA@ 00000001800394e0     libeay32:obj_dat.obj
 0002:000044f0       ??_C@_0BA@GHOLKFM@documentVersion?$AA@ 00000001800394f0     libeay32:obj_dat.obj
 0002:00004500       ??_C@_0O@BDIDABAC@documentTitle?$AA@ 0000000180039500     libeay32:obj_dat.obj
 0002:00004510       ??_C@_0BD@MEPJGCEO@documentIdentifier?$AA@ 0000000180039510     libeay32:obj_dat.obj
 0002:00004528       ??_C@_07JPLKDPHP@manager?$AA@ 0000000180039528     libeay32:obj_dat.obj
 0002:00004530       ??_C@_04OODOLJMA@host?$AA@ 0000000180039530     libeay32:obj_dat.obj
 0002:00004538       ??_C@_09CCPGMHEM@userClass?$AA@ 0000000180039538     libeay32:obj_dat.obj
 0002:00004544       ??_C@_05DOIFDPKA@photo?$AA@ 0000000180039544     libeay32:obj_dat.obj
 0002:00004550       ??_C@_0L@DGKNANFO@roomNumber?$AA@ 0000000180039550     libeay32:obj_dat.obj
 0002:00004560       ??_C@_0P@PAMFCEKP@favouriteDrink?$AA@ 0000000180039560     libeay32:obj_dat.obj
 0002:00004570       ??_C@_04NIDJFNBE@info?$AA@ 0000000180039570     libeay32:obj_dat.obj
 0002:00004578       ??_C@_0O@PDNFEOHL@rfc822Mailbox?$AA@ 0000000180039578     libeay32:obj_dat.obj
 0002:00004588       ??_C@_04FFKLPPHM@mail?$AA@ 0000000180039588     libeay32:obj_dat.obj
 0002:00004590       ??_C@_0BF@HDIIKJDI@textEncodedORAddress?$AA@ 0000000180039590     libeay32:obj_dat.obj
 0002:000045a8       ??_C@_06LPELCIKE@userId?$AA@ 00000001800395a8     libeay32:obj_dat.obj
 0002:000045b0       ??_C@_03MJDGODDN@UID?$AA@  00000001800395b0     libeay32:obj_dat.obj
 0002:000045b8       ??_C@_0BE@DDFOMMI@qualityLabelledData?$AA@ 00000001800395b8     libeay32:obj_dat.obj
 0002:000045d0       ??_C@_08MPJGPMC@pilotDSA?$AA@ 00000001800395d0     libeay32:obj_dat.obj
 0002:000045e0       ??_C@_0BC@PLDKCMI@pilotOrganization?$AA@ 00000001800395e0     libeay32:obj_dat.obj
 0002:000045f8       ??_C@_0BF@CONLNHDI@simpleSecurityObject?$AA@ 00000001800395f8     libeay32:obj_dat.obj
 0002:00004610       ??_C@_0BA@LKHIAMBK@friendlyCountry?$AA@ 0000000180039610     libeay32:obj_dat.obj
 0002:00004620       ??_C@_0BE@OPAPHNCO@domainRelatedObject?$AA@ 0000000180039620     libeay32:obj_dat.obj
 0002:00004638       ??_C@_09BOCGGGMK@dNSDomain?$AA@ 0000000180039638     libeay32:obj_dat.obj
 0002:00004648       ??_C@_0BA@KIAIOBLD@rFC822localPart?$AA@ 0000000180039648     libeay32:obj_dat.obj
 0002:00004658       ??_C@_0P@OAPEDDHP@documentSeries?$AA@ 0000000180039658     libeay32:obj_dat.obj
 0002:00004668       ??_C@_04EKFCMFOP@room?$AA@ 0000000180039668     libeay32:obj_dat.obj
 0002:00004670       ??_C@_08JEEDKNPB@document?$AA@ 0000000180039670     libeay32:obj_dat.obj
 0002:00004680       ??_C@_07PMDLEBNF@account?$AA@ 0000000180039680     libeay32:obj_dat.obj
 0002:00004688       ??_C@_0M@NCGDCEIP@pilotPerson?$AA@ 0000000180039688     libeay32:obj_dat.obj
 0002:00004698       ??_C@_0M@MCCFCPKP@pilotObject?$AA@ 0000000180039698     libeay32:obj_dat.obj
 0002:000046a8       ??_C@_0BK@LELMGJGD@caseIgnoreIA5StringSyntax?$AA@ 00000001800396a8     libeay32:obj_dat.obj
 0002:000046c8       ??_C@_0BA@KPIIGILK@iA5StringSyntax?$AA@ 00000001800396c8     libeay32:obj_dat.obj
 0002:000046d8       ??_C@_0M@DLMEDAFC@pilotGroups?$AA@ 00000001800396d8     libeay32:obj_dat.obj
 0002:000046e8       ??_C@_0BB@MJFNAIDM@pilotObjectClass?$AA@ 00000001800396e8     libeay32:obj_dat.obj
 0002:00004700       ??_C@_0BF@CDEFHHCF@pilotAttributeSyntax?$AA@ 0000000180039700     libeay32:obj_dat.obj
 0002:00004718       ??_C@_0BD@NEGIHOAI@pilotAttributeType?$AA@ 0000000180039718     libeay32:obj_dat.obj
 0002:0000472c       ??_C@_05KIBFDOPF@pilot?$AA@ 000000018003972c     libeay32:obj_dat.obj
 0002:00004734       ??_C@_03BIDCBJP@ucl?$AA@   0000000180039734     libeay32:obj_dat.obj
 0002:00004738       ??_C@_03OHCBHMED@pss?$AA@  0000000180039738     libeay32:obj_dat.obj
 0002:0000473c       ??_C@_04PJOLNDGD@data?$AA@ 000000018003973c     libeay32:obj_dat.obj
 0002:00004748       ??_C@_0BI@EEABHGCD@Hold?5Instruction?5Reject?$AA@ 0000000180039748     libeay32:obj_dat.obj
 0002:00004760       ??_C@_0BG@BDAACIJE@holdInstructionReject?$AA@ 0000000180039760     libeay32:obj_dat.obj
 0002:00004778       ??_C@_0BN@IJKNPIFC@Hold?5Instruction?5Call?5Issuer?$AA@ 0000000180039778     libeay32:obj_dat.obj
 0002:00004798       ??_C@_0BK@ENEKHHMB@holdInstructionCallIssuer?$AA@ 0000000180039798     libeay32:obj_dat.obj
 0002:000047b8       ??_C@_0BG@ECBIHNGK@Hold?5Instruction?5None?$AA@ 00000001800397b8     libeay32:obj_dat.obj
 0002:000047d0       ??_C@_0BE@KPEIPHPJ@holdInstructionNone?$AA@ 00000001800397d0     libeay32:obj_dat.obj
 0002:000047e8       ??_C@_0BG@LHBPDMAN@Hold?5Instruction?5Code?$AA@ 00000001800397e8     libeay32:obj_dat.obj
 0002:00004800       ??_C@_0BE@FKEPLGJO@holdInstructionCode?$AA@ 0000000180039800     libeay32:obj_dat.obj
 0002:00004818       ??_C@_0M@JMFNEPEI@aes?9256?9cfb?$AA@ 0000000180039818     libeay32:obj_dat.obj
 0002:00004828       ??_C@_0M@EAFGNFML@AES?9256?9CFB?$AA@ 0000000180039828     libeay32:obj_dat.obj
 0002:00004838       ??_C@_0M@NGILPAPA@aes?9256?9ofb?$AA@ 0000000180039838     libeay32:obj_dat.obj
 0002:00004848       ??_C@_0M@KIAGKHD@AES?9256?9OFB?$AA@ 0000000180039848     libeay32:obj_dat.obj
 0002:00004858       ??_C@_0M@ICEPNGNF@aes?9256?9cbc?$AA@ 0000000180039858     libeay32:obj_dat.obj
 0002:00004868       ??_C@_0M@FOEEEMFG@AES?9256?9CBC?$AA@ 0000000180039868     libeay32:obj_dat.obj
 0002:00004878       ??_C@_0M@LPPNNCHP@aes?9256?9ecb?$AA@ 0000000180039878     libeay32:obj_dat.obj
 0002:00004888       ??_C@_0M@GDPGEIPM@AES?9256?9ECB?$AA@ 0000000180039888     libeay32:obj_dat.obj
 0002:00004898       ??_C@_0M@EOODGAMJ@aes?9192?9cfb?$AA@ 0000000180039898     libeay32:obj_dat.obj
 0002:000048a8       ??_C@_0M@JCOIPKEK@AES?9192?9CFB?$AA@ 00000001800398a8     libeay32:obj_dat.obj
 0002:000048b8       ??_C@_0M@EDFNPHB@aes?9192?9ofb?$AA@ 00000001800398b8     libeay32:obj_dat.obj
 0002:000048c8       ??_C@_0M@NIDOEFPC@AES?9192?9OFB?$AA@ 00000001800398c8     libeay32:obj_dat.obj
 0002:000048d8       ??_C@_0M@FAPBPJFE@aes?9192?9cbc?$AA@ 00000001800398d8     libeay32:obj_dat.obj
 0002:000048e8       ??_C@_0M@IMPKGDNH@AES?9192?9CBC?$AA@ 00000001800398e8     libeay32:obj_dat.obj
 0002:000048f8       ??_C@_0M@GNEDPNPO@aes?9192?9ecb?$AA@ 00000001800398f8     libeay32:obj_dat.obj
 0002:00004908       ??_C@_0M@LBEIGHHN@AES?9192?9ECB?$AA@ 0000000180039908     libeay32:obj_dat.obj
 0002:00004918       ??_C@_0M@ONHPBHFF@aes?9128?9cfb?$AA@ 0000000180039918     libeay32:obj_dat.obj
 0002:00004928       ??_C@_0M@DBHEINNG@AES?9128?9CFB?$AA@ 0000000180039928     libeay32:obj_dat.obj
 0002:00004938       ??_C@_0M@KHKJKION@aes?9128?9ofb?$AA@ 0000000180039938     libeay32:obj_dat.obj
 0002:00004948       ??_C@_0M@HLKCDCGO@AES?9128?9OFB?$AA@ 0000000180039948     libeay32:obj_dat.obj
 0002:00004958       ??_C@_0M@PDGNIOMI@aes?9128?9cbc?$AA@ 0000000180039958     libeay32:obj_dat.obj
 0002:00004968       ??_C@_0M@CPGGBEEL@AES?9128?9CBC?$AA@ 0000000180039968     libeay32:obj_dat.obj
 0002:00004978       ??_C@_0M@MONPIKGC@aes?9128?9ecb?$AA@ 0000000180039978     libeay32:obj_dat.obj
 0002:00004988       ??_C@_0M@BCNEBAOB@AES?9128?9ECB?$AA@ 0000000180039988     libeay32:obj_dat.obj
 0002:00004998       ??_C@_0BD@HDEEGCLB@Microsoft?5CSP?5Name?$AA@ 0000000180039998     libeay32:obj_dat.obj
 0002:000049b0       ??_C@_07BPKAKPJK@CSPName?$AA@ 00000001800399b0     libeay32:obj_dat.obj
 0002:000049b8       ??_C@_0BA@DGJNDOPM@ecdsa?9with?9SHA1?$AA@ 00000001800399b8     libeay32:obj_dat.obj
 0002:000049c8       ??_C@_0L@JJFEINOP@prime256v1?$AA@ 00000001800399c8     libeay32:obj_dat.obj
 0002:000049d8       ??_C@_0L@HMEBAKJL@prime239v3?$AA@ 00000001800399d8     libeay32:obj_dat.obj
 0002:000049e8       ??_C@_0L@GFFKDLNK@prime239v2?$AA@ 00000001800399e8     libeay32:obj_dat.obj
 0002:000049f8       ??_C@_0L@EOHHGIBJ@prime239v1?$AA@ 00000001800399f8     libeay32:obj_dat.obj
 0002:00004a08       ??_C@_0L@GHGEOHJF@prime192v3?$AA@ 0000000180039a08     libeay32:obj_dat.obj
 0002:00004a18       ??_C@_0L@HOHPNGNE@prime192v2?$AA@ 0000000180039a18     libeay32:obj_dat.obj
 0002:00004a28       ??_C@_0L@FFFCIFBH@prime192v1?$AA@ 0000000180039a28     libeay32:obj_dat.obj
 0002:00004a38       ??_C@_0P@NEOBKIMO@id?9ecPublicKey?$AA@ 0000000180039a38     libeay32:obj_dat.obj
 0002:00004a48       ??_C@_0BJ@HECCMKCN@characteristic?9two?9field?$AA@ 0000000180039a48     libeay32:obj_dat.obj
 0002:00004a68       ??_C@_0M@LGLKIODB@prime?9field?$AA@ 0000000180039a68     libeay32:obj_dat.obj
 0002:00004a78       ??_C@_0L@HAOKGHPF@ANSI?5X9?462?$AA@ 0000000180039a78     libeay32:obj_dat.obj
 0002:00004a88       ??_C@_0L@LBMOMFCJ@ansi?9X9?962?$AA@ 0000000180039a88     libeay32:obj_dat.obj
 0002:00004a98       ??_C@_0BP@DEKFNCEH@X509v3?5No?5Revocation?5Available?$AA@ 0000000180039a98     libeay32:obj_dat.obj
 0002:00004ab8       ??_C@_0L@ECGDAGCK@noRevAvail?$AA@ 0000000180039ab8     libeay32:obj_dat.obj
 0002:00004ac8       ??_C@_0BE@IECCFFCH@X509v3?5AC?5Targeting?$AA@ 0000000180039ac8     libeay32:obj_dat.obj
 0002:00004ae0       ??_C@_0BC@JINDJNPM@targetInformation?$AA@ 0000000180039ae0     libeay32:obj_dat.obj
 0002:00004af8       ??_C@_0BK@DNMBLGM@X509v3?5Policy?5Constraints?$AA@ 0000000180039af8     libeay32:obj_dat.obj
 0002:00004b18       ??_C@_0BC@IJLMCBHD@policyConstraints?$AA@ 0000000180039b18     libeay32:obj_dat.obj
 0002:00004b2c       ??_C@_04IAMNPBLO@role?$AA@ 0000000180039b2c     libeay32:obj_dat.obj
 0002:00004b38       ??_C@_0BA@PEFFHNFH@id?9aca?9encAttrs?$AA@ 0000000180039b38     libeay32:obj_dat.obj
 0002:00004b48       ??_C@_0BL@OMFIOBLF@Subject?5Information?5Access?$AA@ 0000000180039b48     libeay32:obj_dat.obj
 0002:00004b68       ??_C@_0BC@IEIBIKBA@subjectInfoAccess?$AA@ 0000000180039b68     libeay32:obj_dat.obj
 0002:00004b80       ??_C@_0M@BKAIKGEL@ac?9proxying?$AA@ 0000000180039b80     libeay32:obj_dat.obj
 0002:00004b90       ??_C@_0BF@JDOFKNPK@md4WithRSAEncryption?$AA@ 0000000180039b90     libeay32:obj_dat.obj
 0002:00004ba8       ??_C@_07MHHBEDHA@RSA?9MD4?$AA@ 0000000180039ba8     libeay32:obj_dat.obj
 0002:00004bb0       ??_C@_09ECGCCLFI@clearance?$AA@ 0000000180039bb0     libeay32:obj_dat.obj
 0002:00004bc0       ??_C@_0BJ@MAOJIBHF@Selected?5Attribute?5Types?$AA@ 0000000180039bc0     libeay32:obj_dat.obj
 0002:00004be0       ??_C@_0BJ@BDDNHDDA@selected?9attribute?9types?$AA@ 0000000180039be0     libeay32:obj_dat.obj
 0002:00004bfc       ??_C@_06HFDFFJHI@Domain?$AA@ 0000000180039bfc     libeay32:obj_dat.obj
 0002:00004c04       ??_C@_06LKIIGAOE@domain?$AA@ 0000000180039c04     libeay32:obj_dat.obj
 0002:00004c10       ??_C@_0BA@DMAKFKAH@domainComponent?$AA@ 0000000180039c10     libeay32:obj_dat.obj
 0002:00004c20       ??_C@_02KMHJBPDH@DC?$AA@   0000000180039c20     libeay32:obj_dat.obj
 0002:00004c28       ??_C@_08GPNKJGDG@dcObject?$AA@ 0000000180039c28     libeay32:obj_dat.obj
 0002:00004c38       ??_C@_08KAGHKPKK@dcobject?$AA@ 0000000180039c38     libeay32:obj_dat.obj
 0002:00004c48       ??_C@_0M@CEEPHGPL@Enterprises?$AA@ 0000000180039c48     libeay32:obj_dat.obj
 0002:00004c58       ??_C@_0M@DMHOKNAD@enterprises?$AA@ 0000000180039c58     libeay32:obj_dat.obj
 0002:00004c64       ??_C@_04JEGKNAHI@Mail?$AA@ 0000000180039c64     libeay32:obj_dat.obj
 0002:00004c6c       ??_C@_06JDJOGLHO@SNMPv2?$AA@ 0000000180039c6c     libeay32:obj_dat.obj
 0002:00004c74       ??_C@_06DKHMNHOO@snmpv2?$AA@ 0000000180039c74     libeay32:obj_dat.obj
 0002:00004c80       ??_C@_08EDKKPLCC@Security?$AA@ 0000000180039c80     libeay32:obj_dat.obj
 0002:00004c90       ??_C@_08MBFLHJIB@security?$AA@ 0000000180039c90     libeay32:obj_dat.obj
 0002:00004ca0       ??_C@_07CFINJGKH@Private?$AA@ 0000000180039ca0     libeay32:obj_dat.obj
 0002:00004ca8       ??_C@_07NMPLPEPB@private?$AA@ 0000000180039ca8     libeay32:obj_dat.obj
 0002:00004cb0       ??_C@_0N@FKCIGJFM@Experimental?$AA@ 0000000180039cb0     libeay32:obj_dat.obj
 0002:00004cc0       ??_C@_0N@OJFGCCKJ@experimental?$AA@ 0000000180039cc0     libeay32:obj_dat.obj
 0002:00004cd0       ??_C@_0L@ENAJINDB@Management?$AA@ 0000000180039cd0     libeay32:obj_dat.obj
 0002:00004cdc       ??_C@_04PFNCJACF@mgmt?$AA@ 0000000180039cdc     libeay32:obj_dat.obj
 0002:00004ce8       ??_C@_09EOAFACM@Directory?$AA@ 0000000180039ce8     libeay32:obj_dat.obj
 0002:00004cf8       ??_C@_09ELLNFDPM@directory?$AA@ 0000000180039cf8     libeay32:obj_dat.obj
 0002:00004d04       ??_C@_04BAMKDBHE@iana?$AA@ 0000000180039d04     libeay32:obj_dat.obj
 0002:00004d0c       ??_C@_04NMPANDAM@IANA?$AA@ 0000000180039d0c     libeay32:obj_dat.obj
 0002:00004d14       ??_C@_03CIOFGCAJ@dod?$AA@  0000000180039d14     libeay32:obj_dat.obj
 0002:00004d18       ??_C@_03CFBOKPHF@DOD?$AA@  0000000180039d18     libeay32:obj_dat.obj
 0002:00004d1c       ??_C@_03MADHIGOI@org?$AA@  0000000180039d1c     libeay32:obj_dat.obj
 0002:00004d20       ??_C@_03MNMMELJE@ORG?$AA@  0000000180039d20     libeay32:obj_dat.obj
 0002:00004d28       ??_C@_0CA@FIOIBJEO@directory?5services?5?9?5algorithms?$AA@ 0000000180039d28     libeay32:obj_dat.obj
 0002:00004d48       ??_C@_0P@NMIAKCBG@X500algorithms?$AA@ 0000000180039d48     libeay32:obj_dat.obj
 0002:00004d58       ??_C@_0N@JHANBHGC@rsaSignature?$AA@ 0000000180039d58     libeay32:obj_dat.obj
 0002:00004d68       ??_C@_09JPNFBOJG@algorithm?$AA@ 0000000180039d68     libeay32:obj_dat.obj
 0002:00004d78       ??_C@_0L@INBPOG@Trust?5Root?$AA@ 0000000180039d78     libeay32:obj_dat.obj
 0002:00004d88       ??_C@_09LNEPAILM@trustRoot?$AA@ 0000000180039d88     libeay32:obj_dat.obj
 0002:00004d94       ??_C@_04LNEJFJGI@path?$AA@ 0000000180039d94     libeay32:obj_dat.obj
 0002:00004d9c       ??_C@_05HDPIMK@valid?$AA@  0000000180039d9c     libeay32:obj_dat.obj
 0002:00004da8       ??_C@_0BF@MPEDLKDP@Extended?5OCSP?5Status?$AA@ 0000000180039da8     libeay32:obj_dat.obj
 0002:00004dc0       ??_C@_0P@EGENIBNC@extendedStatus?$AA@ 0000000180039dc0     libeay32:obj_dat.obj
 0002:00004dd0       ??_C@_0BF@CEIKAD@OCSP?5Service?5Locator?$AA@ 0000000180039dd0     libeay32:obj_dat.obj
 0002:00004de8       ??_C@_0P@LCDAPLHC@serviceLocator?$AA@ 0000000180039de8     libeay32:obj_dat.obj
 0002:00004df8       ??_C@_0BE@JAFPABJB@OCSP?5Archive?5Cutoff?$AA@ 0000000180039df8     libeay32:obj_dat.obj
 0002:00004e10       ??_C@_0O@FIEDPKGI@archiveCutoff?$AA@ 0000000180039e10     libeay32:obj_dat.obj
 0002:00004e20       ??_C@_0O@HFOALJCG@OCSP?5No?5Check?$AA@ 0000000180039e20     libeay32:obj_dat.obj
 0002:00004e30       ??_C@_07MCKMCKHJ@noCheck?$AA@ 0000000180039e30     libeay32:obj_dat.obj
 0002:00004e38       ??_C@_0BK@JKKLNLEI@Acceptable?5OCSP?5Responses?$AA@ 0000000180039e38     libeay32:obj_dat.obj
 0002:00004e58       ??_C@_0BE@FBPDIHIK@acceptableResponses?$AA@ 0000000180039e58     libeay32:obj_dat.obj
 0002:00004e70       ??_C@_0M@LCLKJALE@OCSP?5CRL?5ID?$AA@ 0000000180039e70     libeay32:obj_dat.obj
 0002:00004e7c       ??_C@_05NOENOBME@CrlID?$AA@ 0000000180039e7c     libeay32:obj_dat.obj
 0002:00004e88       ??_C@_0L@NCNDEJFL@OCSP?5Nonce?$AA@ 0000000180039e88     libeay32:obj_dat.obj
 0002:00004e94       ??_C@_05OJOPLPHH@Nonce?$AA@ 0000000180039e94     libeay32:obj_dat.obj
 0002:00004ea0       ??_C@_0BE@ONEEPEOL@Basic?5OCSP?5Response?$AA@ 0000000180039ea0     libeay32:obj_dat.obj
 0002:00004eb8       ??_C@_0BC@KFAFMFFF@basicOCSPResponse?$AA@ 0000000180039eb8     libeay32:obj_dat.obj
 0002:00004ed0       ??_C@_07JCKMJMPC@ad?5dvcs?$AA@ 0000000180039ed0     libeay32:obj_dat.obj
 0002:00004ed8       ??_C@_07JCCJJKFE@AD_DVCS?$AA@ 0000000180039ed8     libeay32:obj_dat.obj
 0002:00004ee0       ??_C@_0BB@NMPPBOGK@AD?5Time?5Stamping?$AA@ 0000000180039ee0     libeay32:obj_dat.obj
 0002:00004ef8       ??_C@_0BA@PBBONLHE@ad_timestamping?$AA@ 0000000180039ef8     libeay32:obj_dat.obj
 0002:00004f08       ??_C@_0BD@DDALHPCH@id?9cct?9PKIResponse?$AA@ 0000000180039f08     libeay32:obj_dat.obj
 0002:00004f20       ??_C@_0P@FNCPPGJO@id?9cct?9PKIData?$AA@ 0000000180039f20     libeay32:obj_dat.obj
 0002:00004f30       ??_C@_0L@CDHPLMPE@id?9cct?9crs?$AA@ 0000000180039f30     libeay32:obj_dat.obj
 0002:00004f40       ??_C@_0BH@DJONLBHI@id?9qcs?9pkixQCSyntax?9v1?$AA@ 0000000180039f40     libeay32:obj_dat.obj
 0002:00004f58       ??_C@_0M@FBOAJIIJ@id?9aca?9role?$AA@ 0000000180039f58     libeay32:obj_dat.obj
 0002:00004f68       ??_C@_0N@HOPCGOGP@id?9aca?9group?$AA@ 0000000180039f68     libeay32:obj_dat.obj
 0002:00004f78       ??_C@_0BI@IDHFJBKH@id?9aca?9chargingIdentity?$AA@ 0000000180039f78     libeay32:obj_dat.obj
 0002:00004f90       ??_C@_0BG@GFJCFEAI@id?9aca?9accessIdentity?$AA@ 0000000180039f90     libeay32:obj_dat.obj
 0002:00004fa8       ??_C@_0BK@OFEDAOCA@id?9aca?9authenticationInfo?$AA@ 0000000180039fa8     libeay32:obj_dat.obj
 0002:00004fc8       ??_C@_0BK@BJMNIGCJ@id?9pda?9countryOfResidence?$AA@ 0000000180039fc8     libeay32:obj_dat.obj
 0002:00004fe8       ??_C@_0BM@KMGEGNAB@id?9pda?9countryOfCitizenship?$AA@ 0000000180039fe8     libeay32:obj_dat.obj
 0002:00005008       ??_C@_0O@JMCFNPFD@id?9pda?9gender?$AA@ 000000018003a008     libeay32:obj_dat.obj
 0002:00005018       ??_C@_0BE@NIFFDBPJ@id?9pda?9placeOfBirth?$AA@ 000000018003a018     libeay32:obj_dat.obj
 0002:00005030       ??_C@_0BD@BADJMIPF@id?9pda?9dateOfBirth?$AA@ 000000018003a030     libeay32:obj_dat.obj
 0002:00005048       ??_C@_0BD@IGLADCFL@id?9on?9personalData?$AA@ 000000018003a048     libeay32:obj_dat.obj
 0002:00005060       ??_C@_0BN@MIGHDJON@id?9cmc?9confirmCertAcceptance?$AA@ 000000018003a060     libeay32:obj_dat.obj
 0002:00005080       ??_C@_0BG@EEIJMDPB@id?9cmc?9popLinkWitness?$AA@ 000000018003a080     libeay32:obj_dat.obj
 0002:00005098       ??_C@_0BF@GGLCNKGO@id?9cmc?9popLinkRandom?$AA@ 000000018003a098     libeay32:obj_dat.obj
 0002:000050b0       ??_C@_0BE@JKLJLIIH@id?9cmc?9queryPending?$AA@ 000000018003a0b0     libeay32:obj_dat.obj
 0002:000050c8       ??_C@_0BE@CKMFMMDP@id?9cmc?9responseInfo?$AA@ 000000018003a0c8     libeay32:obj_dat.obj
 0002:000050e0       ??_C@_0P@PCIOIKNC@id?9cmc?9regInfo?$AA@ 000000018003a0e0     libeay32:obj_dat.obj
 0002:000050f0       ??_C@_0BF@BOEAJJNI@id?9cmc?9revokeRequest?$AA@ 000000018003a0f0     libeay32:obj_dat.obj
 0002:00005108       ??_C@_0O@OIGIOBJ@id?9cmc?9getCRL?$AA@ 000000018003a108     libeay32:obj_dat.obj
 0002:00005118       ??_C@_0P@GMDPJKDO@id?9cmc?9getCert?$AA@ 000000018003a118     libeay32:obj_dat.obj
 0002:00005128       ??_C@_0BF@BMODAINP@id?9cmc?9lraPOPWitness?$AA@ 000000018003a128     libeay32:obj_dat.obj
 0002:00005140       ??_C@_0BE@KBIPLENG@id?9cmc?9decryptedPOP?$AA@ 000000018003a140     libeay32:obj_dat.obj
 0002:00005158       ??_C@_0BE@NILMJFN@id?9cmc?9encryptedPOP?$AA@ 000000018003a158     libeay32:obj_dat.obj
 0002:00005170       ??_C@_0BF@HLOCACJF@id?9cmc?9addExtensions?$AA@ 000000018003a170     libeay32:obj_dat.obj
 0002:00005188       ??_C@_0BG@JLHHNNCH@id?9cmc?9recipientNonce?$AA@ 000000018003a188     libeay32:obj_dat.obj
 0002:000051a0       ??_C@_0BD@BCMJDDMP@id?9cmc?9senderNonce?$AA@ 000000018003a1a0     libeay32:obj_dat.obj
 0002:000051b8       ??_C@_0BF@GEJAHBF@id?9cmc?9transactionId?$AA@ 000000018003a1b8     libeay32:obj_dat.obj
 0002:000051d0       ??_C@_0BC@LLJKCHEN@id?9cmc?9dataReturn?$AA@ 000000018003a1d0     libeay32:obj_dat.obj
 0002:000051e8       ??_C@_0BF@IDAHNDCK@id?9cmc?9identityProof?$AA@ 000000018003a1e8     libeay32:obj_dat.obj
 0002:00005200       ??_C@_0BG@PPIINOMK@id?9cmc?9identification?$AA@ 000000018003a200     libeay32:obj_dat.obj
 0002:00005218       ??_C@_0BC@CMNEPEAI@id?9cmc?9statusInfo?$AA@ 000000018003a218     libeay32:obj_dat.obj
 0002:00005230       ??_C@_0O@OBGPPBGA@id?9alg?9dh?9pop?$AA@ 000000018003a230     libeay32:obj_dat.obj
 0002:00005240       ??_C@_0BI@KIODNBCM@id?9alg?9dh?9sig?9hmac?9sha1?$AA@ 000000018003a240     libeay32:obj_dat.obj
 0002:00005258       ??_C@_0BD@LAAJOBHI@id?9alg?9noSignature?$AA@ 000000018003a258     libeay32:obj_dat.obj
 0002:00005270       ??_C@_0N@KIJONBNA@id?9alg?9des40?$AA@ 000000018003a270     libeay32:obj_dat.obj
 0002:00005280       ??_C@_0BD@EEAPBNJJ@id?9regInfo?9certReq?$AA@ 000000018003a280     libeay32:obj_dat.obj
 0002:00005298       ??_C@_0BF@FHFGHAHE@id?9regInfo?9utf8Pairs?$AA@ 000000018003a298     libeay32:obj_dat.obj
 0002:000052b0       ??_C@_0BL@GHBPLPHM@id?9regCtrl?9protocolEncrKey?$AA@ 000000018003a2b0     libeay32:obj_dat.obj
 0002:000052d0       ??_C@_0BF@GFJPNJIG@id?9regCtrl?9oldCertID?$AA@ 000000018003a2d0     libeay32:obj_dat.obj
 0002:000052e8       ??_C@_0BN@ONKHMAOP@id?9regCtrl?9pkiArchiveOptions?$AA@ 000000018003a2e8     libeay32:obj_dat.obj
 0002:00005308       ??_C@_0BO@GJKPPLPL@id?9regCtrl?9pkiPublicationInfo?$AA@ 000000018003a308     libeay32:obj_dat.obj
 0002:00005328       ??_C@_0BJ@FBKKLLKP@id?9regCtrl?9authenticator?$AA@ 000000018003a328     libeay32:obj_dat.obj
 0002:00005348       ??_C@_0BE@JDMKCIPE@id?9regCtrl?9regToken?$AA@ 000000018003a348     libeay32:obj_dat.obj
 0002:00005360       ??_C@_0L@BGHMJHOP@id?9regInfo?$AA@ 000000018003a360     libeay32:obj_dat.obj
 0002:00005370       ??_C@_0L@FDGKGANK@id?9regCtrl?$AA@ 000000018003a370     libeay32:obj_dat.obj
 0002:00005380       ??_C@_0BF@CLCJJGFI@id?9it?9origPKIMessage?$AA@ 000000018003a380     libeay32:obj_dat.obj
 0002:00005398       ??_C@_0BG@KCBHNMIK@id?9it?9confirmWaitTime?$AA@ 000000018003a398     libeay32:obj_dat.obj
 0002:000053b0       ??_C@_0BG@MKDHCJKF@id?9it?9implicitConfirm?$AA@ 000000018003a3b0     libeay32:obj_dat.obj
 0002:000053c8       ??_C@_0BE@FOOOCPMH@id?9it?9revPassphrase?$AA@ 000000018003a3c8     libeay32:obj_dat.obj
 0002:000053e0       ??_C@_0BG@KPIIFBLH@id?9it?9keyPairParamRep?$AA@ 000000018003a3e0     libeay32:obj_dat.obj
 0002:000053f8       ??_C@_0BG@LGJDGAPG@id?9it?9keyPairParamReq?$AA@ 000000018003a3f8     libeay32:obj_dat.obj
 0002:00005410       ??_C@_0BL@HBPHBFLO@id?9it?9subscriptionResponse?$AA@ 000000018003a410     libeay32:obj_dat.obj
 0002:00005430       ??_C@_0BK@MKGCMKGI@id?9it?9subscriptionRequest?$AA@ 000000018003a430     libeay32:obj_dat.obj
 0002:00005450       ??_C@_0BG@BPLKDJPD@id?9it?9unsupportedOIDs?$AA@ 000000018003a450     libeay32:obj_dat.obj
 0002:00005468       ??_C@_0BB@NHKBGJFG@id?9it?9currentCRL?$AA@ 000000018003a468     libeay32:obj_dat.obj
 0002:00005480       ??_C@_0BG@OAKEHPLC@id?9it?9caKeyUpdateInfo?$AA@ 000000018003a480     libeay32:obj_dat.obj
 0002:00005498       ??_C@_0BH@JFBOPDCH@id?9it?9preferredSymmAlg?$AA@ 000000018003a498     libeay32:obj_dat.obj
 0002:000054b0       ??_C@_0BG@FKIDIODL@id?9it?9encKeyPairTypes?$AA@ 000000018003a4b0     libeay32:obj_dat.obj
 0002:000054c8       ??_C@_0BH@POCENFBA@id?9it?9signKeyPairTypes?$AA@ 000000018003a4c8     libeay32:obj_dat.obj
 0002:000054e0       ??_C@_0BE@GJACIPND@id?9it?9caProtEncCert?$AA@ 000000018003a4e0     libeay32:obj_dat.obj
 0002:000054f4       ??_C@_04FFLIHJGD@dvcs?$AA@ 000000018003a4f4     libeay32:obj_dat.obj
 0002:000054fc       ??_C@_04JJICJLBL@DVCS?$AA@ 000000018003a4fc     libeay32:obj_dat.obj
 0002:00005508       ??_C@_0L@DECDDCGF@IPSec?5User?$AA@ 000000018003a508     libeay32:obj_dat.obj
 0002:00005518       ??_C@_09GOHJKOFF@ipsecUser?$AA@ 000000018003a518     libeay32:obj_dat.obj
 0002:00005528       ??_C@_0N@EKDIOGLO@IPSec?5Tunnel?$AA@ 000000018003a528     libeay32:obj_dat.obj
 0002:00005538       ??_C@_0M@GMMHFFHI@ipsecTunnel?$AA@ 000000018003a538     libeay32:obj_dat.obj
 0002:00005548       ??_C@_0BB@JEJDAICO@IPSec?5End?5System?$AA@ 000000018003a548     libeay32:obj_dat.obj
 0002:00005560       ??_C@_0P@MKBFMAPP@ipsecEndSystem?$AA@ 000000018003a560     libeay32:obj_dat.obj
 0002:00005570       ??_C@_0L@HLNNPJEH@textNotice?$AA@ 000000018003a570     libeay32:obj_dat.obj
 0002:00005580       ??_C@_0BG@JCJJBMAI@sbgp?9routerIdentifier?$AA@ 000000018003a580     libeay32:obj_dat.obj
 0002:00005598       ??_C@_0BG@OJEHJDKA@sbgp?9autonomousSysNum?$AA@ 000000018003a598     libeay32:obj_dat.obj
 0002:000055b0       ??_C@_0BB@NNCKCHBC@sbgp?9ipAddrBlock?$AA@ 000000018003a5b0     libeay32:obj_dat.obj
 0002:000055c8       ??_C@_0L@DLGBNBJE@aaControls?$AA@ 000000018003a5c8     libeay32:obj_dat.obj
 0002:000055d8       ??_C@_0N@FPEEOJCI@ac?9targeting?$AA@ 000000018003a5d8     libeay32:obj_dat.obj
 0002:000055e8       ??_C@_0P@CIOHPJGC@ac?9auditEntity?$AA@ 000000018003a5e8     libeay32:obj_dat.obj
 0002:000055f8       ??_C@_0N@FPMNLLM@qcStatements?$AA@ 000000018003a5f8     libeay32:obj_dat.obj
 0002:00005608       ??_C@_0P@KFKDECPH@Biometric?5Info?$AA@ 000000018003a608     libeay32:obj_dat.obj
 0002:00005618       ??_C@_0O@MPIIPAHM@biometricInfo?$AA@ 000000018003a618     libeay32:obj_dat.obj
 0002:00005628       ??_C@_0P@MMOAAMFD@id?9mod?9cmp2000?$AA@ 000000018003a628     libeay32:obj_dat.obj
 0002:00005638       ??_C@_0M@GHDGNJKI@id?9mod?9dvcs?$AA@ 000000018003a638     libeay32:obj_dat.obj
 0002:00005648       ??_C@_0M@EACKLPKH@id?9mod?9ocsp?$AA@ 000000018003a648     libeay32:obj_dat.obj
 0002:00005658       ??_C@_0BK@GAJOODEK@id?9mod?9timestamp?9protocol?$AA@ 000000018003a658     libeay32:obj_dat.obj
 0002:00005678       ??_C@_0BG@EPPFBJNH@id?9mod?9attribute?9cert?$AA@ 000000018003a678     libeay32:obj_dat.obj
 0002:00005690       ??_C@_0BJ@IGODAJIK@id?9mod?9qualified?9cert?993?$AA@ 000000018003a690     libeay32:obj_dat.obj
 0002:000056b0       ??_C@_0BJ@GENFLKHG@id?9mod?9qualified?9cert?988?$AA@ 000000018003a6b0     libeay32:obj_dat.obj
 0002:000056d0       ??_C@_0L@MONEHBKH@id?9mod?9cmp?$AA@ 000000018003a6d0     libeay32:obj_dat.obj
 0002:000056e0       ??_C@_0BG@NAFGGBFM@id?9mod?9kea?9profile?993?$AA@ 000000018003a6e0     libeay32:obj_dat.obj
 0002:000056f8       ??_C@_0BG@DCGANCKA@id?9mod?9kea?9profile?988?$AA@ 000000018003a6f8     libeay32:obj_dat.obj
 0002:00005710       ??_C@_0L@KPDLDADF@id?9mod?9cmc?$AA@ 000000018003a710     libeay32:obj_dat.obj
 0002:00005720       ??_C@_0M@GHFPFJPB@id?9mod?9crmf?$AA@ 000000018003a720     libeay32:obj_dat.obj
 0002:00005730       ??_C@_0BF@EOKAKKIK@id?9pkix1?9implicit?993?$AA@ 000000018003a730     libeay32:obj_dat.obj
 0002:00005748       ??_C@_0BF@JEALIPIC@id?9pkix1?9explicit?993?$AA@ 000000018003a748     libeay32:obj_dat.obj
 0002:00005760       ??_C@_0BF@KMJGBJHG@id?9pkix1?9implicit?988?$AA@ 000000018003a760     libeay32:obj_dat.obj
 0002:00005778       ??_C@_0BF@HGDNDMHO@id?9pkix1?9explicit?988?$AA@ 000000018003a778     libeay32:obj_dat.obj
 0002:00005790       ??_C@_06PONIBOCI@id?9cct?$AA@ 000000018003a790     libeay32:obj_dat.obj
 0002:00005798       ??_C@_06ELIJBHPL@id?9qcs?$AA@ 000000018003a798     libeay32:obj_dat.obj
 0002:000057a0       ??_C@_06GDGEDALH@id?9aca?$AA@ 000000018003a7a0     libeay32:obj_dat.obj
 0002:000057a8       ??_C@_06IOIOBGMI@id?9pda?$AA@ 000000018003a7a8     libeay32:obj_dat.obj
 0002:000057b0       ??_C@_05OHNJGMJE@id?9on?$AA@ 000000018003a7b0     libeay32:obj_dat.obj
 0002:000057b8       ??_C@_06PBMFLHLE@id?9cmc?$AA@ 000000018003a7b8     libeay32:obj_dat.obj
 0002:000057c0       ??_C@_06DOGCNAAM@id?9alg?$AA@ 000000018003a7c0     libeay32:obj_dat.obj
 0002:000057c8       ??_C@_07OMHOPMIM@id?9pkip?$AA@ 000000018003a7c8     libeay32:obj_dat.obj
 0002:000057d0       ??_C@_05FDHJOKPN@id?9it?$AA@ 000000018003a7d0     libeay32:obj_dat.obj
 0002:000057d8       ??_C@_05EBEMBIDF@id?9qt?$AA@ 000000018003a7d8     libeay32:obj_dat.obj
 0002:000057e0       ??_C@_0M@FNAFBNKE@id?9pkix?9mod?$AA@ 000000018003a7e0     libeay32:obj_dat.obj
 0002:000057ec       ??_C@_03ODADJPDG@md4?$AA@  000000018003a7ec     libeay32:obj_dat.obj
 0002:000057f0       ??_C@_03HLHMHGOI@MD4?$AA@  000000018003a7f0     libeay32:obj_dat.obj
 0002:000057f8       ??_C@_0CB@MICJDGGH@id?9smime?9cti?9ets?9proofOfCreation@ 000000018003a7f8     libeay32:obj_dat.obj
 0002:00005820       ??_C@_0CB@DDLMHEBC@id?9smime?9cti?9ets?9proofOfApproval@ 000000018003a820     libeay32:obj_dat.obj
 0002:00005848       ??_C@_0BP@ODCAFFCM@id?9smime?9cti?9ets?9proofOfSender?$AA@ 000000018003a848     libeay32:obj_dat.obj
 0002:00005868       ??_C@_0CB@ICJGPMEP@id?9smime?9cti?9ets?9proofOfDelivery@ 000000018003a868     libeay32:obj_dat.obj
 0002:00005890       ??_C@_0CA@HNGOKBGC@id?9smime?9cti?9ets?9proofOfReceipt?$AA@ 000000018003a890     libeay32:obj_dat.obj
 0002:000058b0       ??_C@_0BP@BCHFEGHC@id?9smime?9cti?9ets?9proofOfOrigin?$AA@ 000000018003a8b0     libeay32:obj_dat.obj
 0002:000058d0       ??_C@_0BN@GPAAHNOH@id?9smime?9spq?9ets?9sqt?9unotice?$AA@ 000000018003a8d0     libeay32:obj_dat.obj
 0002:000058f0       ??_C@_0BJ@IMNKDGEG@id?9smime?9spq?9ets?9sqt?9uri?$AA@ 000000018003a8f0     libeay32:obj_dat.obj
 0002:00005910       ??_C@_0BB@BMOBKAGE@id?9smime?9cd?9ldap?$AA@ 000000018003a910     libeay32:obj_dat.obj
 0002:00005928       ??_C@_0BI@FIFDKKFJ@id?9smime?9alg?9CMSRC2wrap?$AA@ 000000018003a928     libeay32:obj_dat.obj
 0002:00005940       ??_C@_0BJ@FOFHEIDB@id?9smime?9alg?9CMS3DESwrap?$AA@ 000000018003a940     libeay32:obj_dat.obj
 0002:00005960       ??_C@_0BC@COOODKPD@id?9smime?9alg?9ESDH?$AA@ 000000018003a960     libeay32:obj_dat.obj
 0002:00005978       ??_C@_0BF@JNCPAJCA@id?9smime?9alg?9RC2wrap?$AA@ 000000018003a978     libeay32:obj_dat.obj
 0002:00005990       ??_C@_0BG@HHELPNAK@id?9smime?9alg?93DESwrap?$AA@ 000000018003a990     libeay32:obj_dat.obj
 0002:000059a8       ??_C@_0BJ@FIJMOHBJ@id?9smime?9alg?9ESDHwithRC2?$AA@ 000000018003a9a8     libeay32:obj_dat.obj
 0002:000059c8       ??_C@_0BK@JNJOCCCB@id?9smime?9alg?9ESDHwith3DES?$AA@ 000000018003a9c8     libeay32:obj_dat.obj
 0002:000059e8       ??_C@_0BF@KEMAMBKF@id?9smime?9aa?9dvcs?9dvc?$AA@ 000000018003a9e8     libeay32:obj_dat.obj
 0002:00005a00       ??_C@_0BK@HDBIPLFI@id?9smime?9aa?9signatureType?$AA@ 000000018003aa00     libeay32:obj_dat.obj
 0002:00005a20       ??_C@_0CB@BEMKNJGO@id?9smime?9aa?9ets?9archiveTimeStamp@ 000000018003aa20     libeay32:obj_dat.obj
 0002:00005a48       ??_C@_0CB@CJNBPJE@id?9smime?9aa?9ets?9certCRLTimestamp@ 000000018003aa48     libeay32:obj_dat.obj
 0002:00005a70       ??_C@_0BN@HGLOGOFI@id?9smime?9aa?9ets?9escTimeStamp?$AA@ 000000018003aa70     libeay32:obj_dat.obj
 0002:00005a90       ??_C@_0CB@GOCEFPFO@id?9smime?9aa?9ets?9revocationValues@ 000000018003aa90     libeay32:obj_dat.obj
 0002:00005ab8       ??_C@_0BL@IFKOLDIG@id?9smime?9aa?9ets?9certValues?$AA@ 000000018003aab8     libeay32:obj_dat.obj
 0002:00005ad8       ??_C@_0BP@BCHJHNFO@id?9smime?9aa?9ets?9RevocationRefs?$AA@ 000000018003aad8     libeay32:obj_dat.obj
 0002:00005af8       ??_C@_0CA@NKIOCHLG@id?9smime?9aa?9ets?9CertificateRefs?$AA@ 000000018003aaf8     libeay32:obj_dat.obj
 0002:00005b18       ??_C@_0CB@GHKINGOH@id?9smime?9aa?9ets?9contentTimestamp@ 000000018003ab18     libeay32:obj_dat.obj
 0002:00005b40       ??_C@_0BN@JFIFOPBH@id?9smime?9aa?9ets?9otherSigCert?$AA@ 000000018003ab40     libeay32:obj_dat.obj
 0002:00005b60       ??_C@_0BL@KDJDAGDC@id?9smime?9aa?9ets?9signerAttr?$AA@ 000000018003ab60     libeay32:obj_dat.obj
 0002:00005b80       ??_C@_0BP@EODAELPO@id?9smime?9aa?9ets?9signerLocation?$AA@ 000000018003ab80     libeay32:obj_dat.obj
 0002:00005ba0       ??_C@_0BP@OLIFPEIM@id?9smime?9aa?9ets?9commitmentType?$AA@ 000000018003aba0     libeay32:obj_dat.obj
 0002:00005bc0       ??_C@_0BM@GKFMJCFL@id?9smime?9aa?9ets?9sigPolicyId?$AA@ 000000018003abc0     libeay32:obj_dat.obj
 0002:00005be0       ??_C@_0BL@DHJOIJNE@id?9smime?9aa?9timeStampToken?$AA@ 000000018003abe0     libeay32:obj_dat.obj
 0002:00005c00       ??_C@_0BO@CEEOANBD@id?9smime?9aa?9smimeEncryptCerts?$AA@ 000000018003ac00     libeay32:obj_dat.obj
 0002:00005c20       ??_C@_0BP@LHGJLGIB@id?9smime?9aa?9signingCertificate?$AA@ 000000018003ac20     libeay32:obj_dat.obj
 0002:00005c40       ??_C@_0BK@LAPEFMP@id?9smime?9aa?9encrypKeyPref?$AA@ 000000018003ac40     libeay32:obj_dat.obj
 0002:00005c60       ??_C@_0BN@LEFAEFL@id?9smime?9aa?9contentReference?$AA@ 000000018003ac60     libeay32:obj_dat.obj
 0002:00005c80       ??_C@_0BN@NFAAOKEA@id?9smime?9aa?9equivalentLabels?$AA@ 000000018003ac80     libeay32:obj_dat.obj
 0002:00005ca0       ??_C@_0BF@CFNHFPDB@id?9smime?9aa?9macValue?$AA@ 000000018003aca0     libeay32:obj_dat.obj
 0002:00005cb8       ??_C@_0BO@KMJGIAMK@id?9smime?9aa?9contentIdentifier?$AA@ 000000018003acb8     libeay32:obj_dat.obj
 0002:00005cd8       ??_C@_0BN@GCCNOJCG@id?9smime?9aa?9encapContentType?$AA@ 000000018003acd8     libeay32:obj_dat.obj
 0002:00005cf8       ??_C@_0BJ@LJLDKMDH@id?9smime?9aa?9msgSigDigest?$AA@ 000000018003acf8     libeay32:obj_dat.obj
 0002:00005d18       ??_C@_0BI@EMGPJFHB@id?9smime?9aa?9contentHint?$AA@ 000000018003ad18     libeay32:obj_dat.obj
 0002:00005d30       ??_C@_0BM@OEKGBMLE@id?9smime?9aa?9mlExpandHistory?$AA@ 000000018003ad30     libeay32:obj_dat.obj
 0002:00005d50       ??_C@_0BK@DNJNJILO@id?9smime?9aa?9securityLabel?$AA@ 000000018003ad50     libeay32:obj_dat.obj
 0002:00005d70       ??_C@_0BL@LMGNMPFD@id?9smime?9aa?9receiptRequest?$AA@ 000000018003ad70     libeay32:obj_dat.obj
 0002:00005d90       ??_C@_0BN@POKJLKJJ@id?9smime?9ct?9DVCSResponseData?$AA@ 000000018003ad90     libeay32:obj_dat.obj
 0002:00005db0       ??_C@_0BM@MFKPCEGN@id?9smime?9ct?9DVCSRequestData?$AA@ 000000018003adb0     libeay32:obj_dat.obj
 0002:00005dd0       ??_C@_0BI@BGKPNMK@id?9smime?9ct?9contentInfo?$AA@ 000000018003add0     libeay32:obj_dat.obj
 0002:00005de8       ??_C@_0BE@FKPPBHI@id?9smime?9ct?9TDTInfo?$AA@ 000000018003ade8     libeay32:obj_dat.obj
 0002:00005e00       ??_C@_0BE@KHNGFDDI@id?9smime?9ct?9TSTInfo?$AA@ 000000018003ae00     libeay32:obj_dat.obj
 0002:00005e18       ??_C@_0BI@DBILCLFJ@id?9smime?9ct?9publishCert?$AA@ 000000018003ae18     libeay32:obj_dat.obj
 0002:00005e30       ??_C@_0BF@KGEHGOF@id?9smime?9ct?9authData?$AA@ 000000018003ae30     libeay32:obj_dat.obj
 0002:00005e48       ??_C@_0BE@GCHIHBHA@id?9smime?9ct?9receipt?$AA@ 000000018003ae48     libeay32:obj_dat.obj
 0002:00005e60       ??_C@_0BP@CCCOHHAI@id?9smime?9mod?9ets?9eSigPolicy?997?$AA@ 000000018003ae60     libeay32:obj_dat.obj
 0002:00005e80       ??_C@_0BP@KEHEABPA@id?9smime?9mod?9ets?9eSigPolicy?988?$AA@ 000000018003ae80     libeay32:obj_dat.obj
 0002:00005ea0       ??_C@_0BP@POGMGJII@id?9smime?9mod?9ets?9eSignature?997?$AA@ 000000018003aea0     libeay32:obj_dat.obj
 0002:00005ec0       ??_C@_0BP@HIDGBPHA@id?9smime?9mod?9ets?9eSignature?988?$AA@ 000000018003aec0     libeay32:obj_dat.obj
 0002:00005ee0       ??_C@_0BE@PEENABNJ@id?9smime?9mod?9msg?9v3?$AA@ 000000018003aee0     libeay32:obj_dat.obj
 0002:00005ef8       ??_C@_0BB@LBBEMNBN@id?9smime?9mod?9oid?$AA@ 000000018003aef8     libeay32:obj_dat.obj
 0002:00005f10       ??_C@_0BB@MKJLIPEJ@id?9smime?9mod?9ess?$AA@ 000000018003af10     libeay32:obj_dat.obj
 0002:00005f28       ??_C@_0BB@PJEIFOOP@id?9smime?9mod?9cms?$AA@ 000000018003af28     libeay32:obj_dat.obj
 0002:00005f40       ??_C@_0N@CFBKAPGC@id?9smime?9cti?$AA@ 000000018003af40     libeay32:obj_dat.obj
 0002:00005f50       ??_C@_0N@PABBGIHI@id?9smime?9spq?$AA@ 000000018003af50     libeay32:obj_dat.obj
 0002:00005f60       ??_C@_0M@LHBAJBP@id?9smime?9cd?$AA@ 000000018003af60     libeay32:obj_dat.obj
 0002:00005f70       ??_C@_0N@DKFBIKP@id?9smime?9alg?$AA@ 000000018003af70     libeay32:obj_dat.obj
 0002:00005f80       ??_C@_0M@HFICCJDE@id?9smime?9aa?$AA@ 000000018003af80     libeay32:obj_dat.obj
 0002:00005f90       ??_C@_0M@EBLDBLEO@id?9smime?9ct?$AA@ 000000018003af90     libeay32:obj_dat.obj
 0002:00005fa0       ??_C@_0N@GABIEKIN@id?9smime?9mod?$AA@ 000000018003afa0     libeay32:obj_dat.obj
 0002:00005fb0       ??_C@_06DFGHEKNE@S?1MIME?$AA@ 000000018003afb0     libeay32:obj_dat.obj
 0002:00005fb8       ??_C@_05HHBEAKJJ@SMIME?$AA@ 000000018003afb8     libeay32:obj_dat.obj
 0002:00005fc0       ??_C@_05HGOIFJJD@pkcs5?$AA@ 000000018003afc0     libeay32:obj_dat.obj
 0002:00005fc8       ??_C@_05BCIEJMJH@pkcs1?$AA@ 000000018003afc8     libeay32:obj_dat.obj
 0002:00005fd0       ??_C@_0L@DJCLIPOH@X9?457?5CM?5?$DP?$AA@ 000000018003afd0     libeay32:obj_dat.obj
 0002:00005fdc       ??_C@_04CGFPFLFA@X9cm?$AA@ 000000018003afdc     libeay32:obj_dat.obj
 0002:00005fe4       ??_C@_05PAJLFBHD@X9?457?$AA@ 000000018003afe4     libeay32:obj_dat.obj
 0002:00005fec       ??_C@_05OCCOPOJN@X9?957?$AA@ 000000018003afec     libeay32:obj_dat.obj
 0002:00005ff8       ??_C@_0BD@NMCDOJHL@ISO?5US?5Member?5Body?$AA@ 000000018003aff8     libeay32:obj_dat.obj
 0002:0000600c       ??_C@_06EKAADAMF@ISO?9US?$AA@ 000000018003b00c     libeay32:obj_dat.obj
 0002:00006018       ??_C@_0BA@BGDAEHGF@ISO?5Member?5Body?$AA@ 000000018003b018     libeay32:obj_dat.obj
 0002:00006028       ??_C@_0M@CMICFDOA@member?9body?$AA@ 000000018003b028     libeay32:obj_dat.obj
 0002:00006034       ??_C@_03CMEHDJAL@iso?$AA@  000000018003b034     libeay32:obj_dat.obj
 0002:00006038       ??_C@_03CBLMPEHH@ISO?$AA@  000000018003b038     libeay32:obj_dat.obj
 0002:00006040       ??_C@_0N@CPJNIPDD@OCSP?5Signing?$AA@ 000000018003b040     libeay32:obj_dat.obj
 0002:00006050       ??_C@_0M@HBKJLKNM@OCSPSigning?$AA@ 000000018003b050     libeay32:obj_dat.obj
 0002:00006060       ??_C@_0L@CABCENFK@CA?5Issuers?$AA@ 000000018003b060     libeay32:obj_dat.obj
 0002:00006070       ??_C@_09GFPECPIH@caIssuers?$AA@ 000000018003b070     libeay32:obj_dat.obj
 0002:0000607c       ??_C@_04LOJOPNBE@OCSP?$AA@ 000000018003b07c     libeay32:obj_dat.obj
 0002:00006088       ??_C@_0BN@EILCOJAN@Authority?5Information?5Access?$AA@ 000000018003b088     libeay32:obj_dat.obj
 0002:000060a8       ??_C@_0BE@PLCGCINM@authorityInfoAccess?$AA@ 000000018003b0a8     libeay32:obj_dat.obj
 0002:000060bc       ??_C@_05BHKIKJBE@id?9ad?$AA@ 000000018003b0bc     libeay32:obj_dat.obj
 0002:000060c4       ??_C@_05BDFHFBBC@id?9pe?$AA@ 000000018003b0c4     libeay32:obj_dat.obj
 0002:000060d0       ??_C@_0M@DNNLEIMI@dnQualifier?$AA@ 000000018003b0d0     libeay32:obj_dat.obj
 0002:000060dc       ??_C@_04MEMAJGDJ@name?$AA@ 000000018003b0dc     libeay32:obj_dat.obj
 0002:000060e8       ??_C@_0BC@GLHEKHCC@Extension?5Request?$AA@ 000000018003b0e8     libeay32:obj_dat.obj
 0002:000060fc       ??_C@_06EJACAMDF@extReq?$AA@ 000000018003b0fc     libeay32:obj_dat.obj
 0002:00006108       ??_C@_0BM@MEJAMAEO@Microsoft?5Extension?5Request?$AA@ 000000018003b108     libeay32:obj_dat.obj
 0002:00006128       ??_C@_08HCCJAOPJ@msExtReq?$AA@ 000000018003b128     libeay32:obj_dat.obj
 0002:00006138       ??_C@_0BG@JLHBEJLP@pbeWithSHA1AndDES?9CBC?$AA@ 000000018003b138     libeay32:obj_dat.obj
 0002:00006150       ??_C@_0N@GOPIPBOD@PBE?9SHA1?9DES?$AA@ 000000018003b150     libeay32:obj_dat.obj
 0002:00006160       ??_C@_0BF@CKDLCJKD@pbeWithMD5AndRC2?9CBC?$AA@ 000000018003b160     libeay32:obj_dat.obj
 0002:00006178       ??_C@_0P@IDPFKEHM@PBE?9MD5?9RC2?964?$AA@ 000000018003b178     libeay32:obj_dat.obj
 0002:00006188       ??_C@_0BF@FOKDMACM@pbeWithMD2AndRC2?9CBC?$AA@ 000000018003b188     libeay32:obj_dat.obj
 0002:000061a0       ??_C@_0P@OHJEMJLF@PBE?9MD2?9RC2?964?$AA@ 000000018003b1a0     libeay32:obj_dat.obj
 0002:000061b0       ??_C@_0BE@CEEFMCAI@S?1MIME?5Capabilities?$AA@ 000000018003b1b0     libeay32:obj_dat.obj
 0002:000061c8       ??_C@_0L@LCBJGKJG@SMIME?9CAPS?$AA@ 000000018003b1c8     libeay32:obj_dat.obj
 0002:000061d8       ??_C@_0L@CLELMECA@rc2?964?9cbc?$AA@ 000000018003b1d8     libeay32:obj_dat.obj
 0002:000061e8       ??_C@_0L@OPHBIFFL@RC2?964?9CBC?$AA@ 000000018003b1e8     libeay32:obj_dat.obj
 0002:000061f8       ??_C@_0BN@KPMBKEE@Policy?5Qualifier?5User?5Notice?$AA@ 000000018003b1f8     libeay32:obj_dat.obj
 0002:00006218       ??_C@_0O@CJFHFAHE@id?9qt?9unotice?$AA@ 000000018003b218     libeay32:obj_dat.obj
 0002:00006228       ??_C@_0BF@HPKIKKPI@Policy?5Qualifier?5CPS?$AA@ 000000018003b228     libeay32:obj_dat.obj
 0002:00006240       ??_C@_09MIPGHKGJ@id?9qt?9cps?$AA@ 000000018003b240     libeay32:obj_dat.obj
 0002:00006250       ??_C@_0N@KANOAIP@hmacWithSHA1?$AA@ 000000018003b250     libeay32:obj_dat.obj
 0002:00006260       ??_C@_06DEJMPFNK@PBMAC1?$AA@ 000000018003b260     libeay32:obj_dat.obj
 0002:00006268       ??_C@_05EPMADBBF@PBES2?$AA@ 000000018003b268     libeay32:obj_dat.obj
 0002:00006270       ??_C@_07KAOEJCFK@x509Crl?$AA@ 000000018003b270     libeay32:obj_dat.obj
 0002:00006278       ??_C@_0BA@BFAOBDKH@sdsiCertificate?$AA@ 000000018003b278     libeay32:obj_dat.obj
 0002:00006288       ??_C@_0BA@EMOFOCJL@x509Certificate?$AA@ 000000018003b288     libeay32:obj_dat.obj
 0002:00006298       ??_C@_0L@BCMHPPAO@localKeyID?$AA@ 000000018003b298     libeay32:obj_dat.obj
 0002:000062a8       ??_C@_0N@BGFMPLCM@friendlyName?$AA@ 000000018003b2a8     libeay32:obj_dat.obj
 0002:000062b8       ??_C@_0BA@KAKLKBBC@safeContentsBag?$AA@ 000000018003b2b8     libeay32:obj_dat.obj
 0002:000062c8       ??_C@_09DELDBPIE@secretBag?$AA@ 000000018003b2c8     libeay32:obj_dat.obj
 0002:000062d4       ??_C@_06JAFBIMLO@crlBag?$AA@ 000000018003b2d4     libeay32:obj_dat.obj
 0002:000062e0       ??_C@_07FDLMCII@certBag?$AA@ 000000018003b2e0     libeay32:obj_dat.obj
 0002:000062e8       ??_C@_0BE@ELJKIANF@pkcs8ShroudedKeyBag?$AA@ 000000018003b2e8     libeay32:obj_dat.obj
 0002:000062fc       ??_C@_06BFGNOIAI@keyBag?$AA@ 000000018003b2fc     libeay32:obj_dat.obj
 0002:00006308       ??_C@_0BL@CKNKIMON@pbeWithSHA1And40BitRC2?9CBC?$AA@ 000000018003b308     libeay32:obj_dat.obj
 0002:00006328       ??_C@_0BA@MNBMNMAN@PBE?9SHA1?9RC2?940?$AA@ 000000018003b328     libeay32:obj_dat.obj
 0002:00006338       ??_C@_0BM@DOLDINME@pbeWithSHA1And128BitRC2?9CBC?$AA@ 000000018003b338     libeay32:obj_dat.obj
 0002:00006358       ??_C@_0BB@FNLJPIMG@PBE?9SHA1?9RC2?9128?$AA@ 000000018003b358     libeay32:obj_dat.obj
 0002:00006370       ??_C@_0CB@NCMPKEGH@pbeWithSHA1And2?9KeyTripleDES?9CBC@ 000000018003b370     libeay32:obj_dat.obj
 0002:00006398       ??_C@_0O@HOHOOIGM@PBE?9SHA1?92DES?$AA@ 000000018003b398     libeay32:obj_dat.obj
 0002:000063a8       ??_C@_0CB@FCNCEDP@pbeWithSHA1And3?9KeyTripleDES?9CBC@ 000000018003b3a8     libeay32:obj_dat.obj
 0002:000063d0       ??_C@_0O@EDBOMBNM@PBE?9SHA1?93DES?$AA@ 000000018003b3d0     libeay32:obj_dat.obj
 0002:000063e0       ??_C@_0BH@OCAEJMIL@pbeWithSHA1And40BitRC4?$AA@ 000000018003b3e0     libeay32:obj_dat.obj
 0002:000063f8       ??_C@_0BA@ECFMCJKN@PBE?9SHA1?9RC4?940?$AA@ 000000018003b3f8     libeay32:obj_dat.obj
 0002:00006408       ??_C@_0BI@LBIFCLPB@pbeWithSHA1And128BitRC4?$AA@ 000000018003b408     libeay32:obj_dat.obj
 0002:00006420       ??_C@_0BB@ILOABLNL@PBE?9SHA1?9RC4?9128?$AA@ 000000018003b420     libeay32:obj_dat.obj
 0002:00006438       ??_C@_0BD@PNDCMCDK@Strong?5Extranet?5ID?$AA@ 000000018003b438     libeay32:obj_dat.obj
 0002:00006450       ??_C@_07DKMNOLMH@SXNetID?$AA@ 000000018003b450     libeay32:obj_dat.obj
 0002:00006458       ??_C@_0BA@JDBEMONE@Invalidity?5Date?$AA@ 000000018003b458     libeay32:obj_dat.obj
 0002:00006468       ??_C@_0P@BKEGCOMO@invalidityDate?$AA@ 000000018003b468     libeay32:obj_dat.obj
 0002:00006478       ??_C@_0BH@GODIEFKG@X509v3?5CRL?5Reason?5Code?$AA@ 000000018003b478     libeay32:obj_dat.obj
 0002:00006490       ??_C@_09MCDAGILE@CRLReason?$AA@ 000000018003b490     libeay32:obj_dat.obj
 0002:000064a0       ??_C@_0BL@HLNLPBHP@X509v3?5Delta?5CRL?5Indicator?$AA@ 000000018003b4a0     libeay32:obj_dat.obj
 0002:000064c0       ??_C@_08ECNAKPJJ@deltaCRL?$AA@ 000000018003b4c0     libeay32:obj_dat.obj
 0002:000064d0       ??_C@_0BN@MDNLHLBL@Netscape?5Server?5Gated?5Crypto?$AA@ 000000018003b4d0     libeay32:obj_dat.obj
 0002:000064f0       ??_C@_05LFIIINKG@nsSGC?$AA@ 000000018003b4f0     libeay32:obj_dat.obj
 0002:000064f8       ??_C@_0CA@IJODBCMB@Microsoft?5Encrypted?5File?5System?$AA@ 000000018003b4f8     libeay32:obj_dat.obj
 0002:00006518       ??_C@_05NGOIPCN@msEFS?$AA@ 000000018003b518     libeay32:obj_dat.obj
 0002:00006520       ??_C@_0BO@FBDDCLK@Microsoft?5Server?5Gated?5Crypto?$AA@ 000000018003b520     libeay32:obj_dat.obj
 0002:00006540       ??_C@_05DDBMPPAI@msSGC?$AA@ 000000018003b540     libeay32:obj_dat.obj
 0002:00006548       ??_C@_0BN@GNMCHNOI@Microsoft?5Trust?5List?5Signing?$AA@ 000000018003b548     libeay32:obj_dat.obj
 0002:00006568       ??_C@_09HGCLLDPK@msCTLSign?$AA@ 000000018003b568     libeay32:obj_dat.obj
 0002:00006578       ??_C@_0CC@GKFNEBFA@Microsoft?5Commercial?5Code?5Signin@ 000000018003b578     libeay32:obj_dat.obj
 0002:000065a0       ??_C@_09PDGAMFAO@msCodeCom?$AA@ 000000018003b5a0     libeay32:obj_dat.obj
 0002:000065b0       ??_C@_0CC@NDDHKAMP@Microsoft?5Individual?5Code?5Signin@ 000000018003b5b0     libeay32:obj_dat.obj
 0002:000065d8       ??_C@_09EMNNPEBE@msCodeInd?$AA@ 000000018003b5d8     libeay32:obj_dat.obj
 0002:000065e8       ??_C@_0O@GMMBLMEE@Time?5Stamping?$AA@ 000000018003b5e8     libeay32:obj_dat.obj
 0002:000065f8       ??_C@_0N@LONEBHPN@timeStamping?$AA@ 000000018003b5f8     libeay32:obj_dat.obj
 0002:00006608       ??_C@_0BC@BLBGFKKG@E?9mail?5Protection?$AA@ 000000018003b608     libeay32:obj_dat.obj
 0002:00006620       ??_C@_0BA@NPCFDPCO@emailProtection?$AA@ 000000018003b620     libeay32:obj_dat.obj
 0002:00006630       ??_C@_0N@CHJHLHFC@Code?5Signing?$AA@ 000000018003b630     libeay32:obj_dat.obj
 0002:00006640       ??_C@_0M@OJNCNGJ@codeSigning?$AA@ 000000018003b640     libeay32:obj_dat.obj
 0002:00006650       ??_C@_0BO@FEMCBEOF@TLS?5Web?5Client?5Authentication?$AA@ 000000018003b650     libeay32:obj_dat.obj
 0002:00006670       ??_C@_0L@HCMKLLOP@clientAuth?$AA@ 000000018003b670     libeay32:obj_dat.obj
 0002:00006680       ??_C@_0BO@HPFOJNNE@TLS?5Web?5Server?5Authentication?$AA@ 000000018003b680     libeay32:obj_dat.obj
 0002:000066a0       ??_C@_0L@CINGAJGN@serverAuth?$AA@ 000000018003b6a0     libeay32:obj_dat.obj
 0002:000066ac       ??_C@_05DEJBPLJH@id?9kp?$AA@ 000000018003b6ac     libeay32:obj_dat.obj
 0002:000066b4       ??_C@_04EAPCHJAG@PKIX?$AA@ 000000018003b6b4     libeay32:obj_dat.obj
 0002:000066c0       ??_C@_0BK@KFMGFBEG@X509v3?5Extended?5Key?5Usage?$AA@ 000000018003b6c0     libeay32:obj_dat.obj
 0002:000066e0       ??_C@_0BB@DGDLKPHD@extendedKeyUsage?$AA@ 000000018003b6e0     libeay32:obj_dat.obj
 0002:000066f8       ??_C@_0BB@KGNEOBKL@zlib?5compression?$AA@ 000000018003b6f8     libeay32:obj_dat.obj
 0002:0000670c       ??_C@_04CHLIKDMF@ZLIB?$AA@ 000000018003b70c     libeay32:obj_dat.obj
 0002:00006718       ??_C@_0BH@CAEIMNHD@run?5length?5compression?$AA@ 000000018003b718     libeay32:obj_dat.obj
 0002:00006730       ??_C@_03ELDBCICO@RLE?$AA@  000000018003b730     libeay32:obj_dat.obj
 0002:00006738       ??_C@_07NLMEMEEK@rc5?9ofb?$AA@ 000000018003b738     libeay32:obj_dat.obj
 0002:00006740       ??_C@_07OAPEFCPM@RC5?9OFB?$AA@ 000000018003b740     libeay32:obj_dat.obj
 0002:00006748       ??_C@_07JBBCHLPC@rc5?9cfb?$AA@ 000000018003b748     libeay32:obj_dat.obj
 0002:00006750       ??_C@_07KKCCONEE@RC5?9CFB?$AA@ 000000018003b750     libeay32:obj_dat.obj
 0002:00006758       ??_C@_07LCLCOGMF@rc5?9ecb?$AA@ 000000018003b758     libeay32:obj_dat.obj
 0002:00006760       ??_C@_07IJICHAHD@RC5?9ECB?$AA@ 000000018003b760     libeay32:obj_dat.obj
 0002:00006768       ??_C@_07IPAAOCGP@rc5?9cbc?$AA@ 000000018003b768     libeay32:obj_dat.obj
 0002:00006770       ??_C@_07LEDAHENJ@RC5?9CBC?$AA@ 000000018003b770     libeay32:obj_dat.obj
 0002:00006778       ??_C@_0BB@DCJDAKFH@ripemd160WithRSA?$AA@ 000000018003b778     libeay32:obj_dat.obj
 0002:00006790       ??_C@_0O@JPOIHGOH@RSA?9RIPEMD160?$AA@ 000000018003b790     libeay32:obj_dat.obj
 0002:000067a0       ??_C@_09EDIPKBN@ripemd160?$AA@ 000000018003b7a0     libeay32:obj_dat.obj
 0002:000067b0       ??_C@_09DJDCAKJG@RIPEMD160?$AA@ 000000018003b7b0     libeay32:obj_dat.obj
 0002:000067c0       ??_C@_0O@GMANLAEO@dsaEncryption?$AA@ 000000018003b7c0     libeay32:obj_dat.obj
 0002:000067d0       ??_C@_03ENFFABCE@DSA?$AA@  000000018003b7d0     libeay32:obj_dat.obj
 0002:000067d8       ??_C@_0M@KECGAPAA@sha1WithRSA?$AA@ 000000018003b7d8     libeay32:obj_dat.obj
 0002:000067e8       ??_C@_0L@EMMEGDKK@RSA?9SHA1?92?$AA@ 000000018003b7e8     libeay32:obj_dat.obj
 0002:000067f8       ??_C@_08GOLKFMKI@md5?9sha1?$AA@ 000000018003b7f8     libeay32:obj_dat.obj
 0002:00006808       ??_C@_08EMIDHKIH@MD5?9SHA1?$AA@ 000000018003b808     libeay32:obj_dat.obj
 0002:00006818       ??_C@_0M@EFJKPOPH@dsaWithSHA1?$AA@ 000000018003b818     libeay32:obj_dat.obj
 0002:00006828       ??_C@_08IOHJAANG@DSA?9SHA1?$AA@ 000000018003b828     libeay32:obj_dat.obj
 0002:00006838       ??_C@_0BG@JCFINJGL@pbeWithMD5AndCast5CBC?$AA@ 000000018003b838     libeay32:obj_dat.obj
 0002:00006850       ??_C@_09ECHHPLBP@cast5?9ofb?$AA@ 000000018003b850     libeay32:obj_dat.obj
 0002:00006860       ??_C@_09LEOLOMNK@CAST5?9OFB?$AA@ 000000018003b860     libeay32:obj_dat.obj
 0002:00006870       ??_C@_09IKBEEKH@cast5?9cfb?$AA@ 000000018003b870     libeay32:obj_dat.obj
 0002:00006880       ??_C@_09PODNFDGC@CAST5?9CFB?$AA@ 000000018003b880     libeay32:obj_dat.obj
 0002:00006890       ??_C@_09CLABNJJA@cast5?9ecb?$AA@ 000000018003b890     libeay32:obj_dat.obj
 0002:000068a0       ??_C@_09NNJNMOFF@CAST5?9ECB?$AA@ 000000018003b8a0     libeay32:obj_dat.obj
 0002:000068b0       ??_C@_09BGLDNNDK@cast5?9cbc?$AA@ 000000018003b8b0     libeay32:obj_dat.obj
 0002:000068c0       ??_C@_09OACPMKPP@CAST5?9CBC?$AA@ 000000018003b8c0     libeay32:obj_dat.obj
 0002:000068d0       ??_C@_0M@PPJNHBMP@description?$AA@ 000000018003b8d0     libeay32:obj_dat.obj
 0002:000068dc       ??_C@_05PHLGJONK@title?$AA@ 000000018003b8dc     libeay32:obj_dat.obj
 0002:000068e8       ??_C@_0N@OMOHFKCJ@serialNumber?$AA@ 000000018003b8e8     libeay32:obj_dat.obj
 0002:000068f8       ??_C@_0L@CNDCBNIN@md5WithRSA?$AA@ 000000018003b8f8     libeay32:obj_dat.obj
 0002:00006908       ??_C@_0L@NACEPNFC@RSA?9NP?9MD5?$AA@ 000000018003b908     libeay32:obj_dat.obj
 0002:00006918       ??_C@_0BP@EGHJGANM@X509v3?5CRL?5Distribution?5Points?$AA@ 000000018003b918     libeay32:obj_dat.obj
 0002:00006938       ??_C@_0BG@CCHGOEBE@crlDistributionPoints?$AA@ 000000018003b938     libeay32:obj_dat.obj
 0002:00006950       ??_C@_08PAKNLFON@initials?$AA@ 000000018003b950     libeay32:obj_dat.obj
 0002:00006960       ??_C@_07LNKFHLHI@surname?$AA@ 000000018003b960     libeay32:obj_dat.obj
 0002:00006968       ??_C@_02LONEIP@SN?$AA@     000000018003b968     libeay32:obj_dat.obj
 0002:00006970       ??_C@_09GCBNJLNP@givenName?$AA@ 000000018003b970     libeay32:obj_dat.obj
 0002:0000697c       ??_C@_02BLJBNPCD@GN?$AA@   000000018003b97c     libeay32:obj_dat.obj
 0002:00006980       ??_C@_0L@CHEFJHBP@rc2?940?9cbc?$AA@ 000000018003b980     libeay32:obj_dat.obj
 0002:00006990       ??_C@_0L@ODHPNGGE@RC2?940?9CBC?$AA@ 000000018003b990     libeay32:obj_dat.obj
 0002:0000699c       ??_C@_06GNNJIOGN@rc4?940?$AA@ 000000018003b99c     libeay32:obj_dat.obj
 0002:000069a4       ??_C@_06KFMILCMH@RC4?940?$AA@ 000000018003b9a4     libeay32:obj_dat.obj
 0002:000069b0       ??_C@_0M@HGGNEPNN@mdc2WithRSA?$AA@ 000000018003b9b0     libeay32:obj_dat.obj
 0002:000069c0       ??_C@_08OMAMCKNL@RSA?9MDC2?$AA@ 000000018003b9c0     libeay32:obj_dat.obj
 0002:000069cc       ??_C@_04ELNKPKEC@mdc2?$AA@ 000000018003b9cc     libeay32:obj_dat.obj
 0002:000069d4       ??_C@_04BCGEDMJI@MDC2?$AA@ 000000018003b9d4     libeay32:obj_dat.obj
 0002:000069dc       ??_C@_06OBJCCDFN@bf?9ofb?$AA@ 000000018003b9dc     libeay32:obj_dat.obj
 0002:000069e4       ??_C@_06CEHINCIL@BF?9OFB?$AA@ 000000018003b9e4     libeay32:obj_dat.obj
 0002:000069ec       ??_C@_06KLEEJMOF@bf?9cfb?$AA@ 000000018003b9ec     libeay32:obj_dat.obj
 0002:000069f4       ??_C@_06GOKOGNDD@BF?9CFB?$AA@ 000000018003b9f4     libeay32:obj_dat.obj
 0002:000069fc       ??_C@_06IIOEABNC@bf?9ecb?$AA@ 000000018003b9fc     libeay32:obj_dat.obj
 0002:00006a04       ??_C@_06ENAOPAAE@BF?9ECB?$AA@ 000000018003ba04     libeay32:obj_dat.obj
 0002:00006a0c       ??_C@_06LFFGAFHI@bf?9cbc?$AA@ 000000018003ba0c     libeay32:obj_dat.obj
 0002:00006a14       ??_C@_06HALMPEKO@BF?9CBC?$AA@ 000000018003ba14     libeay32:obj_dat.obj
 0002:00006a20       ??_C@_0CA@GODCHEHD@X509v3?5Authority?5Key?5Identifier?$AA@ 000000018003ba20     libeay32:obj_dat.obj
 0002:00006a40       ??_C@_0BH@ICHFALGD@authorityKeyIdentifier?$AA@ 000000018003ba40     libeay32:obj_dat.obj
 0002:00006a58       ??_C@_0BM@OOFGKLPK@X509v3?5Certificate?5Policies?$AA@ 000000018003ba58     libeay32:obj_dat.obj
 0002:00006a78       ??_C@_0BE@OLMJNPEP@certificatePolicies?$AA@ 000000018003ba78     libeay32:obj_dat.obj
 0002:00006a90       ??_C@_0BC@PCPNBDDJ@X509v3?5CRL?5Number?$AA@ 000000018003ba90     libeay32:obj_dat.obj
 0002:00006aa8       ??_C@_09JDPHHKMA@crlNumber?$AA@ 000000018003baa8     libeay32:obj_dat.obj
 0002:00006ab8       ??_C@_0BJ@FBHDAJML@X509v3?5Basic?5Constraints?$AA@ 000000018003bab8     libeay32:obj_dat.obj
 0002:00006ad8       ??_C@_0BB@IKNGJCLO@basicConstraints?$AA@ 000000018003bad8     libeay32:obj_dat.obj
 0002:00006af0       ??_C@_0BP@FMJCGPCG@X509v3?5Issuer?5Alternative?5Name?$AA@ 000000018003baf0     libeay32:obj_dat.obj
 0002:00006b10       ??_C@_0O@DLIFHFCD@issuerAltName?$AA@ 000000018003bb10     libeay32:obj_dat.obj
 0002:00006b20       ??_C@_0CA@OPCJJLNF@X509v3?5Subject?5Alternative?5Name?$AA@ 000000018003bb20     libeay32:obj_dat.obj
 0002:00006b40       ??_C@_0P@EOFJHHKD@subjectAltName?$AA@ 000000018003bb40     libeay32:obj_dat.obj
 0002:00006b50       ??_C@_0CA@CLGHAMIP@X509v3?5Private?5Key?5Usage?5Period?$AA@ 000000018003bb50     libeay32:obj_dat.obj
 0002:00006b70       ??_C@_0BG@JOIAJOMN@privateKeyUsagePeriod?$AA@ 000000018003bb70     libeay32:obj_dat.obj
 0002:00006b88       ??_C@_0BB@BPPOKNBO@X509v3?5Key?5Usage?$AA@ 000000018003bb88     libeay32:obj_dat.obj
 0002:00006ba0       ??_C@_08BCICBOHF@keyUsage?$AA@ 000000018003bba0     libeay32:obj_dat.obj
 0002:00006bb0       ??_C@_0BO@ILPNOINJ@X509v3?5Subject?5Key?5Identifier?$AA@ 000000018003bbb0     libeay32:obj_dat.obj
 0002:00006bd0       ??_C@_0BF@MOEDIMBI@subjectKeyIdentifier?$AA@ 000000018003bbd0     libeay32:obj_dat.obj
 0002:00006be8       ??_C@_05NDHEMDL@id?9ce?$AA@ 000000018003bbe8     libeay32:obj_dat.obj
 0002:00006bf0       ??_C@_08KPMCEEEO@desx?9cbc?$AA@ 000000018003bbf0     libeay32:obj_dat.obj
 0002:00006c00       ??_C@_08BBKPFFGN@DESX?9CBC?$AA@ 000000018003bc00     libeay32:obj_dat.obj
 0002:00006c10       ??_C@_0BO@KKKBMKBD@Netscape?5Certificate?5Sequence?$AA@ 000000018003bc10     libeay32:obj_dat.obj
 0002:00006c30       ??_C@_0P@OCCBBJKK@nsCertSequence?$AA@ 000000018003bc30     libeay32:obj_dat.obj
 0002:00006c40       ??_C@_0BB@DCFBGIOA@Netscape?5Comment?$AA@ 000000018003bc40     libeay32:obj_dat.obj
 0002:00006c58       ??_C@_09BALDFHMJ@nsComment?$AA@ 000000018003bc58     libeay32:obj_dat.obj
 0002:00006c68       ??_C@_0BJ@GMBLEMAL@Netscape?5SSL?5Server?5Name?$AA@ 000000018003bc68     libeay32:obj_dat.obj
 0002:00006c88       ??_C@_0BA@KNOKNJNE@nsSslServerName?$AA@ 000000018003bc88     libeay32:obj_dat.obj
 0002:00006c98       ??_C@_0BH@EMEFHLC@Netscape?5CA?5Policy?5Url?$AA@ 000000018003bc98     libeay32:obj_dat.obj
 0002:00006cb0       ??_C@_0O@DHDIMJD@nsCaPolicyUrl?$AA@ 000000018003bcb0     libeay32:obj_dat.obj
 0002:00006cc0       ??_C@_0BF@FKENIIHB@Netscape?5Renewal?5Url?$AA@ 000000018003bcc0     libeay32:obj_dat.obj
 0002:00006cd8       ??_C@_0N@JILHKMLM@nsRenewalUrl?$AA@ 000000018003bcd8     libeay32:obj_dat.obj
 0002:00006ce8       ??_C@_0BL@EMOMOFDB@Netscape?5CA?5Revocation?5Url?$AA@ 000000018003bce8     libeay32:obj_dat.obj
 0002:00006d08       ??_C@_0BC@IKAPCMGG@nsCaRevocationUrl?$AA@ 000000018003bd08     libeay32:obj_dat.obj
 0002:00006d20       ??_C@_0BI@BCDINENC@Netscape?5Revocation?5Url?$AA@ 000000018003bd20     libeay32:obj_dat.obj
 0002:00006d38       ??_C@_0BA@DKPGPAKK@nsRevocationUrl?$AA@ 000000018003bd38     libeay32:obj_dat.obj
 0002:00006d48       ??_C@_0BC@DIHCABP@Netscape?5Base?5Url?$AA@ 000000018003bd48     libeay32:obj_dat.obj
 0002:00006d60       ??_C@_09OCIGDOMM@nsBaseUrl?$AA@ 000000018003bd60     libeay32:obj_dat.obj
 0002:00006d70       ??_C@_0BD@NFPBEMEE@Netscape?5Cert?5Type?$AA@ 000000018003bd70     libeay32:obj_dat.obj
 0002:00006d88       ??_C@_0L@IICLKDNB@nsCertType?$AA@ 000000018003bd88     libeay32:obj_dat.obj
 0002:00006d98       ??_C@_0BA@DDLLDHEM@dsaWithSHA1?9old?$AA@ 000000018003bd98     libeay32:obj_dat.obj
 0002:00006da8       ??_C@_0N@ONIKBKNK@DSA?9SHA1?9old?$AA@ 000000018003bda8     libeay32:obj_dat.obj
 0002:00006db8       ??_C@_06KBOEGBGA@PBKDF2?$AA@ 000000018003bdb8     libeay32:obj_dat.obj
 0002:00006dc0       ??_C@_0BG@IBNNJING@pbeWithSHA1AndRC2?9CBC?$AA@ 000000018003bdc0     libeay32:obj_dat.obj
 0002:00006dd8       ??_C@_0BA@KKPEMNGH@PBE?9SHA1?9RC2?964?$AA@ 000000018003bdd8     libeay32:obj_dat.obj
 0002:00006de8       ??_C@_0BC@FFHHBCCH@dsaEncryption?9old?$AA@ 000000018003bde8     libeay32:obj_dat.obj
 0002:00006e00       ??_C@_07PLHLFGGF@DSA?9old?$AA@ 000000018003be00     libeay32:obj_dat.obj
 0002:00006e08       ??_C@_0L@BEHMICBH@dsaWithSHA?$AA@ 000000018003be08     libeay32:obj_dat.obj
 0002:00006e18       ??_C@_07JGDBCPKH@DSA?9SHA?$AA@ 000000018003be18     libeay32:obj_dat.obj
 0002:00006e20       ??_C@_0BG@DALFFFBE@sha1WithRSAEncryption?$AA@ 000000018003be20     libeay32:obj_dat.obj
 0002:00006e38       ??_C@_08FBKDDLCN@RSA?9SHA1?$AA@ 000000018003be38     libeay32:obj_dat.obj
 0002:00006e44       ??_C@_04PGHFOLLE@sha1?$AA@ 000000018003be44     libeay32:obj_dat.obj
 0002:00006e4c       ??_C@_04KPMLCNGO@SHA1?$AA@ 000000018003be4c     libeay32:obj_dat.obj
 0002:00006e58       ??_C@_0N@LODGAID@des?9ede3?9ofb?$AA@ 000000018003be58     libeay32:obj_dat.obj
 0002:00006e68       ??_C@_0N@JPPBGLEM@DES?9EDE3?9OFB?$AA@ 000000018003be68     libeay32:obj_dat.obj
 0002:00006e78       ??_C@_0M@BOHDOFGF@des?9ede?9ofb?$AA@ 000000018003be78     libeay32:obj_dat.obj
 0002:00006e88       ??_C@_0M@PDBPCBBK@DES?9EDE?9OFB?$AA@ 000000018003be88     libeay32:obj_dat.obj
 0002:00006e98       ??_C@_0N@EBDFNPDL@des?9ede3?9cfb?$AA@ 000000018003be98     libeay32:obj_dat.obj
 0002:00006ea8       ??_C@_0N@NFCHNEPE@DES?9EDE3?9CFB?$AA@ 000000018003bea8     libeay32:obj_dat.obj
 0002:00006eb8       ??_C@_0M@FEKFFKNN@des?9ede?9cfb?$AA@ 000000018003beb8     libeay32:obj_dat.obj
 0002:00006ec8       ??_C@_0M@LJMJJOKC@DES?9EDE?9CFB?$AA@ 000000018003bec8     libeay32:obj_dat.obj
 0002:00006ed8       ??_C@_0BD@JJEILMNP@Netscape?5Data?5Type?$AA@ 000000018003bed8     libeay32:obj_dat.obj
 0002:00006ef0       ??_C@_0L@FIMLGGPA@nsDataType?$AA@ 000000018003bef0     libeay32:obj_dat.obj
 0002:00006f00       ??_C@_0BP@LHPGKGFM@Netscape?5Certificate?5Extension?$AA@ 000000018003bf00     libeay32:obj_dat.obj
 0002:00006f20       ??_C@_09JDCKDNMG@nsCertExt?$AA@ 000000018003bf20     libeay32:obj_dat.obj
 0002:00006f30       ??_C@_0BO@IAIBEBGO@Netscape?5Communications?5Corp?4?$AA@ 000000018003bf30     libeay32:obj_dat.obj
 0002:00006f50       ??_C@_08BDEPHMAF@Netscape?$AA@ 000000018003bf50     libeay32:obj_dat.obj
 0002:00006f60       ??_C@_0BO@LDCCNBPE@extendedCertificateAttributes?$AA@ 000000018003bf60     libeay32:obj_dat.obj
 0002:00006f80       ??_C@_0BE@MACPCAPF@unstructuredAddress?$AA@ 000000018003bf80     libeay32:obj_dat.obj
 0002:00006f98       ??_C@_0BC@OKHONEEM@challengePassword?$AA@ 000000018003bf98     libeay32:obj_dat.obj
 0002:00006fb0       ??_C@_0BB@IPFGMODP@countersignature?$AA@ 000000018003bfb0     libeay32:obj_dat.obj
 0002:00006fc8       ??_C@_0M@IJBJCCMP@signingTime?$AA@ 000000018003bfc8     libeay32:obj_dat.obj
 0002:00006fd8       ??_C@_0O@JDGJDGC@messageDigest?$AA@ 000000018003bfd8     libeay32:obj_dat.obj
 0002:00006fe8       ??_C@_0M@DOEFOEJD@contentType?$AA@ 000000018003bfe8     libeay32:obj_dat.obj
 0002:00006ff8       ??_C@_0BB@CJIILOEM@unstructuredName?$AA@ 000000018003bff8     libeay32:obj_dat.obj
 0002:00007010       ??_C@_0N@IHLBAGEP@emailAddress?$AA@ 000000018003c010     libeay32:obj_dat.obj
 0002:00007020       ??_C@_05NKFNBGJP@pkcs9?$AA@ 000000018003c020     libeay32:obj_dat.obj
 0002:00007028       ??_C@_08OGDEHPAF@idea?9ofb?$AA@ 000000018003c028     libeay32:obj_dat.obj
 0002:00007038       ??_C@_08FIFJGOCG@IDEA?9OFB?$AA@ 000000018003c038     libeay32:obj_dat.obj
 0002:00007048       ??_C@_07NLMBCAKN@des?9ofb?$AA@ 000000018003c048     libeay32:obj_dat.obj
 0002:00007050       ??_C@_07OHFNLDCN@DES?9OFB?$AA@ 000000018003c050     libeay32:obj_dat.obj
 0002:00007058       ??_C@_0N@FPCHEGKG@des?9ede3?9cbc?$AA@ 000000018003c058     libeay32:obj_dat.obj
 0002:00007068       ??_C@_0N@MLDFENGJ@DES?9EDE3?9CBC?$AA@ 000000018003c068     libeay32:obj_dat.obj
 0002:00007078       ??_C@_0M@EKLHMDEA@des?9ede?9cbc?$AA@ 000000018003c078     libeay32:obj_dat.obj
 0002:00007088       ??_C@_0M@KHNLAHDP@DES?9EDE?9CBC?$AA@ 000000018003c088     libeay32:obj_dat.obj
 0002:00007098       ??_C@_0BF@LIDINENF@shaWithRSAEncryption?$AA@ 000000018003c098     libeay32:obj_dat.obj
 0002:000070b0       ??_C@_07CMOFBHAL@RSA?9SHA?$AA@ 000000018003c0b0     libeay32:obj_dat.obj
 0002:000070b8       ??_C@_03JNBDOPOP@sha?$AA@  000000018003c0b8     libeay32:obj_dat.obj
 0002:000070bc       ??_C@_03JAOICCJD@SHA?$AA@  000000018003c0bc     libeay32:obj_dat.obj
 0002:000070c0       ??_C@_07MGMBPEPC@rc2?9ofb?$AA@ 000000018003c0c0     libeay32:obj_dat.obj
 0002:000070c8       ??_C@_07PNPBGCEE@RC2?9OFB?$AA@ 000000018003c0c8     libeay32:obj_dat.obj
 0002:000070d0       ??_C@_07IMBHELEK@rc2?9cfb?$AA@ 000000018003c0d0     libeay32:obj_dat.obj
 0002:000070d8       ??_C@_07LHCHNNPM@RC2?9CFB?$AA@ 000000018003c0d8     libeay32:obj_dat.obj
 0002:000070e0       ??_C@_07KPLHNGHN@rc2?9ecb?$AA@ 000000018003c0e0     libeay32:obj_dat.obj
 0002:000070e8       ??_C@_07JEIHEAML@RC2?9ECB?$AA@ 000000018003c0e8     libeay32:obj_dat.obj
 0002:000070f0       ??_C@_07JCAFNCNH@rc2?9cbc?$AA@ 000000018003c0f0     libeay32:obj_dat.obj
 0002:000070f8       ??_C@_07KJDFEEGB@RC2?9CBC?$AA@ 000000018003c0f8     libeay32:obj_dat.obj
 0002:00007100       ??_C@_08IPECFNIK@idea?9ecb?$AA@ 000000018003c100     libeay32:obj_dat.obj
 0002:00007110       ??_C@_08DBCPEMKJ@IDEA?9ECB?$AA@ 000000018003c110     libeay32:obj_dat.obj
 0002:00007120       ??_C@_08KMOCMALN@idea?9cfb?$AA@ 000000018003c120     libeay32:obj_dat.obj
 0002:00007130       ??_C@_08BCIPNBJO@IDEA?9CFB?$AA@ 000000018003c130     libeay32:obj_dat.obj
 0002:00007140       ??_C@_08LCPAFJCA@idea?9cbc?$AA@ 000000018003c140     libeay32:obj_dat.obj
 0002:00007150       ??_C@_08MJNEIAD@IDEA?9CBC?$AA@ 000000018003c150     libeay32:obj_dat.obj
 0002:00007160       ??_C@_08LJCBLNOK@des?9ede3?$AA@ 000000018003c160     libeay32:obj_dat.obj
 0002:00007170       ??_C@_08FEKFKCFJ@DES?9EDE3?$AA@ 000000018003c170     libeay32:obj_dat.obj
 0002:00007180       ??_C@_07PILJICGA@des?9ede?$AA@ 000000018003c180     libeay32:obj_dat.obj
 0002:00007188       ??_C@_07MECFBBOA@DES?9EDE?$AA@ 000000018003c188     libeay32:obj_dat.obj
 0002:00007190       ??_C@_07IPAFAGII@des?9cbc?$AA@ 000000018003c190     libeay32:obj_dat.obj
 0002:00007198       ??_C@_07LDJJJFAI@DES?9CBC?$AA@ 000000018003c198     libeay32:obj_dat.obj
 0002:000071a0       ??_C@_07JBBHJPBF@des?9cfb?$AA@ 000000018003c1a0     libeay32:obj_dat.obj
 0002:000071a8       ??_C@_07KNILAMJF@DES?9CFB?$AA@ 000000018003c1a8     libeay32:obj_dat.obj
 0002:000071b0       ??_C@_07LCLHACCC@des?9ecb?$AA@ 000000018003c1b0     libeay32:obj_dat.obj
 0002:000071b8       ??_C@_07IOCLJBKC@DES?9ECB?$AA@ 000000018003c1b8     libeay32:obj_dat.obj
 0002:000071c0       ??_C@_0P@HCMIBBEB@dhKeyAgreement?$AA@ 000000018003c1c0     libeay32:obj_dat.obj
 0002:000071d0       ??_C@_05CALCPOBF@pkcs3?$AA@ 000000018003c1d0     libeay32:obj_dat.obj
 0002:000071d8       ??_C@_0BE@CAMKAFJN@pkcs7?9encryptedData?$AA@ 000000018003c1d8     libeay32:obj_dat.obj
 0002:000071f0       ??_C@_0BB@CJNFBHDI@pkcs7?9digestData?$AA@ 000000018003c1f0     libeay32:obj_dat.obj
 0002:00007208       ??_C@_0BN@LMEEMCPG@pkcs7?9signedAndEnvelopedData?$AA@ 000000018003c208     libeay32:obj_dat.obj
 0002:00007228       ??_C@_0BE@FAIIHMP@pkcs7?9envelopedData?$AA@ 000000018003c228     libeay32:obj_dat.obj
 0002:00007240       ??_C@_0BB@PEKKHBEJ@pkcs7?9signedData?$AA@ 000000018003c240     libeay32:obj_dat.obj
 0002:00007258       ??_C@_0L@BCKMJOMA@pkcs7?9data?$AA@ 000000018003c258     libeay32:obj_dat.obj
 0002:00007264       ??_C@_05EENODLBB@pkcs7?$AA@ 000000018003c264     libeay32:obj_dat.obj
 0002:0000726c       ??_C@_03DFNMMEBL@rsa?$AA@  000000018003c26c     libeay32:obj_dat.obj
 0002:00007270       ??_C@_03DICHAJGH@RSA?$AA@  000000018003c270     libeay32:obj_dat.obj
 0002:00007278       ??_C@_0BH@LAMMAAM@organizationalUnitName?$AA@ 000000018003c278     libeay32:obj_dat.obj
 0002:00007290       ??_C@_02LMLEEFAB@OU?$AA@   000000018003c290     libeay32:obj_dat.obj
 0002:00007298       ??_C@_0BB@GBCNPHLL@organizationName?$AA@ 000000018003c298     libeay32:obj_dat.obj
 0002:000072ac       ??_C@_01MJMHLOMK@O?$AA@    000000018003c2ac     libeay32:obj_dat.obj
 0002:000072b0       ??_C@_0BE@NKDCJFMD@stateOrProvinceName?$AA@ 000000018003c2b0     libeay32:obj_dat.obj
 0002:000072c4       ??_C@_02LAJDCOFE@ST?$AA@   000000018003c2c4     libeay32:obj_dat.obj
 0002:000072c8       ??_C@_0N@LEDCGGBI@localityName?$AA@ 000000018003c2c8     libeay32:obj_dat.obj
 0002:000072d8       ??_C@_01OCOKONAJ@L?$AA@    000000018003c2d8     libeay32:obj_dat.obj
 0002:000072e0       ??_C@_0M@NPBHECMC@countryName?$AA@ 000000018003c2e0     libeay32:obj_dat.obj
 0002:000072ec       ??_C@_01GFHCPBMG@C?$AA@    000000018003c2ec     libeay32:obj_dat.obj
 0002:000072f0       ??_C@_0L@OILMNBLH@commonName?$AA@ 000000018003c2f0     libeay32:obj_dat.obj
 0002:000072fc       ??_C@_02BMJIHHPP@CN?$AA@   000000018003c2fc     libeay32:obj_dat.obj
 0002:00007300       ??_C@_04NMKEOMFB@X509?$AA@ 000000018003c300     libeay32:obj_dat.obj
 0002:00007308       ??_C@_0BL@NJHHPHOL@directory?5services?5?$CIX?4500?$CJ?$AA@ 000000018003c308     libeay32:obj_dat.obj
 0002:00007324       ??_C@_04NGGFHBI@X500?$AA@  000000018003c324     libeay32:obj_dat.obj
 0002:00007330       ??_C@_0BF@DAJHPIMK@pbeWithMD5AndDES?9CBC?$AA@ 000000018003c330     libeay32:obj_dat.obj
 0002:00007348       ??_C@_0M@KBNDBPIJ@PBE?9MD5?9DES?$AA@ 000000018003c348     libeay32:obj_dat.obj
 0002:00007358       ??_C@_0BF@EEAPBBEF@pbeWithMD2AndDES?9CBC?$AA@ 000000018003c358     libeay32:obj_dat.obj
 0002:00007370       ??_C@_0M@LMNGCPDB@PBE?9MD2?9DES?$AA@ 000000018003c370     libeay32:obj_dat.obj
 0002:00007380       ??_C@_0BF@EEAHCNKC@md5WithRSAEncryption?$AA@ 000000018003c380     libeay32:obj_dat.obj
 0002:00007398       ??_C@_07NOGKHCDB@RSA?9MD5?$AA@ 000000018003c398     libeay32:obj_dat.obj
 0002:000073a0       ??_C@_0BF@ODJKGOJ@md2WithRSAEncryption?$AA@ 000000018003c3a0     libeay32:obj_dat.obj
 0002:000073b8       ??_C@_07JBCLOEPG@RSA?9MD2?$AA@ 000000018003c3b8     libeay32:obj_dat.obj
 0002:000073c0       ??_C@_0O@PCHNMHJE@rsaEncryption?$AA@ 000000018003c3c0     libeay32:obj_dat.obj
 0002:000073d0       ??_C@_03OODGMOHK@rc4?$AA@  000000018003c3d0     libeay32:obj_dat.obj
 0002:000073d4       ??_C@_03HGEJCHKE@RC4?$AA@  000000018003c3d4     libeay32:obj_dat.obj
 0002:000073d8       ??_C@_03PKBIKOHH@md5?$AA@  000000018003c3d8     libeay32:obj_dat.obj
 0002:000073dc       ??_C@_03GCGHEHKJ@MD5?$AA@  000000018003c3dc     libeay32:obj_dat.obj
 0002:000073e0       ??_C@_03LFFJDILA@md2?$AA@  000000018003c3e0     libeay32:obj_dat.obj
 0002:000073e4       ??_C@_03CNCGNBGO@MD2?$AA@  000000018003c3e4     libeay32:obj_dat.obj
 0002:000073e8       ??_C@_0BN@EBHJCEC@RSA?5Data?5Security?0?5Inc?4?5PKCS?$AA@ 000000018003c3e8     libeay32:obj_dat.obj
 0002:00007408       ??_C@_04GCKLMHGD@pkcs?$AA@ 000000018003c408     libeay32:obj_dat.obj
 0002:00007410       ??_C@_0BI@MPBNCOIB@RSA?5Data?5Security?0?5Inc?4?$AA@ 000000018003c410     libeay32:obj_dat.obj
 0002:00007428       ??_C@_06GGEMKGKC@rsadsi?$AA@ 000000018003c428     libeay32:obj_dat.obj
 0002:00007430       ??_C@_09MLGAJAED@undefined?$AA@ 000000018003c430     libeay32:obj_dat.obj
 0002:0000743c       ??_C@_05DBLJEJPC@UNDEF?$AA@ 000000018003c43c     libeay32:obj_dat.obj
 0002:00007448       ??_C@_0BL@BPKKLIHO@?4?2crypto?2objects?2obj_dat?4c?$AA@ 000000018003c448     libeay32:obj_dat.obj
 0002:00007468       ??_C@_0BM@GAEJEOPM@?4?2crypto?2engine?2eng_table?4c?$AA@ 000000018003c468     libeay32:eng_table.obj
 0002:00007488       ??_C@_0BK@FPJBMICP@?4?2crypto?2engine?2eng_lib?4c?$AA@ 000000018003c488     libeay32:eng_lib.obj
 0002:000074a8       lh_version                 000000018003c4a8     libeay32:lhash.obj
 0002:000074d8       ??_C@_0BH@ENNIJDED@?4?2crypto?2lhash?2lhash?4c?$AA@ 000000018003c4d8     libeay32:lhash.obj
 0002:000074f0       ??_C@_0BG@COGMIJJG@?4?2crypto?2evp?2digest?4c?$AA@ 000000018003c4f0     libeay32:digest.obj
 0002:00007508       ??_C@_0CI@KPJFNDOF@ctx?9?$DOdigest?9?$DOmd_size?5?$DM?$DN?5EVP_MAX_@ 000000018003c508     libeay32:digest.obj
 0002:00007758       __real@4018000000000000    000000018003c758     libeay32:rand_win.obj
 0002:00007760       __real@4022000000000000    000000018003c760     libeay32:rand_win.obj
 0002:00007768       __real@4014000000000000    000000018003c768     libeay32:rand_win.obj
 0002:00007770       __real@4008000000000000    000000018003c770     libeay32:rand_win.obj
 0002:00007778       ??_C@_0N@KIGOLBLC@Module32Next?$AA@ 000000018003c778     libeay32:rand_win.obj
 0002:00007788       ??_C@_0O@CNMFJJGO@Module32First?$AA@ 000000018003c788     libeay32:rand_win.obj
 0002:00007798       ??_C@_0O@LGJLFMBH@Process32Next?$AA@ 000000018003c798     libeay32:rand_win.obj
 0002:000077a8       ??_C@_0P@ILGHDLOE@Process32First?$AA@ 000000018003c7a8     libeay32:rand_win.obj
 0002:000077b8       ??_C@_0P@EPDKPNHA@Heap32ListNext?$AA@ 000000018003c7b8     libeay32:rand_win.obj
 0002:000077c8       ??_C@_0BA@FIEIGOLO@Heap32ListFirst?$AA@ 000000018003c7c8     libeay32:rand_win.obj
 0002:000077d8       ??_C@_0L@CMGAAJA@Heap32Next?$AA@ 000000018003c7d8     libeay32:rand_win.obj
 0002:000077e8       ??_C@_0M@PIAPHADL@Heap32First?$AA@ 000000018003c7e8     libeay32:rand_win.obj
 0002:000077f8       ??_C@_0BI@GJJDGJIM@CloseToolhelp32Snapshot?$AA@ 000000018003c7f8     libeay32:rand_win.obj
 0002:00007810       __real@3ff0000000000000    000000018003c810     libeay32:rand_win.obj
 0002:00007818       __real@4000000000000000    000000018003c818     libeay32:rand_win.obj
 0002:00007820       ??_C@_0P@KCBGCFMP@GetQueueStatus?$AA@ 000000018003c820     libeay32:rand_win.obj
 0002:00007830       ??_C@_0O@IGNBKOOJ@GetCursorInfo?$AA@ 000000018003c830     libeay32:rand_win.obj
 0002:00007840       ??_C@_0BE@IIKKNMMA@GetForegroundWindow?$AA@ 000000018003c840     libeay32:rand_win.obj
 0002:00007858       ??_C@_1BG@GOEBHBDC@?$AAU?$AAS?$AAE?$AAR?$AA3?$AA2?$AA?4?$AAD?$AAL?$AAL?$AA?$AA@ 000000018003c858     libeay32:rand_win.obj
 0002:00007870       __real@43f0000000000000    000000018003c870     libeay32:rand_win.obj
 0002:00007880       ??_C@_1FM@ELACHIDN@?$AAI?$AAn?$AAt?$AAe?$AAl?$AA?5?$AAH?$AAa?$AAr?$AAd?$AAw?$AAa?$AAr?$AAe?$AA?5?$AAC?$AAr?$AAy?$AAp?$AAt?$AAo?$AAg?$AAr?$AAa?$AAp?$AAh?$AAi?$AAc?$AA?5?$AAS?$AAe?$AAr@ 000000018003c880     libeay32:rand_win.obj
 0002:000078e0       ??_C@_0BE@FBIJLPPP@CryptReleaseContext?$AA@ 000000018003c8e0     libeay32:rand_win.obj
 0002:000078f8       ??_C@_0P@HGPEDCEI@CryptGenRandom?$AA@ 000000018003c8f8     libeay32:rand_win.obj
 0002:00007908       ??_C@_0BF@JHHBLAOM@CryptAcquireContextW?$AA@ 000000018003c908     libeay32:rand_win.obj
 0002:00007920       __real@4031000000000000    000000018003c920     libeay32:rand_win.obj
 0002:00007928       ??_C@_1BK@FJCAAMNP@?$AAL?$AAa?$AAn?$AAm?$AAa?$AAn?$AAS?$AAe?$AAr?$AAv?$AAe?$AAr?$AA?$AA@ 000000018003c928     libeay32:rand_win.obj
 0002:00007948       __real@4046800000000000    000000018003c948     libeay32:rand_win.obj
 0002:00007950       ??_C@_1CE@MINGJEKI@?$AAL?$AAa?$AAn?$AAm?$AAa?$AAn?$AAW?$AAo?$AAr?$AAk?$AAs?$AAt?$AAa?$AAt?$AAi?$AAo?$AAn?$AA?$AA@ 000000018003c950     libeay32:rand_win.obj
 0002:00007978       ??_C@_0BB@EODNGDFL@NetApiBufferFree?$AA@ 000000018003c978     libeay32:rand_win.obj
 0002:00007990       ??_C@_0BB@NIBHPBJM@NetStatisticsGet?$AA@ 000000018003c990     libeay32:rand_win.obj
 0002:000079a8       ??_C@_1BK@ECNDHJLG@?$AAN?$AAE?$AAT?$AAA?$AAP?$AAI?$AA3?$AA2?$AA?4?$AAD?$AAL?$AAL?$AA?$AA@ 000000018003c9a8     libeay32:rand_win.obj
 0002:000079c8       ??_C@_1BK@DBDEIDLH@?$AAK?$AAE?$AAR?$AAN?$AAE?$AAL?$AA3?$AA2?$AA?4?$AAD?$AAL?$AAL?$AA?$AA@ 000000018003c9c8     libeay32:rand_win.obj
 0002:000079e8       ??_C@_1BK@GAEMIDIL@?$AAA?$AAD?$AAV?$AAA?$AAP?$AAI?$AA3?$AA2?$AA?4?$AAD?$AAL?$AAL?$AA?$AA@ 000000018003c9e8     libeay32:rand_win.obj
 0002:00007a08       ASN1_version               000000018003ca08     libeay32:asn1_lib.obj
 0002:00007a38       ??_C@_0BJ@BDGDICBL@?4?2crypto?2asn1?2asn1_lib?4c?$AA@ 000000018003ca38     libeay32:asn1_lib.obj
 0002:00007a58       ??_C@_0BH@HEBAELGA@ASN1_OCTET_STRING_NDEF?$AA@ 000000018003ca58     libeay32:tasn_typ.obj
 0002:00007a70       ??_C@_0O@JKANHMPI@ASN1_FBOOLEAN?$AA@ 000000018003ca70     libeay32:tasn_typ.obj
 0002:00007a80       ??_C@_0O@BIDLBGAP@ASN1_TBOOLEAN?$AA@ 000000018003ca80     libeay32:tasn_typ.obj
 0002:00007a90       ??_C@_0N@HMAPMMGF@ASN1_BOOLEAN?$AA@ 000000018003ca90     libeay32:tasn_typ.obj
 0002:00007aa0       ??_C@_0BA@CBHCBCAE@DIRECTORYSTRING?$AA@ 000000018003caa0     libeay32:tasn_typ.obj
 0002:00007ab0       ??_C@_0M@FANFDIEE@DISPLAYTEXT?$AA@ 000000018003cab0     libeay32:tasn_typ.obj
 0002:00007ac0       ??_C@_0P@NDKOCAEJ@ASN1_PRINTABLE?$AA@ 000000018003cac0     libeay32:tasn_typ.obj
 0002:00007ad0       ??_C@_0O@NJFCFMGE@ASN1_SEQUENCE?$AA@ 000000018003cad0     libeay32:tasn_typ.obj
 0002:00007ae0       ??_C@_08FIDCPDIJ@ASN1_ANY?$AA@ 000000018003cae0     libeay32:tasn_typ.obj
 0002:00007af0       ??_C@_0P@CHICPHIN@ASN1_BMPSTRING?$AA@ 000000018003caf0     libeay32:tasn_typ.obj
 0002:00007b00       ??_C@_0BF@DMDDFBNJ@ASN1_UNIVERSALSTRING?$AA@ 000000018003cb00     libeay32:tasn_typ.obj
 0002:00007b18       ??_C@_0BD@HMMCNBGD@ASN1_VISIBLESTRING?$AA@ 000000018003cb18     libeay32:tasn_typ.obj
 0002:00007b30       ??_C@_0BF@MPJFOIHC@ASN1_GENERALIZEDTIME?$AA@ 000000018003cb30     libeay32:tasn_typ.obj
 0002:00007b48       ??_C@_0N@OIMCLPEM@ASN1_UTCTIME?$AA@ 000000018003cb48     libeay32:tasn_typ.obj
 0002:00007b58       ??_C@_0BD@EMMGLGMD@ASN1_GENERALSTRING?$AA@ 000000018003cb58     libeay32:tasn_typ.obj
 0002:00007b70       ??_C@_0P@KBFNFBLB@ASN1_IA5STRING?$AA@ 000000018003cb70     libeay32:tasn_typ.obj
 0002:00007b80       ??_C@_0P@GDIFPLAP@ASN1_T61STRING?$AA@ 000000018003cb80     libeay32:tasn_typ.obj
 0002:00007b90       ??_C@_0BF@CPDMNKCA@ASN1_PRINTABLESTRING?$AA@ 000000018003cb90     libeay32:tasn_typ.obj
 0002:00007ba8       ??_C@_0BA@LEPDCAOC@ASN1_UTF8STRING?$AA@ 000000018003cba8     libeay32:tasn_typ.obj
 0002:00007bb8       ??_C@_0M@BJNOJGBL@ASN1_OBJECT?$AA@ 000000018003cbb8     libeay32:tasn_typ.obj
 0002:00007bc8       ??_C@_09NHFFCPKK@ASN1_NULL?$AA@ 000000018003cbc8     libeay32:tasn_typ.obj
 0002:00007bd8       ??_C@_0BC@PEBEKNCO@ASN1_OCTET_STRING?$AA@ 000000018003cbd8     libeay32:tasn_typ.obj
 0002:00007bf0       ??_C@_0BA@LJHGDIKH@ASN1_BIT_STRING?$AA@ 000000018003cbf0     libeay32:tasn_typ.obj
 0002:00007c00       ??_C@_0BA@CLGIIAJD@ASN1_ENUMERATED?$AA@ 000000018003cc00     libeay32:tasn_typ.obj
 0002:00007c10       ??_C@_0N@KIGEHGKE@ASN1_INTEGER?$AA@ 000000018003cc10     libeay32:tasn_typ.obj
 0002:000080d0       ??_C@_0BG@JMNNPFBP@?4?2crypto?2asn1?2a_int?4c?$AA@ 000000018003d0d0     libeay32:a_int.obj
 0002:000080f0       BN_version                 000000018003d0f0     libeay32:bn_lib.obj
 0002:00008238       STACK_version              000000018003d238     libeay32:stack.obj
 0002:00008268       ??_C@_0BH@GBDCJGGB@?4?2crypto?2stack?2stack?4c?$AA@ 000000018003d268     libeay32:stack.obj
 0002:00008280       ??_C@_0BD@BACHDDOD@?4?2crypto?2ex_data?4c?$AA@ 000000018003d280     libeay32:ex_data.obj
 0002:00008298       ??_C@_0BM@LJNAPALK@?4?2crypto?2engine?2tb_digest?4c?$AA@ 000000018003d298     libeay32:tb_digest.obj
 0002:000082b8       ??_C@_0BI@PEDEDAKL@?4?2crypto?2rsa?2rsa_sign?4c?$AA@ 000000018003d2b8     libeay32:rsa_sign.obj
 0002:000082d0       ??_C@_0DF@DGNAAHIE@signature?5has?5problems?0?5re?9make?5@ 000000018003d2d0     libeay32:rsa_sign.obj
 0002:00008308       SHA1_version               000000018003d308     libeay32:sha1dgst.obj
 0002:00008330       SHA256_version             000000018003d330     libeay32:sha256.obj
 0002:00008460       SHA512_version             000000018003d460     libeay32:sha512.obj
 0002:00008790       ??_C@_0BJ@KPAPPHAC@?4?2crypto?2asn1?2tasn_dec?4c?$AA@ 000000018003d790     libeay32:tasn_dec.obj
 0002:000087ac       ??_C@_05GCCLHHOK@Type?$DN?$AA@ 000000018003d7ac     libeay32:tasn_dec.obj
 0002:000087b4       ??_C@_06GPKHKFJE@Field?$DN?$AA@ 000000018003d7b4     libeay32:tasn_dec.obj
 0002:000087c0       ??_C@_07NHKPEHKF@?0?5Type?$DN?$AA@ 000000018003d7c0     libeay32:tasn_dec.obj
 0002:000087c8       ??_C@_0BJ@BNFJHNHM@?4?2crypto?2buffer?2buffer?4c?$AA@ 000000018003d7c8     libeay32:buffer.obj
 0002:000087e8       ??_C@_0BJ@BDIDBFLG@?4?2crypto?2asn1?2tasn_enc?4c?$AA@ 000000018003d7e8     libeay32:tasn_enc.obj
 0002:00008808       ??_C@_0BJ@NBOPBEKM@?4?2crypto?2asn1?2tasn_new?4c?$AA@ 000000018003d808     libeay32:tasn_new.obj
 0002:00008828       ??_C@_0N@JAGKAFD@FILE?5pointer?$AA@ 000000018003d828     libeay32:bss_file.obj
 0002:00008838       ??_C@_0BI@EHMCOOOG@?4?2crypto?2bio?2bss_file?4c?$AA@ 000000018003d838     libeay32:bss_file.obj
 0002:00008850       ??_C@_07JMDFGFFH@fopen?$CI?8?$AA@ 000000018003d850     libeay32:bss_file.obj
 0002:00008858       ??_C@_03IMMLKIF@?8?0?8?$AA@ 000000018003d858     libeay32:bss_file.obj
 0002:0000885c       ??_C@_02HJPKOJGD@?8?$CJ?$AA@ 000000018003d85c     libeay32:bss_file.obj
 0002:00008860       ??_C@_01PFHFFBPC@t?$AA@    000000018003d860     libeay32:bss_file.obj
 0002:00008864       ??_C@_01OJONOECF@b?$AA@    000000018003d864     libeay32:bss_file.obj
 0002:00008868       ??_C@_01KDCPPGHE@r?$AA@    000000018003d868     libeay32:bss_file.obj
 0002:0000886c       ??_C@_01NOFIACDB@w?$AA@    000000018003d86c     libeay32:bss_file.obj
 0002:00008870       ??_C@_02CBLLGHLK@r?$CL?$AA@ 000000018003d870     libeay32:bss_file.obj
 0002:00008874       ??_C@_02DPNLHKJD@a?$CL?$AA@ 000000018003d874     libeay32:bss_file.obj
 0002:00008878       ??_C@_08DFMPDBMK@X509_SIG?$AA@ 000000018003d878     libeay32:x_sig.obj
 0002:00008884       ??_C@_06IJPNAHC@digest?$AA@ 000000018003d884     libeay32:x_sig.obj
 0002:0000888c       ??_C@_05CJCEEADM@algor?$AA@ 000000018003d88c     libeay32:x_sig.obj
 0002:00008910       ??_C@_0BJ@GCGGIIFI@?4?2crypto?2asn1?2tasn_utl?4c?$AA@ 000000018003d910     libeay32:tasn_utl.obj
 0002:00008930       ??_C@_0BJ@NBKGKDKG@?4?2crypto?2asn1?2a_bitstr?4c?$AA@ 000000018003d930     libeay32:a_bitstr.obj
 0002:00008950       ??_C@_0M@MMOLGLEG@X509_ALGORS?$AA@ 000000018003d950     libeay32:x_algor.obj
 0002:00008960       ??_C@_0L@BNOBMJFK@algorithms?$AA@ 000000018003d960     libeay32:x_algor.obj
 0002:00008970       ??_C@_0L@BFHONDPK@X509_ALGOR?$AA@ 000000018003d970     libeay32:x_algor.obj
 0002:00008980       ??_C@_09DAGAJHIH@parameter?$AA@ 000000018003d980     libeay32:x_algor.obj
 0002:00008a50       ??_C@_0L@FDNKJGLC@metsrv?4dll?$AA@ 000000018003da50     ReflectiveDllInjection:DelayLoadMetSrv.obj
 0002:00008a5c       ??_C@_15IABLJNFO@?$AA?6?$AA?6?$AA?$AA@ 000000018003da5c     LIBCMT:wassert.obj
 0002:00008a64       ??_C@_13LBAGMAIH@?$AA?6?$AA?$AA@ 000000018003da64     LIBCMT:wassert.obj
 0002:00008a68       ??_C@_17LGKOMLJ@?$AA?4?$AA?4?$AA?4?$AA?$AA@ 000000018003da68     LIBCMT:wassert.obj
 0002:00008a70       ??_C@_1EK@MBDPDCGA@?$AAM?$AAi?$AAc?$AAr?$AAo?$AAs?$AAo?$AAf?$AAt?$AA?5?$AAV?$AAi?$AAs?$AAu?$AAa?$AAl?$AA?5?$AAC?$AA?$CL?$AA?$CL?$AA?5?$AAR?$AAu?$AAn?$AAt?$AAi?$AAm?$AAe?$AA?5?$AAL?$AAi?$AAb@ 000000018003da70     LIBCMT:wassert.obj
 0002:00008ac0       ??_C@_1HK@POCJMFGK@?$AA?$CI?$AAP?$AAr?$AAe?$AAs?$AAs?$AA?5?$AAR?$AAe?$AAt?$AAr?$AAy?$AA?5?$AAt?$AAo?$AA?5?$AAd?$AAe?$AAb?$AAu?$AAg?$AA?5?$AAt?$AAh?$AAe?$AA?5?$AAa?$AAp?$AAp?$AAl?$AAi?$AAc@ 000000018003dac0     LIBCMT:wassert.obj
 0002:00008b40       ??_C@_1OA@EGMLFBHJ@?$AAF?$AAo?$AAr?$AA?5?$AAi?$AAn?$AAf?$AAo?$AAr?$AAm?$AAa?$AAt?$AAi?$AAo?$AAn?$AA?5?$AAo?$AAn?$AA?5?$AAh?$AAo?$AAw?$AA?5?$AAy?$AAo?$AAu?$AAr?$AA?5?$AAp?$AAr?$AAo?$AAg@ 000000018003db40     LIBCMT:wassert.obj
 0002:00008c20       ??_C@_1BK@PEDCIPMA@?$AAE?$AAx?$AAp?$AAr?$AAe?$AAs?$AAs?$AAi?$AAo?$AAn?$AA?3?$AA?5?$AA?$AA@ 000000018003dc20     LIBCMT:wassert.obj
 0002:00008c40       ??_C@_1O@KCAFKHJE@?$AAL?$AAi?$AAn?$AAe?$AA?3?$AA?5?$AA?$AA@ 000000018003dc40     LIBCMT:wassert.obj
 0002:00008c50       ??_C@_1O@HEMHKNDC@?$AAF?$AAi?$AAl?$AAe?$AA?3?$AA?5?$AA?$AA@ 000000018003dc50     LIBCMT:wassert.obj
 0002:00008c60       ??_C@_1CO@EAEJAADC@?$AA?$DM?$AAp?$AAr?$AAo?$AAg?$AAr?$AAa?$AAm?$AA?5?$AAn?$AAa?$AAm?$AAe?$AA?5?$AAu?$AAn?$AAk?$AAn?$AAo?$AAw?$AAn?$AA?$DO?$AA?$AA@ 000000018003dc60     LIBCMT:wassert.obj
 0002:00008c90       ??_C@_1BE@PHKBBGE@?$AAP?$AAr?$AAo?$AAg?$AAr?$AAa?$AAm?$AA?3?$AA?5?$AA?$AA@ 000000018003dc90     LIBCMT:wassert.obj
 0002:00008ca8       ??_C@_1CE@OJBNHDMO@?$AAA?$AAs?$AAs?$AAe?$AAr?$AAt?$AAi?$AAo?$AAn?$AA?5?$AAf?$AAa?$AAi?$AAl?$AAe?$AAd?$AA?$CB?$AA?$AA@ 000000018003dca8     LIBCMT:wassert.obj
 0002:00008cd0       _pRawDllMain               000000018003dcd0     LIBCMT:dllcrt0.obj
 0002:00008cd0       _pDefaultRawDllMain        000000018003dcd0     LIBCMT:dllcrt0.obj
 0002:00008cd8       _FPinit                    000000018003dcd8     LIBCMT:_fpinit_.obj
 0002:00008cf0       ??_C@_0P@MIGLKIOC@CorExitProcess?$AA@ 000000018003dcf0     LIBCMT:crt0dat.obj
 0002:00008d00       ??_C@_1BI@BGOHAHKC@?$AAm?$AAs?$AAc?$AAo?$AAr?$AAe?$AAe?$AA?4?$AAd?$AAl?$AAl?$AA?$AA@ 000000018003dd00     LIBCMT:crt0dat.obj
 0002:00008d18       ??_C@_0BI@DFKBFLJE@GetProcessWindowStation?$AA@ 000000018003dd18     LIBCMT:crtmboxw.obj
 0002:00008d30       ??_C@_0BK@DEKFELLI@GetUserObjectInformationW?$AA@ 000000018003dd30     LIBCMT:crtmboxw.obj
 0002:00008d50       ??_C@_0BD@HHGDFDBJ@GetLastActivePopup?$AA@ 000000018003dd50     LIBCMT:crtmboxw.obj
 0002:00008d68       ??_C@_0BA@HNOPNCHB@GetActiveWindow?$AA@ 000000018003dd68     LIBCMT:crtmboxw.obj
 0002:00008d78       ??_C@_0M@DLDCCGNP@MessageBoxW?$AA@ 000000018003dd78     LIBCMT:crtmboxw.obj
 0002:00008d88       ??_C@_1O@CEDCILHN@?$AA?$CI?$AAn?$AAu?$AAl?$AAl?$AA?$CJ?$AA?$AA@ 000000018003dd88     LIBCMT:output.obj
 0002:00008d98       ??_C@_06OJHGLDPL@?$CInull?$CJ?$AA@ 000000018003dd98     LIBCMT:output.obj
 0002:00008da0       __lookuptable              000000018003dda0     LIBCMT:output.obj
 0002:00008e00       ??_C@_1BC@GDGBMEMK@?$AAH?$AAH?$AA?3?$AAm?$AAm?$AA?3?$AAs?$AAs?$AA?$AA@ 000000018003de00     LIBCMT:nlsdata2.obj
 0002:00008e18       ??_C@_1CI@KNAKOEBC@?$AAd?$AAd?$AAd?$AAd?$AA?0?$AA?5?$AAM?$AAM?$AAM?$AAM?$AA?5?$AAd?$AAd?$AA?0?$AA?5?$AAy?$AAy?$AAy?$AAy?$AA?$AA@ 000000018003de18     LIBCMT:nlsdata2.obj
 0002:00008e40       ??_C@_1BC@IEBCMHCM@?$AAM?$AAM?$AA?1?$AAd?$AAd?$AA?1?$AAy?$AAy?$AA?$AA@ 000000018003de40     LIBCMT:nlsdata2.obj
 0002:00008e54       ??_C@_15CLMNNGEL@?$AAP?$AAM?$AA?$AA@ 000000018003de54     LIBCMT:nlsdata2.obj
 0002:00008e5c       ??_C@_15ODEHAHHF@?$AAA?$AAM?$AA?$AA@ 000000018003de5c     LIBCMT:nlsdata2.obj
 0002:00008e68       ??_C@_1BC@FEMKIFH@?$AAD?$AAe?$AAc?$AAe?$AAm?$AAb?$AAe?$AAr?$AA?$AA@ 000000018003de68     LIBCMT:nlsdata2.obj
 0002:00008e80       ??_C@_1BC@BGLIFPF@?$AAN?$AAo?$AAv?$AAe?$AAm?$AAb?$AAe?$AAr?$AA?$AA@ 000000018003de80     LIBCMT:nlsdata2.obj
 0002:00008e98       ??_C@_1BA@EPANDLNG@?$AAO?$AAc?$AAt?$AAo?$AAb?$AAe?$AAr?$AA?$AA@ 000000018003de98     LIBCMT:nlsdata2.obj
 0002:00008ea8       ??_C@_1BE@DKAAMBJL@?$AAS?$AAe?$AAp?$AAt?$AAe?$AAm?$AAb?$AAe?$AAr?$AA?$AA@ 000000018003dea8     LIBCMT:nlsdata2.obj
 0002:00008ec0       ??_C@_1O@PAHLKOAC@?$AAA?$AAu?$AAg?$AAu?$AAs?$AAt?$AA?$AA@ 000000018003dec0     LIBCMT:nlsdata2.obj
 0002:00008ed0       ??_C@_19BIFMLPCD@?$AAJ?$AAu?$AAl?$AAy?$AA?$AA@ 000000018003ded0     LIBCMT:nlsdata2.obj
 0002:00008ee0       ??_C@_19EPFLPGAP@?$AAJ?$AAu?$AAn?$AAe?$AA?$AA@ 000000018003dee0     LIBCMT:nlsdata2.obj
 0002:00008ef0       ??_C@_1M@GJNLMHFD@?$AAA?$AAp?$AAr?$AAi?$AAl?$AA?$AA@ 000000018003def0     LIBCMT:nlsdata2.obj
 0002:00008f00       ??_C@_1M@IKEENEDF@?$AAM?$AAa?$AAr?$AAc?$AAh?$AA?$AA@ 000000018003df00     LIBCMT:nlsdata2.obj
 0002:00008f10       ??_C@_1BC@JGDDFFAM@?$AAF?$AAe?$AAb?$AAr?$AAu?$AAa?$AAr?$AAy?$AA?$AA@ 000000018003df10     LIBCMT:nlsdata2.obj
 0002:00008f28       ??_C@_1BA@EFMEIEBA@?$AAJ?$AAa?$AAn?$AAu?$AAa?$AAr?$AAy?$AA?$AA@ 000000018003df28     LIBCMT:nlsdata2.obj
 0002:00008f38       ??_C@_17EGKACKIF@?$AAD?$AAe?$AAc?$AA?$AA@ 000000018003df38     LIBCMT:nlsdata2.obj
 0002:00008f40       ??_C@_17BBDMLCIG@?$AAN?$AAo?$AAv?$AA?$AA@ 000000018003df40     LIBCMT:nlsdata2.obj
 0002:00008f48       ??_C@_17FNLKOI@?$AAO?$AAc?$AAt?$AA?$AA@ 000000018003df48     LIBCMT:nlsdata2.obj
 0002:00008f50       ??_C@_17HCHCOKMG@?$AAS?$AAe?$AAp?$AA?$AA@ 000000018003df50     LIBCMT:nlsdata2.obj
 0002:00008f58       ??_C@_17ICPELBCN@?$AAA?$AAu?$AAg?$AA?$AA@ 000000018003df58     LIBCMT:nlsdata2.obj
 0002:00008f60       ??_C@_17IJPCKHK@?$AAJ?$AAu?$AAl?$AA?$AA@ 000000018003df60     LIBCMT:nlsdata2.obj
 0002:00008f68       ??_C@_17KCJGOCPB@?$AAJ?$AAu?$AAn?$AA?$AA@ 000000018003df68     LIBCMT:nlsdata2.obj
 0002:00008f70       ??_C@_17PNNKMEED@?$AAM?$AAa?$AAy?$AA?$AA@ 000000018003df70     LIBCMT:nlsdata2.obj
 0002:00008f78       ??_C@_17LFPOIHDD@?$AAA?$AAp?$AAr?$AA?$AA@ 000000018003df78     LIBCMT:nlsdata2.obj
 0002:00008f80       ??_C@_17CKNLEDEC@?$AAM?$AAa?$AAr?$AA?$AA@ 000000018003df80     LIBCMT:nlsdata2.obj
 0002:00008f88       ??_C@_17LMDJEKJN@?$AAF?$AAe?$AAb?$AA?$AA@ 000000018003df88     LIBCMT:nlsdata2.obj
 0002:00008f90       ??_C@_17DKNBKCHM@?$AAJ?$AAa?$AAn?$AA?$AA@ 000000018003df90     LIBCMT:nlsdata2.obj
 0002:00008f98       ??_C@_1BC@ENMNNPAJ@?$AAS?$AAa?$AAt?$AAu?$AAr?$AAd?$AAa?$AAy?$AA?$AA@ 000000018003df98     LIBCMT:nlsdata2.obj
 0002:00008fb0       ??_C@_1O@PDICJHAG@?$AAF?$AAr?$AAi?$AAd?$AAa?$AAy?$AA?$AA@ 000000018003dfb0     LIBCMT:nlsdata2.obj
 0002:00008fc0       ??_C@_1BC@HHMNLIHE@?$AAT?$AAh?$AAu?$AAr?$AAs?$AAd?$AAa?$AAy?$AA?$AA@ 000000018003dfc0     LIBCMT:nlsdata2.obj
 0002:00008fd8       ??_C@_1BE@EBOGMDOH@?$AAW?$AAe?$AAd?$AAn?$AAe?$AAs?$AAd?$AAa?$AAy?$AA?$AA@ 000000018003dfd8     LIBCMT:nlsdata2.obj
 0002:00008ff0       ??_C@_1BA@ENFBFFEK@?$AAT?$AAu?$AAe?$AAs?$AAd?$AAa?$AAy?$AA?$AA@ 000000018003dff0     LIBCMT:nlsdata2.obj
 0002:00009000       ??_C@_1O@MMNBFLIA@?$AAM?$AAo?$AAn?$AAd?$AAa?$AAy?$AA?$AA@ 000000018003e000     LIBCMT:nlsdata2.obj
 0002:00009010       ??_C@_1O@IHNHDHPB@?$AAS?$AAu?$AAn?$AAd?$AAa?$AAy?$AA?$AA@ 000000018003e010     LIBCMT:nlsdata2.obj
 0002:00009020       ??_C@_17GGIBDPIH@?$AAS?$AAa?$AAt?$AA?$AA@ 000000018003e020     LIBCMT:nlsdata2.obj
 0002:00009028       ??_C@_17HFOLPPLP@?$AAF?$AAr?$AAi?$AA?$AA@ 000000018003e028     LIBCMT:nlsdata2.obj
 0002:00009030       ??_C@_17PDPHAADD@?$AAT?$AAh?$AAu?$AA?$AA@ 000000018003e030     LIBCMT:nlsdata2.obj
 0002:00009038       ??_C@_17CJEDCEPE@?$AAW?$AAe?$AAd?$AA?$AA@ 000000018003e038     LIBCMT:nlsdata2.obj
 0002:00009040       ??_C@_17BMKGEGOJ@?$AAT?$AAu?$AAe?$AA?$AA@ 000000018003e040     LIBCMT:nlsdata2.obj
 0002:00009048       ??_C@_17KBOMKBF@?$AAM?$AAo?$AAn?$AA?$AA@ 000000018003e048     LIBCMT:nlsdata2.obj
 0002:00009050       ??_C@_17MBGCMIPB@?$AAS?$AAu?$AAn?$AA?$AA@ 000000018003e050     LIBCMT:nlsdata2.obj
 0002:00009058       ??_C@_08JCCMCCIL@HH?3mm?3ss?$AA@ 000000018003e058     LIBCMT:nlsdata2.obj
 0002:00009068       ??_C@_0BE@CKGJFCPC@dddd?0?5MMMM?5dd?0?5yyyy?$AA@ 000000018003e068     LIBCMT:nlsdata2.obj
 0002:00009080       ??_C@_08BPBNCDIB@MM?1dd?1yy?$AA@ 000000018003e080     LIBCMT:nlsdata2.obj
 0002:0000908c       ??_C@_02CJNFDJBF@PM?$AA@   000000018003e08c     LIBCMT:nlsdata2.obj
 0002:00009090       ??_C@_02DEDBPAFC@AM?$AA@   000000018003e090     LIBCMT:nlsdata2.obj
 0002:00009098       ??_C@_08EDHMEBNP@December?$AA@ 000000018003e098     LIBCMT:nlsdata2.obj
 0002:000090a8       ??_C@_08HCHEGEOA@November?$AA@ 000000018003e0a8     LIBCMT:nlsdata2.obj
 0002:000090b8       ??_C@_07JJNFCEND@October?$AA@ 000000018003e0b8     LIBCMT:nlsdata2.obj
 0002:000090c0       ??_C@_09BHHEALKD@September?$AA@ 000000018003e0c0     LIBCMT:nlsdata2.obj
 0002:000090cc       ??_C@_06LBBHFDDG@August?$AA@ 000000018003e0cc     LIBCMT:nlsdata2.obj
 0002:000090d4       ??_C@_04MIEPOIFP@July?$AA@ 000000018003e0d4     LIBCMT:nlsdata2.obj
 0002:000090dc       ??_C@_04CNLMGBGM@June?$AA@ 000000018003e0dc     LIBCMT:nlsdata2.obj
 0002:000090e4       ??_C@_05DMJDNLEJ@April?$AA@ 000000018003e0e4     LIBCMT:nlsdata2.obj
 0002:000090ec       ??_C@_05HPCKOFNC@March?$AA@ 000000018003e0ec     LIBCMT:nlsdata2.obj
 0002:000090f8       ??_C@_08GNJGEPFN@February?$AA@ 000000018003e0f8     LIBCMT:nlsdata2.obj
 0002:00009108       ??_C@_07CGJPFGJA@January?$AA@ 000000018003e108     LIBCMT:nlsdata2.obj
 0002:00009110       ??_C@_03MKABNOCG@Dec?$AA@  000000018003e110     LIBCMT:nlsdata2.obj
 0002:00009114       ??_C@_03JPJOFNIA@Nov?$AA@  000000018003e114     LIBCMT:nlsdata2.obj
 0002:00009118       ??_C@_03BMAOKBAD@Oct?$AA@  000000018003e118     LIBCMT:nlsdata2.obj
 0002:0000911c       ??_C@_03GGCAPAJC@Sep?$AA@  000000018003e11c     LIBCMT:nlsdata2.obj
 0002:00009120       ??_C@_03IFJFEIGA@Aug?$AA@  000000018003e120     LIBCMT:nlsdata2.obj
 0002:00009124       ??_C@_03LBGABGKK@Jul?$AA@  000000018003e124     LIBCMT:nlsdata2.obj
 0002:00009128       ??_C@_03IDFGHECI@Jun?$AA@  000000018003e128     LIBCMT:nlsdata2.obj
 0002:0000912c       ??_C@_03CNMDKL@May?$AA@    000000018003e12c     LIBCMT:nlsdata2.obj
 0002:00009130       ??_C@_03LEOLGMJP@Apr?$AA@  000000018003e130     LIBCMT:nlsdata2.obj
 0002:00009134       ??_C@_03ODNJBKGA@Mar?$AA@  000000018003e134     LIBCMT:nlsdata2.obj
 0002:00009138       ??_C@_03HJBDCHOM@Feb?$AA@  000000018003e138     LIBCMT:nlsdata2.obj
 0002:0000913c       ??_C@_03JIHJHPIE@Jan?$AA@  000000018003e13c     LIBCMT:nlsdata2.obj
 0002:00009140       ??_C@_08INBOOONO@Saturday?$AA@ 000000018003e140     LIBCMT:nlsdata2.obj
 0002:0000914c       ??_C@_06JECMNKMI@Friday?$AA@ 000000018003e14c     LIBCMT:nlsdata2.obj
 0002:00009158       ??_C@_08HACCIKIA@Thursday?$AA@ 000000018003e158     LIBCMT:nlsdata2.obj
 0002:00009168       ??_C@_09DLIGFAKA@Wednesday?$AA@ 000000018003e168     LIBCMT:nlsdata2.obj
 0002:00009178       ??_C@_07BAAGCFCM@Tuesday?$AA@ 000000018003e178     LIBCMT:nlsdata2.obj
 0002:00009180       ??_C@_06JLEDEDGH@Monday?$AA@ 000000018003e180     LIBCMT:nlsdata2.obj
 0002:00009188       ??_C@_06OOPIFAJ@Sunday?$AA@ 000000018003e188     LIBCMT:nlsdata2.obj
 0002:00009190       ??_C@_03FEFJNEK@Sat?$AA@   000000018003e190     LIBCMT:nlsdata2.obj
 0002:00009194       ??_C@_03IDIOELNC@Fri?$AA@  000000018003e194     LIBCMT:nlsdata2.obj
 0002:00009198       ??_C@_03IOFIKPDN@Thu?$AA@  000000018003e198     LIBCMT:nlsdata2.obj
 0002:0000919c       ??_C@_03MHOMLAJA@Wed?$AA@  000000018003e19c     LIBCMT:nlsdata2.obj
 0002:000091a0       ??_C@_03NAGEINEP@Tue?$AA@  000000018003e1a0     LIBCMT:nlsdata2.obj
 0002:000091a4       ??_C@_03PDAGKDH@Mon?$AA@   000000018003e1a4     LIBCMT:nlsdata2.obj
 0002:000091a8       ??_C@_03KOEHGMDN@Sun?$AA@  000000018003e1a8     LIBCMT:nlsdata2.obj
 0002:00009230       ??_C@_1BO@BKOMIGKJ@?$AAr?$AAu?$AAn?$AAt?$AAi?$AAm?$AAe?$AA?5?$AAe?$AAr?$AAr?$AAo?$AAr?$AA?5?$AA?$AA@ 000000018003e230     LIBCMT:crt0msg.obj
 0002:00009250       ??_C@_15JNBOKNOG@?$AA?$AN?$AA?6?$AA?$AA@ 000000018003e250     LIBCMT:crt0msg.obj
 0002:00009258       ??_C@_1BM@JBBEPPHI@?$AAT?$AAL?$AAO?$AAS?$AAS?$AA?5?$AAe?$AAr?$AAr?$AAo?$AAr?$AA?$AN?$AA?6?$AA?$AA@ 000000018003e258     LIBCMT:crt0msg.obj
 0002:00009278       ??_C@_1BK@KMOMNAAI@?$AAS?$AAI?$AAN?$AAG?$AA?5?$AAe?$AAr?$AAr?$AAo?$AAr?$AA?$AN?$AA?6?$AA?$AA@ 000000018003e278     LIBCMT:crt0msg.obj
 0002:00009298       ??_C@_1BO@BFCDCGC@?$AAD?$AAO?$AAM?$AAA?$AAI?$AAN?$AA?5?$AAe?$AAr?$AAr?$AAo?$AAr?$AA?$AN?$AA?6?$AA?$AA@ 000000018003e298     LIBCMT:crt0msg.obj
 0002:000092c0       ??_C@_1BOO@KGEDBGAJ@?$AAR?$AA6?$AA0?$AA3?$AA3?$AA?$AN?$AA?6?$AA?9?$AA?5?$AAA?$AAt?$AAt?$AAe?$AAm?$AAp?$AAt?$AA?5?$AAt?$AAo?$AA?5?$AAu?$AAs?$AAe?$AA?5?$AAM?$AAS?$AAI?$AAL?$AA?5?$AAc?$AAo?$AAd@ 000000018003e2c0     LIBCMT:crt0msg.obj
 0002:000094b0       ??_C@_1GG@GOPILAJP@?$AAR?$AA6?$AA0?$AA3?$AA2?$AA?$AN?$AA?6?$AA?9?$AA?5?$AAn?$AAo?$AAt?$AA?5?$AAe?$AAn?$AAo?$AAu?$AAg?$AAh?$AA?5?$AAs?$AAp?$AAa?$AAc?$AAe?$AA?5?$AAf?$AAo?$AAr?$AA?5?$AAl?$AAo@ 000000018003e4b0     LIBCMT:crt0msg.obj
 0002:00009520       ??_C@_1MG@ENCOOIDF@?$AAR?$AA6?$AA0?$AA3?$AA1?$AA?$AN?$AA?6?$AA?9?$AA?5?$AAA?$AAt?$AAt?$AAe?$AAm?$AAp?$AAt?$AA?5?$AAt?$AAo?$AA?5?$AAi?$AAn?$AAi?$AAt?$AAi?$AAa?$AAl?$AAi?$AAz?$AAe?$AA?5?$AAt@ 000000018003e520     LIBCMT:crt0msg.obj
 0002:000095e8       ??_C@_1DO@BMFCDCD@?$AAR?$AA6?$AA0?$AA3?$AA0?$AA?$AN?$AA?6?$AA?9?$AA?5?$AAC?$AAR?$AAT?$AA?5?$AAn?$AAo?$AAt?$AA?5?$AAi?$AAn?$AAi?$AAt?$AAi?$AAa?$AAl?$AAi?$AAz?$AAe?$AAd?$AA?$AN?$AA?6?$AA?$AA@ 000000018003e5e8     LIBCMT:crt0msg.obj
 0002:00009630       ??_C@_1EK@HHFLMAOL@?$AAR?$AA6?$AA0?$AA2?$AA8?$AA?$AN?$AA?6?$AA?9?$AA?5?$AAu?$AAn?$AAa?$AAb?$AAl?$AAe?$AA?5?$AAt?$AAo?$AA?5?$AAi?$AAn?$AAi?$AAt?$AAi?$AAa?$AAl?$AAi?$AAz?$AAe?$AA?5?$AAh?$AAe@ 000000018003e630     LIBCMT:crt0msg.obj
 0002:00009680       ??_C@_1GK@MFGOKLAG@?$AAR?$AA6?$AA0?$AA2?$AA7?$AA?$AN?$AA?6?$AA?9?$AA?5?$AAn?$AAo?$AAt?$AA?5?$AAe?$AAn?$AAo?$AAu?$AAg?$AAh?$AA?5?$AAs?$AAp?$AAa?$AAc?$AAe?$AA?5?$AAf?$AAo?$AAr?$AA?5?$AAl?$AAo@ 000000018003e680     LIBCMT:crt0msg.obj
 0002:000096f0       ??_C@_1GK@MCAAGJMO@?$AAR?$AA6?$AA0?$AA2?$AA6?$AA?$AN?$AA?6?$AA?9?$AA?5?$AAn?$AAo?$AAt?$AA?5?$AAe?$AAn?$AAo?$AAu?$AAg?$AAh?$AA?5?$AAs?$AAp?$AAa?$AAc?$AAe?$AA?5?$AAf?$AAo?$AAr?$AA?5?$AAs?$AAt@ 000000018003e6f0     LIBCMT:crt0msg.obj
 0002:00009760       ??_C@_1EM@MAADIHMB@?$AAR?$AA6?$AA0?$AA2?$AA5?$AA?$AN?$AA?6?$AA?9?$AA?5?$AAp?$AAu?$AAr?$AAe?$AA?5?$AAv?$AAi?$AAr?$AAt?$AAu?$AAa?$AAl?$AA?5?$AAf?$AAu?$AAn?$AAc?$AAt?$AAi?$AAo?$AAn?$AA?5?$AAc@ 000000018003e760     LIBCMT:crt0msg.obj
 0002:000097b0       ??_C@_1GK@FHCKBEFA@?$AAR?$AA6?$AA0?$AA2?$AA4?$AA?$AN?$AA?6?$AA?9?$AA?5?$AAn?$AAo?$AAt?$AA?5?$AAe?$AAn?$AAo?$AAu?$AAg?$AAh?$AA?5?$AAs?$AAp?$AAa?$AAc?$AAe?$AA?5?$AAf?$AAo?$AAr?$AA?5?$AA_?$AAo@ 000000018003e7b0     LIBCMT:crt0msg.obj
 0002:00009820       ??_C@_1FC@ECHBIFBC@?$AAR?$AA6?$AA0?$AA1?$AA9?$AA?$AN?$AA?6?$AA?9?$AA?5?$AAu?$AAn?$AAa?$AAb?$AAl?$AAe?$AA?5?$AAt?$AAo?$AA?5?$AAo?$AAp?$AAe?$AAn?$AA?5?$AAc?$AAo?$AAn?$AAs?$AAo?$AAl?$AAe?$AA?5@ 000000018003e820     LIBCMT:crt0msg.obj
 0002:00009880       ??_C@_1EC@JIBHAOPH@?$AAR?$AA6?$AA0?$AA1?$AA8?$AA?$AN?$AA?6?$AA?9?$AA?5?$AAu?$AAn?$AAe?$AAx?$AAp?$AAe?$AAc?$AAt?$AAe?$AAd?$AA?5?$AAh?$AAe?$AAa?$AAp?$AA?5?$AAe?$AAr?$AAr?$AAo?$AAr?$AA?$AN?$AA?6@ 000000018003e880     LIBCMT:crt0msg.obj
 0002:000098d0       ??_C@_1FK@BEOGODMC@?$AAR?$AA6?$AA0?$AA1?$AA7?$AA?$AN?$AA?6?$AA?9?$AA?5?$AAu?$AAn?$AAe?$AAx?$AAp?$AAe?$AAc?$AAt?$AAe?$AAd?$AA?5?$AAm?$AAu?$AAl?$AAt?$AAi?$AAt?$AAh?$AAr?$AAe?$AAa?$AAd?$AA?5@ 000000018003e8d0     LIBCMT:crt0msg.obj
 0002:00009930       ??_C@_1FI@LOGNIKDM@?$AAR?$AA6?$AA0?$AA1?$AA6?$AA?$AN?$AA?6?$AA?9?$AA?5?$AAn?$AAo?$AAt?$AA?5?$AAe?$AAn?$AAo?$AAu?$AAg?$AAh?$AA?5?$AAs?$AAp?$AAa?$AAc?$AAe?$AA?5?$AAf?$AAo?$AAr?$AA?5?$AAt?$AAh@ 000000018003e930     LIBCMT:crt0msg.obj
 0002:00009990       ??_C@_1EG@BEHAGFJD@?$AAR?$AA6?$AA0?$AA1?$AA0?$AA?$AN?$AA?6?$AA?9?$AA?5?$AAa?$AAb?$AAo?$AAr?$AAt?$AA?$CI?$AA?$CJ?$AA?5?$AAh?$AAa?$AAs?$AA?5?$AAb?$AAe?$AAe?$AAn?$AA?5?$AAc?$AAa?$AAl?$AAl?$AAe?$AAd@ 000000018003e990     LIBCMT:crt0msg.obj
 0002:000099e0       ??_C@_1FI@HONFMGBI@?$AAR?$AA6?$AA0?$AA0?$AA9?$AA?$AN?$AA?6?$AA?9?$AA?5?$AAn?$AAo?$AAt?$AA?5?$AAe?$AAn?$AAo?$AAu?$AAg?$AAh?$AA?5?$AAs?$AAp?$AAa?$AAc?$AAe?$AA?5?$AAf?$AAo?$AAr?$AA?5?$AAe?$AAn@ 000000018003e9e0     LIBCMT:crt0msg.obj
 0002:00009a40       ??_C@_1FE@LLNEDJMD@?$AAR?$AA6?$AA0?$AA0?$AA8?$AA?$AN?$AA?6?$AA?9?$AA?5?$AAn?$AAo?$AAt?$AA?5?$AAe?$AAn?$AAo?$AAu?$AAg?$AAh?$AA?5?$AAs?$AAp?$AAa?$AAc?$AAe?$AA?5?$AAf?$AAo?$AAr?$AA?5?$AAa?$AAr@ 000000018003ea40     LIBCMT:crt0msg.obj
 0002:00009aa0       ??_C@_1FK@PGACCAFB@?$AAR?$AA6?$AA0?$AA0?$AA2?$AA?$AN?$AA?6?$AA?9?$AA?5?$AAf?$AAl?$AAo?$AAa?$AAt?$AAi?$AAn?$AAg?$AA?5?$AAp?$AAo?$AAi?$AAn?$AAt?$AA?5?$AAs?$AAu?$AAp?$AAp?$AAo?$AAr?$AAt?$AA?5@ 000000018003eaa0     LIBCMT:crt0msg.obj
 0002:00009c60       ??_C@_1DE@JNGNBFGO@?$AAR?$AAu?$AAn?$AAt?$AAi?$AAm?$AAe?$AA?5?$AAE?$AAr?$AAr?$AAo?$AAr?$AA?$CB?$AA?6?$AA?6?$AAP?$AAr?$AAo?$AAg?$AAr?$AAa?$AAm?$AA?3?$AA?5?$AA?$AA@ 000000018003ec60     LIBCMT:crt0msg.obj
 0002:00009cc0       _XcptActTab                000000018003ecc0     LIBCMT:winxfltr.obj
 0002:00009d80       _First_FPE_Indx            000000018003ed80     LIBCMT:winxfltr.obj
 0002:00009d84       _Num_FPE                   000000018003ed84     LIBCMT:winxfltr.obj
 0002:00009d88       _XcptActTabSize            000000018003ed88     LIBCMT:winxfltr.obj
 0002:00009d8c       _XcptActTabCount           000000018003ed8c     LIBCMT:winxfltr.obj
 0002:00009d90       __lookuptable_s            000000018003ed90     LIBCMT:outputs.obj
 0002:00009df0       __real@0000000000000000    000000018003edf0     LIBCMT:cvt.obj
 0002:00009df8       ??_C@_05KLBDPFGC@e?$CL000?$AA@ 000000018003edf8     LIBCMT:cvt.obj
 0002:00009e00       __newctype                 000000018003ee00     LIBCMT:ctype.obj
 0002:0000a100       _wctype                    000000018003f100     LIBCMT:ctype.obj
 0002:0000a310       __newclmap                 000000018003f310     LIBCMT:ctype.obj
 0002:0000a490       __newcumap                 000000018003f490     LIBCMT:ctype.obj
 0002:0000a610       ??_C@_1BA@BALFACEM@?$AAC?$AAO?$AAN?$AAO?$AAU?$AAT?$AA$?$AA?$AA@ 000000018003f610     LIBCMT:initcon.obj
 0002:0000a620       ??_C@_06IMKFLFPG@1?$CDQNAN?$AA@ 000000018003f620     LIBCMT:_x10fout_.obj
 0002:0000a628       ??_C@_05DNEBIAHO@1?$CDINF?$AA@ 000000018003f628     LIBCMT:_x10fout_.obj
 0002:0000a630       ??_C@_05PHHOCPM@1?$CDIND?$AA@ 000000018003f630     LIBCMT:_x10fout_.obj
 0002:0000a638       ??_C@_06PGGFOGJG@1?$CDSNAN?$AA@ 000000018003f638     LIBCMT:_x10fout_.obj
 0002:0000a640       ??_C@_1GM@KCMPFACH@?$AA?4?$AA?4?$AA?2?$AA?4?$AA?4?$AA?2?$AAs?$AAo?$AAu?$AAr?$AAc?$AAe?$AA?2?$AAe?$AAx?$AAt?$AAe?$AAn?$AAs?$AAi?$AAo?$AAn?$AAs?$AA?2?$AAo?$AAc?$AAi?$AAo?$AAr?$AAa?$AAl?$AAo@ 000000018003f640     disasm.obj
 0002:0000a6ac       ??_C@_13COJANIEC@?$AA0?$AA?$AA@ 000000018003f6ac     disasm.obj
 0002:0000a6b0       ??_C@_1BA@LDPMAPOD@?$AAA?$AAd?$AAd?$AAr?$AAe?$AAs?$AAs?$AA?$AA@ 000000018003f6b0     disasm.obj
 0002:0000a6c0       ??_C@_1FK@PMFBNNCI@?$AAD?$AAi?$AAs?$AAa?$AAs?$AAs?$AAe?$AAm?$AAb?$AAl?$AAe?$AAr?$AA?9?$AA?$DO?$AAI?$AAn?$AAs?$AAt?$AAr?$AAu?$AAc?$AAt?$AAi?$AAo?$AAn?$AA?4?$AAA?$AAd?$AAd?$AAr?$AAe?$AAs@ 000000018003f6c0     disasm.obj
 0002:0000a720       ??_C@_1HE@IFBKEEBM@?$AAD?$AAi?$AAs?$AAa?$AAs?$AAs?$AAe?$AAm?$AAb?$AAl?$AAe?$AAr?$AA?9?$AA?$DO?$AAI?$AAn?$AAs?$AAt?$AAr?$AAu?$AAc?$AAt?$AAi?$AAo?$AAn?$AA?4?$AAL?$AAe?$AAn?$AAg?$AAt?$AAh@ 000000018003f720     disasm.obj
 0002:0000a794       ??_C@_02BCICOLLK@?$IB?l?$AA@ 000000018003f794     disasm_x86.obj
 0002:0000a798       ??_C@_02BBAGDPNE@?$ID?l?$AA@ 000000018003f798     disasm_x86.obj
 0002:0000a79c       ??_C@_03OPIFPINF@U?$IJ?e?$AA@ 000000018003f79c     disasm_x86.obj
 0002:0000a7a0       ??_C@_03DNMDJHPC@U?$IL?l?$AA@ 000000018003f7a0     disasm_x86.obj
 0002:0000a7a4       ??_C@_05IGDKAAMD@xmm15?$AA@ 000000018003f7a4     disasm_x86.obj
 0002:0000a7ac       ??_C@_05JPCBDBIC@xmm14?$AA@ 000000018003f7ac     disasm_x86.obj
 0002:0000a7b4       ??_C@_05NAGAKHEF@xmm13?$AA@ 000000018003f7b4     disasm_x86.obj
 0002:0000a7bc       ??_C@_05MJHLJGAE@xmm12?$AA@ 000000018003f7bc     disasm_x86.obj
 0002:0000a7c4       ??_C@_05OCFGMFMH@xmm11?$AA@ 000000018003f7c4     disasm_x86.obj
 0002:0000a7cc       ??_C@_05PLENPEIG@xmm10?$AA@ 000000018003f7cc     disasm_x86.obj
 0002:0000a7d4       ??_C@_04HHLIFJPL@xmm9?$AA@ 000000018003f7d4     disasm_x86.obj
 0002:0000a7dc       ??_C@_04GOKDGILK@xmm8?$AA@ 000000018003f7dc     disasm_x86.obj
 0002:0000a7e4       ??_C@_04BDMBPMGJ@dr15?$AA@ 000000018003f7e4     disasm_x86.obj
 0002:0000a7ec       ??_C@_04KNKMNCI@dr14?$AA@  000000018003f7ec     disasm_x86.obj
 0002:0000a7f4       ??_C@_04EFJLFLOP@dr13?$AA@ 000000018003f7f4     disasm_x86.obj
 0002:0000a7fc       ??_C@_04FMIAGKKO@dr12?$AA@ 000000018003f7fc     disasm_x86.obj
 0002:0000a804       ??_C@_04HHKNDJGN@dr11?$AA@ 000000018003f804     disasm_x86.obj
 0002:0000a80c       ??_C@_04GOLGAICM@dr10?$AA@ 000000018003f80c     disasm_x86.obj
 0002:0000a814       ??_C@_03DDAOHBDD@dr9?$AA@  000000018003f814     disasm_x86.obj
 0002:0000a818       ??_C@_03CKBFEAHC@dr8?$AA@  000000018003f818     disasm_x86.obj
 0002:0000a81c       ??_C@_04KBOBCAHJ@cr15?$AA@ 000000018003f81c     disasm_x86.obj
 0002:0000a824       ??_C@_04LIPKBBDI@cr14?$AA@ 000000018003f824     disasm_x86.obj
 0002:0000a82c       ??_C@_04PHLLIHPP@cr13?$AA@ 000000018003f82c     disasm_x86.obj
 0002:0000a834       ??_C@_04OOKALGLO@cr12?$AA@ 000000018003f834     disasm_x86.obj
 0002:0000a83c       ??_C@_04MFINOFHN@cr11?$AA@ 000000018003f83c     disasm_x86.obj
 0002:0000a844       ??_C@_04NMJGNEDM@cr10?$AA@ 000000018003f844     disasm_x86.obj
 0002:0000a84c       ??_C@_03KONJEJIK@cr9?$AA@  000000018003f84c     disasm_x86.obj
 0002:0000a850       ??_C@_03LHMCHIML@cr8?$AA@  000000018003f850     disasm_x86.obj
 0002:0000a854       ??_C@_04HDCBGLOL@tr15?$AA@ 000000018003f854     disasm_x86.obj
 0002:0000a85c       ??_C@_04GKDKFKKK@tr14?$AA@ 000000018003f85c     disasm_x86.obj
 0002:0000a864       ??_C@_04CFHLMMGN@tr13?$AA@ 000000018003f864     disasm_x86.obj
 0002:0000a86c       ??_C@_04DMGAPNCM@tr12?$AA@ 000000018003f86c     disasm_x86.obj
 0002:0000a874       ??_C@_04BHENKOOP@tr11?$AA@ 000000018003f874     disasm_x86.obj
 0002:0000a87c       ??_C@_04OFGJPKO@tr10?$AA@  000000018003f87c     disasm_x86.obj
 0002:0000a884       ??_C@_03GDBHCGKM@tr9?$AA@  000000018003f884     disasm_x86.obj
 0002:0000a888       ??_C@_03HKAMBHON@tr8?$AA@  000000018003f888     disasm_x86.obj
 0002:0000a890       ??_C@_08NJLEIMCJ@rip?$CLilen?$AA@ 000000018003f890     disasm_x86.obj
 0002:0000a8a0       ??_C@_08BBBFKDJB@eip?$CLilen?$AA@ 000000018003f8a0     disasm_x86.obj
 0002:0000a8b0       ??_C@_07IEMKKMLN@ip?$CLilen?$AA@ 000000018003f8b0     disasm_x86.obj
 0002:0000a8b8       ??_C@_06FBBLPAHO@rflags?$AA@ 000000018003f8b8     disasm_x86.obj
 0002:0000a8c0       ??_C@_06PDGCFCDO@eflags?$AA@ 000000018003f8c0     disasm_x86.obj
 0002:0000a8c8       ??_C@_05GECEPKB@flags?$AA@ 000000018003f8c8     disasm_x86.obj
 0002:0000a8d0       ??_C@_09KNANAMFB@oword?5ptr?$AA@ 000000018003f8d0     disasm_x86.obj
 0002:0000a8e0       ??_C@_0M@CKBFBDN@INVALID?5PTR?$AA@ 000000018003f8e0     disasm_x86.obj
 0002:0000a8f0       ??_C@_0M@OEIMIAK@10_byte?5ptr?$AA@ 000000018003f8f0     disasm_x86.obj
 0002:0000a900       ??_C@_09JEGKLNAK@qword?5ptr?$AA@ 000000018003f900     disasm_x86.obj
 0002:0000a910       ??_C@_0L@HJCDAPKB@6_byte?5ptr?$AA@ 000000018003f910     disasm_x86.obj
 0002:0000a920       ??_C@_09FFONPHKG@dword?5ptr?$AA@ 000000018003f920     disasm_x86.obj
 0002:0000a930       ??_C@_08IIGCCPHE@word?5ptr?$AA@ 000000018003f930     disasm_x86.obj
 0002:0000a940       ??_C@_08HMGNPGHJ@byte?5ptr?$AA@ 000000018003f940     disasm_x86.obj
 0002:0000a94c       ??_C@_03JIBFAFOF@r15?$AA@  000000018003f94c     disasm_x86.obj
 0002:0000a950       ??_C@_03IBAODEKE@r14?$AA@  000000018003f950     disasm_x86.obj
 0002:0000a954       ??_C@_03MOEPKCGD@r13?$AA@  000000018003f954     disasm_x86.obj
 0002:0000a958       ??_C@_03NHFEJDCC@r12?$AA@  000000018003f958     disasm_x86.obj
 0002:0000a95c       ??_C@_03PMHJMAOB@r11?$AA@  000000018003f95c     disasm_x86.obj
 0002:0000a960       ??_C@_03OFGCPBKA@r10?$AA@  000000018003f960     disasm_x86.obj
 0002:0000a964       ??_C@_02FJEPBHGJ@r9?$AA@   000000018003f964     disasm_x86.obj
 0002:0000a968       ??_C@_02EAFECGCI@r8?$AA@   000000018003f968     disasm_x86.obj
 0002:0000a96c       ??_C@_03OEGMPLOG@rdi?$AA@  000000018003f96c     disasm_x86.obj
 0002:0000a970       ??_C@_03PNAFEOBD@rsi?$AA@  000000018003f970     disasm_x86.obj
 0002:0000a974       ??_C@_03HLOBCOEM@rbp?$AA@  000000018003f974     disasm_x86.obj
 0002:0000a978       ??_C@_03GGAFOHAL@rsp?$AA@  000000018003f978     disasm_x86.obj
 0002:0000a97c       ??_C@_03LDDIKEEE@rbx?$AA@  000000018003f97c     disasm_x86.obj
 0002:0000a980       ??_C@_03LHLFNIPG@rdx?$AA@  000000018003f980     disasm_x86.obj
 0002:0000a984       ??_C@_03LCPKMOHD@rcx?$AA@  000000018003f984     disasm_x86.obj
 0002:0000a988       ??_C@_03LBHOBKBN@rax?$AA@  000000018003f988     disasm_x86.obj
 0002:0000a98c       ??_C@_04NBGJKNFB@r15d?$AA@ 000000018003f98c     disasm_x86.obj
 0002:0000a994       ??_C@_04NAKLMHGG@r14d?$AA@ 000000018003f994     disasm_x86.obj
 0002:0000a99c       ??_C@_04NFOENBOD@r13d?$AA@ 000000018003f99c     disasm_x86.obj
 0002:0000a9a4       ??_C@_04NECGLLNE@r12d?$AA@ 000000018003f9a4     disasm_x86.obj
 0002:0000a9ac       ??_C@_04NGGAAFIN@r11d?$AA@ 000000018003f9ac     disasm_x86.obj
 0002:0000a9b4       ??_C@_04NHKCGPLK@r10d?$AA@ 000000018003f9b4     disasm_x86.obj
 0002:0000a9bc       ??_C@_03DFKGDIEI@r9d?$AA@  000000018003f9bc     disasm_x86.obj
 0002:0000a9c0       ??_C@_03DEGEFCHP@r8d?$AA@  000000018003f9c0     disasm_x86.obj
 0002:0000a9c4       ??_C@_04LAIGOMMD@r15w?$AA@ 000000018003f9c4     disasm_x86.obj
 0002:0000a9cc       ??_C@_04LBEEIGPE@r14w?$AA@ 000000018003f9cc     disasm_x86.obj
 0002:0000a9d4       ??_C@_04LEALJAHB@r13w?$AA@ 000000018003f9d4     disasm_x86.obj
 0002:0000a9dc       ??_C@_04LFMJPKEG@r12w?$AA@ 000000018003f9dc     disasm_x86.obj
 0002:0000a9e4       ??_C@_04LHIPEEBP@r11w?$AA@ 000000018003f9e4     disasm_x86.obj
 0002:0000a9ec       ??_C@_04LGENCOCI@r10w?$AA@ 000000018003f9ec     disasm_x86.obj
 0002:0000a9f4       ??_C@_03FEEJHJNK@r9w?$AA@  000000018003f9f4     disasm_x86.obj
 0002:0000a9f8       ??_C@_03FFILBDON@r8w?$AA@  000000018003f9f8     disasm_x86.obj
 0002:0000a9fc       ??_C@_04IHDDAKNH@r15b?$AA@ 000000018003f9fc     disasm_x86.obj
 0002:0000aa04       ??_C@_04IGPBGAOA@r14b?$AA@ 000000018003fa04     disasm_x86.obj
 0002:0000aa0c       ??_C@_04IDLOHGGF@r13b?$AA@ 000000018003fa0c     disasm_x86.obj
 0002:0000aa14       ??_C@_04ICHMBMFC@r12b?$AA@ 000000018003fa14     disasm_x86.obj
 0002:0000aa1c       ??_C@_04IADKKCAL@r11b?$AA@ 000000018003fa1c     disasm_x86.obj
 0002:0000aa24       ??_C@_04IBPIMIDM@r10b?$AA@ 000000018003fa24     disasm_x86.obj
 0002:0000aa2c       ??_C@_03GDPMJPMO@r9b?$AA@  000000018003fa2c     disasm_x86.obj
 0002:0000aa30       ??_C@_03GCDOPFPJ@r8b?$AA@  000000018003fa30     disasm_x86.obj
 0002:0000aa34       ??_C@_03OELBJELD@dil?$AA@  000000018003fa34     disasm_x86.obj
 0002:0000aa38       ??_C@_03CJHPPLJF@sil?$AA@  000000018003fa38     disasm_x86.obj
 0002:0000aa3c       ??_C@_03NCCNFDJA@bpl?$AA@  000000018003fa3c     disasm_x86.obj
 0002:0000aa40       ??_C@_03DKIIGDGK@spl?$AA@  000000018003fa40     disasm_x86.obj
 0002:0000aa44       ??_C@_03CJKCJEMA@edi?$AA@  000000018003fa44     disasm_x86.obj
 0002:0000aa48       ??_C@_03DAMLCBDF@esi?$AA@  000000018003fa48     disasm_x86.obj
 0002:0000aa4c       ??_C@_03LGCPEBGK@ebp?$AA@  000000018003fa4c     disasm_x86.obj
 0002:0000aa50       ??_C@_03KLMLIICN@esp?$AA@  000000018003fa50     disasm_x86.obj
 0002:0000aa54       ??_C@_03HOPGMLGC@ebx?$AA@  000000018003fa54     disasm_x86.obj
 0002:0000aa58       ??_C@_03HKHLLHNA@edx?$AA@  000000018003fa58     disasm_x86.obj
 0002:0000aa5c       ??_C@_03HPDEKBFF@ecx?$AA@  000000018003fa5c     disasm_x86.obj
 0002:0000aa60       ??_C@_03HMLAHFDL@eax?$AA@  000000018003fa60     disasm_x86.obj
 0002:0000aa64       ??_C@_02HJDGIJBC@sp?$AA@   000000018003fa64     disasm_x86.obj
 0002:0000aa68       ??_C@_02KIIGLGOP@dx?$AA@   000000018003fa68     disasm_x86.obj
 0002:0000aa6c       ??_C@_02KNMJKAGK@cx?$AA@   000000018003fa6c     disasm_x86.obj
 0002:0000aa70       ??_C@_02KOENHEAE@ax?$AA@   000000018003fa70     disasm_x86.obj
 0002:0000aa74       ??_C@_02OGMJNIAM@bh?$AA@   000000018003fa74     disasm_x86.obj
 0002:0000aa78       ??_C@_02OCEEKELO@dh?$AA@   000000018003fa78     disasm_x86.obj
 0002:0000aa7c       ??_C@_02OHALLCDL@ch?$AA@   000000018003fa7c     disasm_x86.obj
 0002:0000aa80       ??_C@_02OEIPGGFF@ah?$AA@   000000018003fa80     disasm_x86.obj
 0002:0000aa84       ??_C@_02ICKFBNAI@bl?$AA@   000000018003fa84     disasm_x86.obj
 0002:0000aa88       ??_C@_02IGCIGBLK@dl?$AA@   000000018003fa88     disasm_x86.obj
 0002:0000aa8c       ??_C@_02IDGHHHDP@cl?$AA@   000000018003fa8c     disasm_x86.obj
 0002:0000aa90       ??_C@_02IAODKDFB@al?$AA@   000000018003fa90     disasm_x86.obj
 0002:0000aa94       ??_C@_05MBDEGLCK@ERROR?$AA@ 000000018003fa94     disasm_x86.obj
 0002:0000aa9c       ??_C@_02EJDENBHN@gs?$AA@   000000018003fa9c     disasm_x86.obj
 0002:0000aaa0       ??_C@_02EIPGLLEK@fs?$AA@   000000018003faa0     disasm_x86.obj
 0002:0000aaa4       ??_C@_02ELHCGPCE@ds?$AA@   000000018003faa4     disasm_x86.obj
 0002:0000aaa8       ??_C@_02FCBLNKNB@ss?$AA@   000000018003faa8     disasm_x86.obj
 0002:0000aaac       ??_C@_02EODNHJKB@cs?$AA@   000000018003faac     disasm_x86.obj
 0002:0000aab0       ??_C@_02EKLAAFBD@es?$AA@   000000018003fab0     disasm_x86.obj
 0002:0000aab4       ??_C@_05MPDNIMBD@st?$CI7?$CJ?$AA@ 000000018003fab4     disasm_x86.obj
 0002:0000aabc       ??_C@_05MOPPOGCE@st?$CI6?$CJ?$AA@ 000000018003fabc     disasm_x86.obj
 0002:0000aac4       ??_C@_05MMLJFIHN@st?$CI5?$CJ?$AA@ 000000018003fac4     disasm_x86.obj
 0002:0000aacc       ??_C@_05MNHLDCEK@st?$CI4?$CJ?$AA@ 000000018003facc     disasm_x86.obj
 0002:0000aad4       ??_C@_05MIDECEMP@st?$CI3?$CJ?$AA@ 000000018003fad4     disasm_x86.obj
 0002:0000aadc       ??_C@_05MJPGEOPI@st?$CI2?$CJ?$AA@ 000000018003fadc     disasm_x86.obj
 0002:0000aae4       ??_C@_05MLLAPAKB@st?$CI1?$CJ?$AA@ 000000018003fae4     disasm_x86.obj
 0002:0000aaec       ??_C@_05MKHCJKJG@st?$CI0?$CJ?$AA@ 000000018003faec     disasm_x86.obj
 0002:0000aaf4       ??_C@_03PNJEALCC@tr7?$AA@  000000018003faf4     disasm_x86.obj
 0002:0000aaf8       ??_C@_03OEIPDKGD@tr6?$AA@  000000018003faf8     disasm_x86.obj
 0002:0000aafc       ??_C@_03MPKCGJKA@tr5?$AA@  000000018003fafc     disasm_x86.obj
 0002:0000ab00       ??_C@_03NGLJFIOB@tr4?$AA@  000000018003fb00     disasm_x86.obj
 0002:0000ab04       ??_C@_03JJPIMOCG@tr3?$AA@  000000018003fb04     disasm_x86.obj
 0002:0000ab08       ??_C@_03IAODPPGH@tr2?$AA@  000000018003fb08     disasm_x86.obj
 0002:0000ab0c       ??_C@_03KLMOKMKE@tr1?$AA@  000000018003fb0c     disasm_x86.obj
 0002:0000ab10       ??_C@_03LCNFJNOF@tr0?$AA@  000000018003fb10     disasm_x86.obj
 0002:0000ab14       ??_C@_03DAFKGEAE@cr7?$AA@  000000018003fb14     disasm_x86.obj
 0002:0000ab18       ??_C@_03CJEBFFEF@cr6?$AA@  000000018003fb18     disasm_x86.obj
 0002:0000ab1c       ??_C@_03CGMAGIG@cr5?$AA@   000000018003fb1c     disasm_x86.obj
 0002:0000ab20       ??_C@_03BLHHDHMH@cr4?$AA@  000000018003fb20     disasm_x86.obj
 0002:0000ab24       ??_C@_03FEDGKBAA@cr3?$AA@  000000018003fb24     disasm_x86.obj
 0002:0000ab28       ??_C@_03ENCNJAEB@cr2?$AA@  000000018003fb28     disasm_x86.obj
 0002:0000ab2c       ??_C@_03GGAAMDIC@cr1?$AA@  000000018003fb2c     disasm_x86.obj
 0002:0000ab30       ??_C@_03HPBLPCMD@cr0?$AA@  000000018003fb30     disasm_x86.obj
 0002:0000ab34       ??_C@_03KNINFMLN@dr7?$AA@  000000018003fb34     disasm_x86.obj
 0002:0000ab38       ??_C@_03LEJGGNPM@dr6?$AA@  000000018003fb38     disasm_x86.obj
 0002:0000ab3c       ??_C@_03JPLLDODP@dr5?$AA@  000000018003fb3c     disasm_x86.obj
 0002:0000ab40       ??_C@_03IGKAAPHO@dr4?$AA@  000000018003fb40     disasm_x86.obj
 0002:0000ab44       ??_C@_03MJOBJJLJ@dr3?$AA@  000000018003fb44     disasm_x86.obj
 0002:0000ab48       ??_C@_03NAPKKIPI@dr2?$AA@  000000018003fb48     disasm_x86.obj
 0002:0000ab4c       ??_C@_03PLNHPLDL@dr1?$AA@  000000018003fb4c     disasm_x86.obj
 0002:0000ab50       ??_C@_03OCMMMKHK@dr0?$AA@  000000018003fb50     disasm_x86.obj
 0002:0000ab54       ??_C@_04OJDLHEHF@xmm7?$AA@ 000000018003fb54     disasm_x86.obj
 0002:0000ab5c       ??_C@_04PACAEFDE@xmm6?$AA@ 000000018003fb5c     disasm_x86.obj
 0002:0000ab64       ??_C@_04NLANBGPH@xmm5?$AA@ 000000018003fb64     disasm_x86.obj
 0002:0000ab6c       ??_C@_04MCBGCHLG@xmm4?$AA@ 000000018003fb6c     disasm_x86.obj
 0002:0000ab74       ??_C@_04INFHLBHB@xmm3?$AA@ 000000018003fb74     disasm_x86.obj
 0002:0000ab7c       ??_C@_04JEEMIADA@xmm2?$AA@ 000000018003fb7c     disasm_x86.obj
 0002:0000ab84       ??_C@_04LPGBNDPD@xmm1?$AA@ 000000018003fb84     disasm_x86.obj
 0002:0000ab8c       ??_C@_04KGHKOCLC@xmm0?$AA@ 000000018003fb8c     disasm_x86.obj
 0002:0000ab94       ??_C@_03MHPPPHHK@mm7?$AA@  000000018003fb94     disasm_x86.obj
 0002:0000ab98       ??_C@_03NOOEMGDL@mm6?$AA@  000000018003fb98     disasm_x86.obj
 0002:0000ab9c       ??_C@_03PFMJJFPI@mm5?$AA@  000000018003fb9c     disasm_x86.obj
 0002:0000aba0       ??_C@_03OMNCKELJ@mm4?$AA@  000000018003fba0     disasm_x86.obj
 0002:0000aba4       ??_C@_03KDJDDCHO@mm3?$AA@  000000018003fba4     disasm_x86.obj
 0002:0000aba8       ??_C@_03LKIIADDP@mm2?$AA@  000000018003fba8     disasm_x86.obj
 0002:0000abac       ??_C@_03JBKFFAPM@mm1?$AA@  000000018003fbac     disasm_x86.obj
 0002:0000abb0       ??_C@_03IILOGBLN@mm0?$AA@  000000018003fbb0     disasm_x86.obj
 0002:0000abb4       ??_C@_02KMALMKFN@bx?$AA@   000000018003fbb4     disasm_x86.obj
 0002:0000abb8       ??_C@_02GENCEAFF@bp?$AA@   000000018003fbb8     disasm_x86.obj
 0002:0000abbc       ??_C@_02PLFPJFPP@di?$AA@   000000018003fbbc     disasm_x86.obj
 0002:0000abc0       ??_C@_02OCDGCAAK@si?$AA@   000000018003fbc0     disasm_x86.obj
 0002:0000abc4       ??_C@_05HOABILOP@bp?$CLdi?$AA@ 000000018003fbc4     disasm_x86.obj
 0002:0000abcc       ??_C@_05GHGIDOBK@bp?$CLsi?$AA@ 000000018003fbcc     disasm_x86.obj
 0002:0000abd4       ??_C@_05EOHBMACO@bx?$CLdi?$AA@ 000000018003fbd4     disasm_x86.obj
 0002:0000abdc       ??_C@_05FHBIHFNL@bx?$CLsi?$AA@ 000000018003fbdc     disasm_x86.obj
 0002:0000abf0       ??_C@_1HE@BMGGFNDD@?$AA?4?$AA?4?$AA?2?$AA?4?$AA?4?$AA?2?$AAs?$AAo?$AAu?$AAr?$AAc?$AAe?$AA?2?$AAe?$AAx?$AAt?$AAe?$AAn?$AAs?$AAi?$AAo?$AAn?$AAs?$AA?2?$AAo?$AAc?$AAi?$AAo?$AAr?$AAa?$AAl?$AAo@ 000000018003fbf0     disasm_x86.obj
 0002:0000ac68       ??_C@_1DK@ELCKAHJC@?$AA?$CB?$AAX?$AA8?$AA6?$AAI?$AAn?$AAs?$AAt?$AAr?$AAu?$AAc?$AAt?$AAi?$AAo?$AAn?$AA?9?$AA?$DO?$AAH?$AAa?$AAs?$AAS?$AAe?$AAl?$AAe?$AAc?$AAt?$AAo?$AAr?$AA?$AA@ 000000018003fc68     disasm_x86.obj
 0002:0000acb0       ??_C@_1MG@IHDHNGEE@?$AAX?$AA8?$AA6?$AAI?$AAn?$AAs?$AAt?$AAr?$AAu?$AAc?$AAt?$AAi?$AAo?$AAn?$AA?9?$AA?$DO?$AAS?$AAr?$AAc?$AAA?$AAd?$AAd?$AAr?$AAe?$AAs?$AAs?$AAI?$AAn?$AAd?$AAe?$AAx?$AA?5@ 000000018003fcb0     disasm_x86.obj
 0002:0000ad78       ??_C@_0N@DOJMCIEL@?$CFd_byte?5ptr?5?$AA@ 000000018003fd78     disasm_x86.obj
 0002:0000ad88       ??_C@_03IKGEINEE@?$CFs?5?$AA@ 000000018003fd88     disasm_x86.obj
 0002:0000ad8c       ??_C@_03DKEJHHJP@?$CFs?3?$AA@ 000000018003fd8c     disasm_x86.obj
 0002:0000ad90       ??_C@_09GIEAPPPC@0x?$CF04I64X?$AA@ 000000018003fd90     disasm_x86.obj
 0002:0000ada0       ??_C@_07HKDBELEK@0x?$CF04lX?$AA@ 000000018003fda0     disasm_x86.obj
 0002:0000ada8       ??_C@_06IFILMILK@0x?$CF04X?$AA@ 000000018003fda8     disasm_x86.obj
 0002:0000adb0       ??_C@_03PICDAGHO@?$FL?$CFs?$AA@ 000000018003fdb0     disasm_x86.obj
 0002:0000adb4       ??_C@_03JDBMKGOC@?$CL?$CFs?$AA@ 000000018003fdb4     disasm_x86.obj
 0002:0000adb8       ??_C@_03COCDEFBB@?$CK?$CFd?$AA@ 000000018003fdb8     disasm_x86.obj
 0002:0000adc0       ??_C@_0L@JDKJMNOG@?$CL0x?$CF02I64X?$AA@ 000000018003fdc0     disasm_x86.obj
 0002:0000add0       ??_C@_0L@HLBMAHKF@?90x?$CF02I64X?$AA@ 000000018003fdd0     disasm_x86.obj
 0002:0000ade0       ??_C@_08NMNFMDCP@?$CL0x?$CF02lX?$AA@ 000000018003fde0     disasm_x86.obj
 0002:0000adf0       ??_C@_08KPMPLKKF@?90x?$CF02lX?$AA@ 000000018003fdf0     disasm_x86.obj
 0002:0000ae00       ??_C@_07NNFEMKBP@?$CL0x?$CF02X?$AA@ 000000018003fe00     disasm_x86.obj
 0002:0000ae08       ??_C@_07BLDLMDJI@?90x?$CF02X?$AA@ 000000018003fe08     disasm_x86.obj
 0002:0000ae10       ??_C@_0N@DFIBHEOL@?$DN?$FL0x?$CF04I64X?$FN?$AA@ 000000018003fe10     disasm_x86.obj
 0002:0000ae20       ??_C@_1EC@IEPHCLMK@?$AAX?$AA8?$AA6?$AAI?$AAn?$AAs?$AAt?$AAr?$AAu?$AAc?$AAt?$AAi?$AAo?$AAn?$AA?9?$AA?$DO?$AAH?$AAa?$AAs?$AAS?$AAr?$AAc?$AAA?$AAd?$AAd?$AAr?$AAe?$AAs?$AAs?$AAi?$AAn?$AAg@ 000000018003fe20     disasm_x86.obj
 0002:0000ae68       ??_C@_1CO@KDAHLCIM@?$AA?$CB?$AA?$CI?$AAO?$AAp?$AAe?$AAr?$AAa?$AAn?$AAd?$AA?9?$AA?$DO?$AAL?$AAe?$AAn?$AAg?$AAt?$AAh?$AA?5?$AA?$CG?$AA?5?$AA1?$AA?$CJ?$AA?$AA@ 000000018003fe68     disasm_x86.obj
 0002:0000ae98       ??_C@_02KEGNLNML@?0?5?$AA@ 000000018003fe98     disasm_x86.obj
 0002:0000aea0       ??_C@_1IK@OCNPKBPL@?$AAX?$AA8?$AA6?$AAI?$AAn?$AAs?$AAt?$AAr?$AAu?$AAc?$AAt?$AAi?$AAo?$AAn?$AA?9?$AA?$DO?$AAH?$AAa?$AAs?$AAS?$AAr?$AAc?$AAA?$AAd?$AAd?$AAr?$AAe?$AAs?$AAs?$AAi?$AAn?$AAg@ 000000018003fea0     disasm_x86.obj
 0002:0000af30       ??_C@_1EA@ELNEMFGI@?$AAI?$AAn?$AAs?$AAt?$AAr?$AAu?$AAc?$AAt?$AAi?$AAo?$AAn?$AA?9?$AA?$DO?$AAA?$AAd?$AAd?$AAr?$AAe?$AAs?$AAs?$AA?5?$AA?$DN?$AA?$DN?$AA?5?$AAA?$AAd?$AAd?$AAr?$AAe?$AAs?$AAs?$AA?$AA@ 000000018003ff30     disasm_x86.obj
 0002:0000af70       ??_C@_1GE@KEPOGOPF@?$AA?$CB?$AAI?$AAn?$AAs?$AAt?$AAr?$AAu?$AAc?$AAt?$AAi?$AAo?$AAn?$AA?9?$AA?$DO?$AAS?$AAt?$AAr?$AAi?$AAn?$AAg?$AAI?$AAn?$AAd?$AAe?$AAx?$AA?5?$AA?$CG?$AA?$CG?$AA?5?$AA?$CB?$AAI?$AAn@ 000000018003ff70     disasm_x86.obj
 0002:0000afd8       ??_C@_0DN@MOEDPHND@?$FL0x?$CF08I64X?$FN?5ANOMALY?3?5REX?5prefix?5@ 000000018003ffd8     disasm_x86.obj
 0002:0000b018       ??_C@_0CO@JFAIAENF@?$FL0x?$CF08I64X?$FN?5ANOMALY?3?5Duplicate?5p@ 0000000180040018     disasm_x86.obj
 0002:0000b048       ??_C@_0CJ@CNEPMDOB@?$FL0x?$CF08I64X?$FN?5ANOMALY?3?5Conflicting@ 0000000180040048     disasm_x86.obj
 0002:0000b078       ??_C@_1BI@EILBKFDF@?$AA?$CB?$AAI?$AAS?$AA_?$AAA?$AAM?$AAD?$AA6?$AA4?$AA?$CI?$AA?$CJ?$AA?$AA@ 0000000180040078     disasm_x86.obj
 0002:0000b090       ??_C@_0DC@BIGFAAMD@?$FL0x?$CF08I64X?$FN?5ANOMALY?3?5Unexpected?5@ 0000000180040090     disasm_x86.obj
 0002:0000b0c8       ??_C@_0DD@LFKBPNGA@?$FL0x?$CF08I64X?$FN?5ANOMALY?3?5Meaningless@ 00000001800400c8     disasm_x86.obj
 0002:0000b100       ??_C@_0DE@PHCMIMLG@?$FL0x?$CF08I64X?$FN?5ERROR?3?5Reached?5maxim@ 0000000180040100     disasm_x86.obj
 0002:0000b138       ??_C@_0DG@ELHJPEOE@?$FL0x?$CF08I64X?$FN?5ANOMALY?3?5Reached?5max@ 0000000180040138     disasm_x86.obj
 0002:0000b170       ??_C@_1KC@CEOINILD@?$AAI?$AAn?$AAs?$AAt?$AAr?$AAu?$AAc?$AAt?$AAi?$AAo?$AAn?$AA?9?$AA?$DO?$AAA?$AAn?$AAo?$AAm?$AAa?$AAl?$AAy?$AAO?$AAc?$AAc?$AAu?$AAr?$AAr?$AAe?$AAd?$AA?5?$AA?$HM?$AA?$HM?$AA?5@ 0000000180040170     disasm_x86.obj
 0002:0000b220       ??_C@_1KG@ECKCMKGL@?$AAI?$AAn?$AAs?$AAt?$AAr?$AAu?$AAc?$AAt?$AAi?$AAo?$AAn?$AA?9?$AA?$DO?$AAA?$AAn?$AAo?$AAm?$AAa?$AAl?$AAy?$AAO?$AAc?$AAc?$AAu?$AAr?$AAr?$AAe?$AAd?$AA?5?$AA?$HM?$AA?$HM?$AA?5@ 0000000180040220     disasm_x86.obj
 0002:0000b2d0       ??_C@_1EC@KJKBFAPC@?$AAX?$AA8?$AA6?$AAI?$AAn?$AAs?$AAt?$AAr?$AAu?$AAc?$AAt?$AAi?$AAo?$AAn?$AA?9?$AA?$DO?$AAA?$AAd?$AAd?$AAr?$AAe?$AAs?$AAs?$AAS?$AAi?$AAz?$AAe?$AA?5?$AA?$DO?$AA?$DN?$AA?5?$AA4@ 00000001800402d0     disasm_x86.obj
 0002:0000b320       ??_C@_1EC@LANPBAIH@?$AAX?$AA8?$AA6?$AAI?$AAn?$AAs?$AAt?$AAr?$AAu?$AAc?$AAt?$AAi?$AAo?$AAn?$AA?9?$AA?$DO?$AAO?$AAp?$AAe?$AAr?$AAa?$AAn?$AAd?$AAS?$AAi?$AAz?$AAe?$AA?5?$AA?$DN?$AA?$DN?$AA?5?$AA2@ 0000000180040320     disasm_x86.obj
 0002:0000b368       ??_C@_0DC@DDMCPKCM@?$FL0x?$CF08I64X?$FN?5ANOMALY?3?5meaningless@ 0000000180040368     disasm_x86.obj
 0002:0000b3a0       ??_C@_1CO@KLKOAJOJ@?$AA?$CB?$AAX?$AA8?$AA6?$AA_?$AAP?$AAR?$AAE?$AAF?$AAI?$AAX?$AA?$CI?$AAX?$AA8?$AA6?$AAO?$AAp?$AAc?$AAo?$AAd?$AAe?$AA?$CJ?$AA?$AA@ 00000001800403a0     disasm_x86.obj
 0002:0000b3d0       ??_C@_0CK@HBDNIMKL@?$FL0x?$CF08I64X?$FN?5ERROR?3?5Invalid?5opcod@ 00000001800403d0     disasm_x86.obj
 0002:0000b400       ??_C@_1DG@HNPJIHHK@?$AA?$CB?$AAI?$AAn?$AAs?$AAt?$AAr?$AAu?$AAc?$AAt?$AAi?$AAo?$AAn?$AA?9?$AA?$DO?$AAO?$AAp?$AAc?$AAo?$AAd?$AAe?$AAL?$AAe?$AAn?$AAg?$AAt?$AAh?$AA?$AA@ 0000000180040400     disasm_x86.obj
 0002:0000b440       ??_C@_1EE@HGJAEJAI@?$AAX?$AA8?$AA6?$AAO?$AAp?$AAc?$AAo?$AAd?$AAe?$AA?9?$AA?$DO?$AAT?$AAa?$AAb?$AAl?$AAe?$AA?5?$AA?$DN?$AA?$DN?$AA?5?$AAX?$AA8?$AA6?$AA_?$AAO?$AAp?$AAc?$AAo?$AAd?$AAe?$AAs?$AA_@ 0000000180040440     disasm_x86.obj
 0002:0000b488       ??_C@_0DK@JGJLGDGN@?$FL0x?$CF08I64X?$FN?5ERROR?3?5Invalid?5two?5b@ 0000000180040488     disasm_x86.obj
 0002:0000b4d0       ??_C@_0EH@EECEFKBC@?$FL0x?$CF08I64X?$FN?5ERROR?3?5Opcode?50x?$CF02X@ 00000001800404d0     disasm_x86.obj
 0002:0000b520       ??_C@_0FB@FDDPFECF@?$FL0x?$CF08I64X?$FN?5ERROR?3?5Opcode?50x?$CF02X@ 0000000180040520     disasm_x86.obj
 0002:0000b578       ??_C@_1DM@BHNOHBCC@?$AAi?$AA?5?$AA?$CB?$AA?$DN?$AA?5?$AAI?$AAn?$AAs?$AAt?$AAr?$AAu?$AAc?$AAt?$AAi?$AAo?$AAn?$AA?9?$AA?$DO?$AAP?$AAr?$AAe?$AAf?$AAi?$AAx?$AAC?$AAo?$AAu?$AAn?$AAt?$AA?$AA@ 0000000180040578     disasm_x86.obj
 0002:0000b5b8       ??_C@_0CP@GNGAMIHE@?$FL0x?$CF08I64X?$FN?5ERROR?3?5SSE?5invalid?5i@ 00000001800405b8     disasm_x86.obj
 0002:0000b5e8       ??_C@_1DC@IMPHOHNF@?$AAX?$AA8?$AA6?$AAI?$AAn?$AAs?$AAt?$AAr?$AAu?$AAc?$AAt?$AAi?$AAo?$AAn?$AA?9?$AA?$DO?$AAH?$AAa?$AAs?$AAM?$AAo?$AAd?$AAR?$AAM?$AA?$AA@ 00000001800405e8     disasm_x86.obj
 0002:0000b620       ??_C@_0FB@DPHDEPIP@?$FL0x?$CF08I64X?$FN?5ERROR?3?5Illegal?5SSE?5i@ 0000000180040620     disasm_x86.obj
 0002:0000b680       ??_C@_1FO@JJBHHCLE@?$AAG?$AAr?$AAo?$AAu?$AAp?$AA?5?$AA?$DO?$AA?$DN?$AA?5?$AA1?$AA3?$AA?5?$AA?$CG?$AA?$CG?$AA?5?$AAG?$AAr?$AAo?$AAu?$AAp?$AA?5?$AA?$DM?$AA?$DN?$AA?5?$AA1?$AA5?$AA?5?$AA?$CG?$AA?$CG?$AA?5?$AAX?$AA8@ 0000000180040680     disasm_x86.obj
 0002:0000b6e0       ??_C@_0GA@DOPBFNKE@?$FL0x?$CF08I64X?$FN?5ERROR?3?5Illegal?5SSE?5i@ 00000001800406e0     disasm_x86.obj
 0002:0000b740       ??_C@_1DE@DCAHOFMN@?$AA?$CB?$AAX?$AA8?$AA6?$AAO?$AAp?$AAc?$AAo?$AAd?$AAe?$AA?9?$AA?$DO?$AAM?$AAn?$AAe?$AAm?$AAo?$AAn?$AAi?$AAc?$AAF?$AAl?$AAa?$AAg?$AAs?$AA?$AA@ 0000000180040740     disasm_x86.obj
 0002:0000b778       ??_C@_1CC@EJGJMFOI@?$AAX?$AA8?$AA6?$AAO?$AAp?$AAc?$AAo?$AAd?$AAe?$AA?9?$AA?$DO?$AAT?$AAa?$AAb?$AAl?$AAe?$AA?$AA@ 0000000180040778     disasm_x86.obj
 0002:0000b7a0       ??_C@_0EI@MGFBBLFJ@?$FL0x?$CF08I64X?$FN?5ERROR?3?5Invalid?5group@ 00000001800407a0     disasm_x86.obj
 0002:0000b7f0       ??_C@_1EE@IJALJAKN@?$AA?$CB?$AAX?$AA8?$AA6?$AA_?$AAS?$AAP?$AAE?$AAC?$AAI?$AAA?$AAL?$AA_?$AAE?$AAX?$AAT?$AAE?$AAN?$AAS?$AAI?$AAO?$AAN?$AA?$CI?$AAX?$AA8?$AA6?$AAO?$AAp?$AAc?$AAo?$AAd?$AAe@ 00000001800407f0     disasm_x86.obj
 0002:0000b838       ??_C@_1DC@BOKHOBHO@?$AAG?$AAr?$AAo?$AAu?$AAp?$AA?5?$AA?$DO?$AA?5?$AA0?$AA?5?$AA?$CG?$AA?$CG?$AA?5?$AAG?$AAr?$AAo?$AAu?$AAp?$AA?5?$AA?$DM?$AA?$DN?$AA?5?$AA1?$AA9?$AA?$AA@ 0000000180040838     disasm_x86.obj
 0002:0000b870       ??_C@_1CI@JAIOBBNN@?$AAX?$AA8?$AA6?$AAO?$AAp?$AAc?$AAo?$AAd?$AAe?$AA?9?$AA?$DO?$AAM?$AAn?$AAe?$AAm?$AAo?$AAn?$AAi?$AAc?$AA?$AA@ 0000000180040870     disasm_x86.obj
 0002:0000b8a0       ??_C@_0EA@MBDBFKNI@?$FL0x?$CF08I64X?$FN?5ERROR?3?5Opcode?50x?$CF02X@ 00000001800408a0     disasm_x86.obj
 0002:0000b8e0       ??_C@_0EK@NCNHDAFH@?$FL0x?$CF08I64X?$FN?5ERROR?3?5Opcode?50x?$CF02X@ 00000001800408e0     disasm_x86.obj
 0002:0000b930       ??_C@_0EB@JMJFMHEG@?$FL0x?$CF08I64X?$FN?5ERROR?3?5Invalid?5group@ 0000000180040930     disasm_x86.obj
 0002:0000b978       ??_C@_1DC@POHIJGEN@?$AAG?$AAr?$AAo?$AAu?$AAp?$AA?5?$AA?$DO?$AA?5?$AA0?$AA?5?$AA?$CG?$AA?$CG?$AA?5?$AAG?$AAr?$AAo?$AAu?$AAp?$AA?5?$AA?$DM?$AA?$DN?$AA?5?$AA1?$AA7?$AA?$AA@ 0000000180040978     disasm_x86.obj
 0002:0000b9b0       ??_C@_1DO@EIMMGACE@?$AAI?$AAn?$AAs?$AAt?$AAr?$AAu?$AAc?$AAt?$AAi?$AAo?$AAn?$AA?9?$AA?$DO?$AAO?$AAp?$AAc?$AAo?$AAd?$AAe?$AAL?$AAe?$AAn?$AAg?$AAt?$AAh?$AA?5?$AA?$DN?$AA?$DN?$AA?5?$AA2?$AA?$AA@ 00000001800409b0     disasm_x86.obj
 0002:0000b9f0       ??_C@_0EA@PKEKDIGC@?$FL0x?$CF08I64X?$FN?5ERROR?3?5Illegal?5opcod@ 00000001800409f0     disasm_x86.obj
 0002:0000ba30       ??_C@_0FG@CEPBHPBD@?$FL0x?$CF08I64X?$FN?5ERROR?3?5Invalid?5FPU?5o@ 0000000180040a30     disasm_x86.obj
 0002:0000ba90       ??_C@_0EG@CHHFEOMK@?$FL0x?$CF08I64X?$FN?5ANOMALY?3?5operand?5siz@ 0000000180040a90     disasm_x86.obj
 0002:0000bae0       ??_C@_1LK@FLEODNPE@?$AAI?$AAn?$AAs?$AAt?$AAr?$AAu?$AAc?$AAt?$AAi?$AAo?$AAn?$AA?9?$AA?$DO?$AAO?$AAp?$AAc?$AAo?$AAd?$AAe?$AAL?$AAe?$AAn?$AAg?$AAt?$AAh?$AA?5?$AA?$DN?$AA?$DN?$AA?5?$AA2?$AA?5?$AA?$CG@ 0000000180040ae0     disasm_x86.obj
 0002:0000bba0       ??_C@_1GM@LFDDJGPD@?$AAA?$AAd?$AAd?$AAr?$AAe?$AAs?$AAs?$AA?5?$AA?$DN?$AA?$DN?$AA?5?$AAI?$AAn?$AAs?$AAt?$AAr?$AAu?$AAc?$AAt?$AAi?$AAo?$AAn?$AA?9?$AA?$DO?$AAA?$AAd?$AAd?$AAr?$AAe?$AAs?$AAs?$AA?5@ 0000000180040ba0     disasm_x86.obj
 0002:0000bc10       ??_C@_0EB@DHKHCLFC@?$FL0x?$CF08I64X?$FN?5ERROR?3?5Illegal?5opcod@ 0000000180040c10     disasm_x86.obj
 0002:0000bc60       ??_C@_1GI@OCFCMJHP@?$AAI?$AAn?$AAs?$AAt?$AAr?$AAu?$AAc?$AAt?$AAi?$AAo?$AAn?$AA?9?$AA?$DO?$AAL?$AAe?$AAn?$AAg?$AAt?$AAh?$AA?5?$AA?$DO?$AA?$DN?$AA?5?$AA4?$AA?5?$AA?$CL?$AA?5?$AAI?$AAn?$AAs?$AAt?$AAr@ 0000000180040c60     disasm_x86.obj
 0002:0000bcc8       ??_C@_1DA@PPHGFJDL@?$AA?$CB?$AAX?$AA8?$AA6?$AA_?$AAI?$AAN?$AAV?$AAA?$AAL?$AAI?$AAD?$AA?$CI?$AAX?$AA8?$AA6?$AAO?$AAp?$AAc?$AAo?$AAd?$AAe?$AA?$CJ?$AA?$AA@ 0000000180040cc8     disasm_x86.obj
 0002:0000bd00       ??_C@_0FB@GLEKIOKA@?$FL0x?$CF08I64X?$FN?5ERROR?3?5Instruction?5?$CC@ 0000000180040d00     disasm_x86.obj
 0002:0000bd60       ??_C@_0FA@KBMCDACK@?$FL0x?$CF08I64X?$FN?5ERROR?3?5Instruction?5?$CC@ 0000000180040d60     disasm_x86.obj
 0002:0000bdb0       ??_C@_1GK@ENFIMDFN@?$AAI?$AAn?$AAs?$AAt?$AAr?$AAu?$AAc?$AAt?$AAi?$AAo?$AAn?$AA?9?$AA?$DO?$AAO?$AAp?$AAc?$AAo?$AAd?$AAe?$AAL?$AAe?$AAn?$AAg?$AAt?$AAh?$AA?5?$AA?$CG?$AA?$CG?$AA?5?$AA?$CB?$AAX?$AA8@ 0000000180040db0     disasm_x86.obj
 0002:0000be20       ??_C@_1CI@POIAHDCF@?$AAI?$AAn?$AAs?$AAt?$AAr?$AAu?$AAc?$AAt?$AAi?$AAo?$AAn?$AA?9?$AA?$DO?$AAG?$AAr?$AAo?$AAu?$AAp?$AAs?$AA?$AA@ 0000000180040e20     disasm_x86.obj
 0002:0000be50       ??_C@_1FM@FCBEHCDA@?$AA?$CI?$AAU?$AA3?$AA2?$AA?$CJ?$AAI?$AAn?$AAs?$AAt?$AAr?$AAu?$AAc?$AAt?$AAi?$AAo?$AAn?$AA?9?$AA?$DO?$AAT?$AAy?$AAp?$AAe?$AA?5?$AA?$DO?$AA?$DN?$AA?5?$AAI?$AAn?$AAs?$AAt?$AAr?$AAu@ 0000000180040e50     disasm_x86.obj
 0002:0000beb0       ??_C@_0EB@CNMOFEFK@?$FL0x?$CF08I64X?$FN?5ANOMALY?3?5operand?5siz@ 0000000180040eb0     disasm_x86.obj
 0002:0000bef8       ??_C@_1CI@JLFCCHJO@?$AAI?$AAn?$AAs?$AAt?$AAr?$AAu?$AAc?$AAt?$AAi?$AAo?$AAn?$AA?9?$AA?$DO?$AAR?$AAe?$AAp?$AAe?$AAa?$AAt?$AA?$AA@ 0000000180040ef8     disasm_x86.obj
 0002:0000bf20       ??_C@_0DB@CIMOFJJB@?$FL0x?$CF08I64X?$FN?5ERROR?3?5rep?1repne?5use@ 0000000180040f20     disasm_x86.obj
 0002:0000bf60       ??_C@_1EC@NPGCPAOD@?$AAX?$AA8?$AA6?$AAI?$AAn?$AAs?$AAt?$AAr?$AAu?$AAc?$AAt?$AAi?$AAo?$AAn?$AA?9?$AA?$DO?$AAO?$AAp?$AAe?$AAr?$AAa?$AAn?$AAd?$AAS?$AAi?$AAz?$AAe?$AA?5?$AA?$DN?$AA?$DN?$AA?5?$AA8@ 0000000180040f60     disasm_x86.obj
 0002:0000bfb0       ??_C@_0EK@HKAFFJMC@?$FL0x?$CF08I64X?$FN?5ANOMALY?3?5use?5of?5oper@ 0000000180040fb0     disasm_x86.obj
 0002:0000c000       ??_C@_0EP@DPPGCNJN@?$FL0x?$CF08I64X?$FN?5ANOMALY?3?5use?5of?5REX?4@ 0000000180041000     disasm_x86.obj
 0002:0000c050       ??_C@_1EC@HOIDPEFI@?$AAX?$AA8?$AA6?$AAI?$AAn?$AAs?$AAt?$AAr?$AAu?$AAc?$AAt?$AAi?$AAo?$AAn?$AA?9?$AA?$DO?$AAO?$AAp?$AAe?$AAr?$AAa?$AAn?$AAd?$AAS?$AAi?$AAz?$AAe?$AA?5?$AA?$DO?$AA?$DN?$AA?5?$AA4@ 0000000180041050     disasm_x86.obj
 0002:0000c098       ??_C@_0DP@JFNKJNJF@?$FL0x?$CF08I64X?$FN?5ANOMALY?3?5REPNE?5shoul@ 0000000180041098     disasm_x86.obj
 0002:0000c0e0       ??_C@_0EF@PMOEFICL@?$FL0x?$CF08I64X?$FN?5ANOMALY?3?5Repeat?5pref@ 00000001800410e0     disasm_x86.obj
 0002:0000c128       ??_C@_1DE@JAKIIKBA@?$AA?$CB?$AAI?$AAn?$AAs?$AAt?$AAr?$AAu?$AAc?$AAt?$AAi?$AAo?$AAn?$AA?9?$AA?$DO?$AAS?$AAt?$AAr?$AAi?$AAn?$AAg?$AAI?$AAn?$AAd?$AAe?$AAx?$AA?$AA@ 0000000180041128     disasm_x86.obj
 0002:0000c15c       ??_C@_05OJKCIHFO@repe?5?$AA@ 000000018004115c     disasm_x86.obj
 0002:0000c164       ??_C@_04HHECPAIO@rep?5?$AA@ 0000000180041164     disasm_x86.obj
 0002:0000c16c       ??_C@_06LIOODCPM@repne?5?$AA@ 000000018004116c     disasm_x86.obj
 0002:0000c174       ??_C@_05NCPMCJGP@lock?5?$AA@ 0000000180041174     disasm_x86.obj
 0002:0000c180       ??_C@_09PAJNOOAC@hinttake?5?$AA@ 0000000180041180     disasm_x86.obj
 0002:0000c190       ??_C@_09BHMMGPAL@hintskip?5?$AA@ 0000000180041190     disasm_x86.obj
 0002:0000c19c       ??_C@_02DKCKIIND@?$CFs?$AA@ 000000018004119c     disasm_x86.obj
 0002:0000c1a0       ??_C@_1FC@NAELCEJO@?$AA?$CB?$AA?$CI?$AAI?$AAn?$AAs?$AAt?$AAr?$AAu?$AAc?$AAt?$AAi?$AAo?$AAn?$AA?9?$AA?$DO?$AAO?$AAp?$AAe?$AAr?$AAa?$AAn?$AAd?$AAs?$AA?$FL?$AA0?$AA?$FN?$AA?4?$AAF?$AAl?$AAa?$AAg?$AAs@ 00000001800411a0     disasm_x86.obj
 0002:0000c200       ??_C@_1FC@PEMJHFKI@?$AA?$CB?$AA?$CI?$AAI?$AAn?$AAs?$AAt?$AAr?$AAu?$AAc?$AAt?$AAi?$AAo?$AAn?$AA?9?$AA?$DO?$AAO?$AAp?$AAe?$AAr?$AAa?$AAn?$AAd?$AAs?$AA?$FL?$AA1?$AA?$FN?$AA?4?$AAF?$AAl?$AAa?$AAg?$AAs@ 0000000180041200     disasm_x86.obj
 0002:0000c260       ??_C@_1FC@JJEPIGPC@?$AA?$CB?$AA?$CI?$AAI?$AAn?$AAs?$AAt?$AAr?$AAu?$AAc?$AAt?$AAi?$AAo?$AAn?$AA?9?$AA?$DO?$AAO?$AAp?$AAe?$AAr?$AAa?$AAn?$AAd?$AAs?$AA?$FL?$AA2?$AA?$FN?$AA?4?$AAF?$AAl?$AAa?$AAg?$AAs@ 0000000180041260     disasm_x86.obj
 0002:0000c2c0       ??_C@_0EC@IPLGHFD@?$FL0x?$CF08I64X?$FN?5ANOMALY?3?5address?5siz@ 00000001800412c0     disasm_x86.obj
 0002:0000c308       ??_C@_0DP@BDNDKHJA@?$FL0x?$CF08I64X?$FN?5ANOMALY?3?5segment?5ove@ 0000000180041308     disasm_x86.obj
 0002:0000c348       ??_C@_0DD@LGBGIBBC@?$FL0x?$CF08I64X?$FN?5ANOMALY?3?5use?5of?5unex@ 0000000180041348     disasm_x86.obj
 0002:0000c380       ??_C@_0DD@KEKDCOPM@?$FL0x?$CF08I64X?$FN?5ANOMALY?3?5use?5of?5unex@ 0000000180041380     disasm_x86.obj
 0002:0000c3b8       ??_C@_0DD@BMBPEJJJ@?$FL0x?$CF08I64X?$FN?5ANOMALY?3?5use?5of?5unex@ 00000001800413b8     disasm_x86.obj
 0002:0000c3f0       ??_C@_0DA@HPJBODJA@?$FL0x?$CF08I64X?$FN?5ANOMALY?3?5unexpected?5@ 00000001800413f0     disasm_x86.obj
 0002:0000c420       ??_C@_1JC@KNOKMBKO@?$AAI?$AAn?$AAs?$AAt?$AAr?$AAu?$AAc?$AAt?$AAi?$AAo?$AAn?$AA?9?$AA?$DO?$AAT?$AAy?$AAp?$AAe?$AA?5?$AA?$DN?$AA?$DN?$AA?5?$AAI?$AAT?$AAY?$AAP?$AAE?$AA_?$AAB?$AAR?$AAA?$AAN?$AAC@ 0000000180041420     disasm_x86.obj
 0002:0000c4c0       ??_C@_0EE@GBFCIHMJ@?$FL0x?$CF08I64X?$FN?5ANOMALY?3?5Segment?5ove@ 00000001800414c0     disasm_x86.obj
 0002:0000c510       ??_C@_0EE@EDCKKPBM@?$FL0x?$CF08I64X?$FN?5ERROR?3?5Illegal?5use?5o@ 0000000180041510     disasm_x86.obj
 0002:0000c558       ??_C@_07EFBLMOEL@COND?3?$HL?5?$AA@ 0000000180041558     disasm_x86.obj
 0002:0000c560       ??_C@_02OMLKHGOL@L?5?$AA@  0000000180041560     disasm_x86.obj
 0002:0000c564       ??_C@_03EJHEFPOL@NL?5?$AA@ 0000000180041564     disasm_x86.obj
 0002:0000c568       ??_C@_03OMKMKMOP@LE?5?$AA@ 0000000180041568     disasm_x86.obj
 0002:0000c56c       ??_C@_04OMAJGCMG@NLE?5?$AA@ 000000018004156c     disasm_x86.obj
 0002:0000c574       ??_C@_02OAOPJJAK@G?5?$AA@  0000000180041574     disasm_x86.obj
 0002:0000c578       ??_C@_03EFCBLAAK@NG?5?$AA@ 0000000180041578     disasm_x86.obj
 0002:0000c57c       ??_C@_03DLKNCLOO@GE?5?$AA@ 000000018004157c     disasm_x86.obj
 0002:0000c580       ??_C@_04DLAIOFMH@NGE?5?$AA@ 0000000180041580     disasm_x86.obj
 0002:0000c588       ??_C@_02OEGCOFLI@A?5?$AA@  0000000180041588     disasm_x86.obj
 0002:0000c58c       ??_C@_03EBKMMMLI@NA?5?$AA@ 000000018004158c     disasm_x86.obj
 0002:0000c590       ??_C@_03BOMGHEDC@AE?5?$AA@ 0000000180041590     disasm_x86.obj
 0002:0000c594       ??_C@_04BOGDLKBL@NAE?5?$AA@ 0000000180041594     disasm_x86.obj
 0002:0000c59c       ??_C@_02OGCEFLOB@B?5?$AA@  000000018004159c     disasm_x86.obj
 0002:0000c5a0       ??_C@_03EDOKHCOB@NB?5?$AA@ 00000001800415a0     disasm_x86.obj
 0002:0000c5a4       ??_C@_03MHDNLNM@BE?5?$AA@  00000001800415a4     disasm_x86.obj
 0002:0000c5a8       ??_C@_04MNGBFPF@NBE?5?$AA@ 00000001800415a8     disasm_x86.obj
 0002:0000c5b0       ??_C@_02ODGLENGE@E?5?$AA@  00000001800415b0     disasm_x86.obj
 0002:0000c5b4       ??_C@_03EGKFGEGE@NE?5?$AA@ 00000001800415b4     disasm_x86.obj
 0002:0000c5b8       ??_C@_02OHOGDBNG@C?5?$AA@  00000001800415b8     disasm_x86.obj
 0002:0000c5bc       ??_C@_03ECCIBING@NC?5?$AA@ 00000001800415bc     disasm_x86.obj
 0002:0000c5c0       ??_C@_02PEBBKJCJ@Z?5?$AA@  00000001800415c0     disasm_x86.obj
 0002:0000c5c4       ??_C@_03FBNPIACJ@NZ?5?$AA@ 00000001800415c4     disasm_x86.obj
 0002:0000c5c8       ??_C@_02PJIGCMPP@P?5?$AA@  00000001800415c8     disasm_x86.obj
 0002:0000c5cc       ??_C@_03FMEIAFPP@NP?5?$AA@ 00000001800415cc     disasm_x86.obj
 0002:0000c5d0       ??_C@_03PGGDEEMI@PE?5?$AA@ 00000001800415d0     disasm_x86.obj
 0002:0000c5d4       ??_C@_03PLPEMBBO@PO?5?$AA@ 00000001800415d4     disasm_x86.obj
 0002:0000c5d8       ??_C@_02OOPMMILC@O?5?$AA@  00000001800415d8     disasm_x86.obj
 0002:0000c5dc       ??_C@_03ELDCOBLC@NO?5?$AA@ 00000001800415dc     disasm_x86.obj
 0002:0000c5e0       ??_C@_02PPENOOBE@U?5?$AA@  00000001800415e0     disasm_x86.obj
 0002:0000c5e4       ??_C@_03FKIDMHBE@NU?5?$AA@ 00000001800415e4     disasm_x86.obj
 0002:0000c5e8       ??_C@_02PLMAJCKG@S?5?$AA@  00000001800415e8     disasm_x86.obj
 0002:0000c5ec       ??_C@_03FOAOLLKG@NS?5?$AA@ 00000001800415ec     disasm_x86.obj
 0002:0000c5f0       ??_C@_02OCKJCHFD@D?5?$AA@  00000001800415f0     disasm_x86.obj
 0002:0000c5f4       ??_C@_06LABOJKKJ@SET?3?$HL?5?$AA@ 00000001800415f4     disasm_x86.obj
 0002:0000c5fc       ??_C@_02OKHBLEAA@I?5?$AA@  00000001800415fc     disasm_x86.obj
 0002:0000c600       ??_C@_06HPIPKCAP@CLR?3?$HL?5?$AA@ 0000000180041600     disasm_x86.obj
 0002:0000c608       ??_C@_08DFDINIFC@FPU_ALL?5?$AA@ 0000000180041608     disasm_x86.obj
 0002:0000c618       ??_C@_07IILEPFPE@FPU_C0?5?$AA@ 0000000180041618     disasm_x86.obj
 0002:0000c620       ??_C@_07IJHGJPMD@FPU_C1?5?$AA@ 0000000180041620     disasm_x86.obj
 0002:0000c628       ??_C@_07ILDACBJK@FPU_C2?5?$AA@ 0000000180041628     disasm_x86.obj
 0002:0000c630       ??_C@_07IKPCELKN@FPU_C3?5?$AA@ 0000000180041630     disasm_x86.obj
 0002:0000c638       ??_C@_06EGIEMJNO@MOD?3?$HL?5?$AA@ 0000000180041638     disasm_x86.obj
 0002:0000c640       ??_C@_0L@HDACCJFD@FLAGS_ALL?5?$AA@ 0000000180041640     disasm_x86.obj
 0002:0000c650       ??_C@_0O@DBHGNPOH@FLAGS_COMMON?5?$AA@ 0000000180041650     disasm_x86.obj
 0002:0000c660       ??_C@_06PDGCGKBD@TOG?3?$HL?5?$AA@ 0000000180041660     disasm_x86.obj
 0002:0000c668       ??_C@_01EEMJAFIK@?6?$AA@   0000000180041668     disasm_x86.obj
 0002:0000c670       ??_C@_0DO@HAFPLMCG@?$FL0x?$CF08I64X?$FN?5ERROR?3?5maximum?5instr@ 0000000180041670     disasm_x86.obj
 0002:0000c6b0       ??_C@_0DP@LFBIMOJM@?$FL0x?$CF08I64X?$FN?5ANOMALY?3?5branch?5into@ 00000001800416b0     disasm_x86.obj
 0002:0000c6f0       ??_C@_1DO@PACFHDFK@?$AAI?$AAn?$AAs?$AAt?$AAr?$AAu?$AAc?$AAt?$AAi?$AAo?$AAn?$AA?9?$AA?$DO?$AAO?$AAp?$AAe?$AAr?$AAa?$AAn?$AAd?$AAC?$AAo?$AAu?$AAn?$AAt?$AA?5?$AA?$DN?$AA?$DN?$AA?5?$AA1?$AA?$AA@ 00000001800416f0     disasm_x86.obj
 0002:0000c730       ??_C@_1EO@IGPAHGOH@?$AA?$CB?$AAI?$AAn?$AAs?$AAt?$AAr?$AAu?$AAc?$AAt?$AAi?$AAo?$AAn?$AA?9?$AA?$DO?$AAC?$AAo?$AAd?$AAe?$AAB?$AAr?$AAa?$AAn?$AAc?$AAh?$AA?4?$AAA?$AAd?$AAd?$AAr?$AAe?$AAs?$AAs@ 0000000180041730     disasm_x86.obj
 0002:0000c780       ??_C@_1DC@LCKHAANK@?$AAO?$AAp?$AAe?$AAr?$AAa?$AAn?$AAd?$AA1?$AA?9?$AA?$DO?$AAL?$AAe?$AAn?$AAg?$AAt?$AAh?$AA?5?$AA?$DM?$AA?$DN?$AA?5?$AA0?$AAx?$AAF?$AAF?$AA?$AA@ 0000000180041780     disasm_x86.obj
 0002:0000c7b8       ??_C@_1BO@BNMOHHCM@?$AAt?$AAm?$AAp?$AAS?$AAc?$AAa?$AAl?$AAe?$AA?5?$AA?$DM?$AA?$DN?$AA?5?$AA1?$AA6?$AA?$AA@ 00000001800417b8     disasm_x86.obj
 0002:0000c7d8       ??_C@_1DE@CCHCGKPE@?$AAX?$AA8?$AA6?$AAI?$AAn?$AAs?$AAt?$AAr?$AAu?$AAc?$AAt?$AAi?$AAo?$AAn?$AA?9?$AA?$DO?$AAS?$AAc?$AAa?$AAl?$AAe?$AA?5?$AA?$DO?$AA?5?$AA1?$AA?$AA@ 00000001800417d8     disasm_x86.obj
 0002:0000c810       ??_C@_1DK@PALKBIPD@?$AAO?$AAp?$AAe?$AAr?$AAa?$AAn?$AAd?$AA1?$AA?9?$AA?$DO?$AAF?$AAl?$AAa?$AAg?$AAs?$AA?5?$AA?$CG?$AA?5?$AAO?$AAP?$AA_?$AAA?$AAD?$AAD?$AAR?$AAE?$AAS?$AAS?$AA?$AA@ 0000000180041810     disasm_x86.obj
 0002:0000c850       ??_C@_1EA@CHOCPDBD@?$AAO?$AAp?$AAe?$AAr?$AAa?$AAn?$AAd?$AA1?$AA?9?$AA?$DO?$AAT?$AAy?$AAp?$AAe?$AA?5?$AA?$DN?$AA?$DN?$AA?5?$AAO?$AAP?$AAT?$AAY?$AAP?$AAE?$AA_?$AAO?$AAF?$AAF?$AAS?$AAE?$AAT?$AA?$AA@ 0000000180041850     disasm_x86.obj
 0002:0000c890       ??_C@_1FA@BBJPAMME@?$AA?$CB?$AA?$CI?$AAO?$AAp?$AAe?$AAr?$AAa?$AAn?$AAd?$AA1?$AA?9?$AA?$DO?$AAF?$AAl?$AAa?$AAg?$AAs?$AA?5?$AA?$CG?$AA?5?$AA?$CI?$AAO?$AAP?$AA_?$AAG?$AAL?$AAO?$AAB?$AAA?$AAL?$AA?$HM?$AAO@ 0000000180041890     disasm_x86.obj
 0002:0000c8e0       ??_C@_1DI@LMLNDEGA@?$AA?$CB?$AAI?$AAn?$AAs?$AAt?$AAr?$AAu?$AAc?$AAt?$AAi?$AAo?$AAn?$AA?9?$AA?$DO?$AAD?$AAa?$AAt?$AAa?$AAD?$AAs?$AAt?$AA?4?$AAC?$AAo?$AAu?$AAn?$AAt?$AA?$AA@ 00000001800418e0     disasm_x86.obj
 0002:0000c918       ??_C@_1DI@EJLDEJNM@?$AA?$CB?$AAI?$AAn?$AAs?$AAt?$AAr?$AAu?$AAc?$AAt?$AAi?$AAo?$AAn?$AA?9?$AA?$DO?$AAD?$AAa?$AAt?$AAa?$AAS?$AAr?$AAc?$AA?4?$AAC?$AAo?$AAu?$AAn?$AAt?$AA?$AA@ 0000000180041918     disasm_x86.obj
 0002:0000c950       ??_C@_1DA@HHOALCGA@?$AAO?$AAp?$AAe?$AAr?$AAa?$AAn?$AAd?$AA?9?$AA?$DO?$AAL?$AAe?$AAn?$AAg?$AAt?$AAh?$AA?5?$AA?$DM?$AA?$DN?$AA?5?$AA0?$AAx?$AAF?$AAF?$AA?$AA@ 0000000180041950     disasm_x86.obj
 0002:0000c980       ??_C@_1EI@ELIKMHCH@?$AAX?$AA8?$AA6?$AAI?$AAn?$AAs?$AAt?$AAr?$AAu?$AAc?$AAt?$AAi?$AAo?$AAn?$AA?9?$AA?$DO?$AAH?$AAa?$AAs?$AAF?$AAu?$AAl?$AAl?$AAD?$AAi?$AAs?$AAp?$AAl?$AAa?$AAc?$AAe?$AAm@ 0000000180041980     disasm_x86.obj
 0002:0000c9d0       ??_C@_1GG@JLKHMPJA@?$AAI?$AAn?$AAs?$AAt?$AAr?$AAu?$AAc?$AAt?$AAi?$AAo?$AAn?$AA?9?$AA?$DO?$AAO?$AAp?$AAe?$AAr?$AAa?$AAn?$AAd?$AAC?$AAo?$AAu?$AAn?$AAt?$AA?5?$AA?$DN?$AA?$DN?$AA?5?$AA1?$AA?5?$AA?$CG@ 00000001800419d0     disasm_x86.obj
 0002:0000ca38       ??_C@_0DF@ECGCEGJG@?$FL0x?$CF08I64X?$FN?5ANOMALY?3?5Unexpected?5@ 0000000180041a38     disasm_x86.obj
 0002:0000ca70       ??_C@_0DC@DNFJMOEL@?$FL0x?$CF08I64X?$FN?5ANOMALY?3?5ENTER?5has?5i@ 0000000180041a70     disasm_x86.obj
 0002:0000caa8       ??_C@_0DC@DMJLKEHM@?$FL0x?$CF08I64X?$FN?5ANOMALY?3?5ENTER?5has?5i@ 0000000180041aa8     disasm_x86.obj
 0002:0000cae0       ??_C@_0DA@MNJBBLPL@?$FL0x?$CF08I64X?$FN?5ANOMALY?3?5ret?5has?5inv@ 0000000180041ae0     disasm_x86.obj
 0002:0000cb10       ??_C@_0DB@OLIEOOHO@?$FL0x?$CF08I64X?$FN?5ANOMALY?3?5retf?5has?5in@ 0000000180041b10     disasm_x86.obj
 0002:0000cb48       ??_C@_0DO@IKEJLDEJ@?$FL0x?$CF08I64X?$FN?5ANOMALY?3?5Instruction@ 0000000180041b48     disasm_x86.obj
 0002:0000cb88       ??_C@_0DL@OOLGHDJA@?$FL0x?$CF08I64X?$FN?5ANOMALY?3?5?$CC?$CFs?$CC?5has?5in@ 0000000180041b88     disasm_x86.obj
 0002:0000cbc8       ??_C@_1DC@NKFIGELP@?$AA?$CB?$AA?$CI?$AAO?$AAp?$AAe?$AAr?$AAa?$AAn?$AAd?$AA?9?$AA?$DO?$AAF?$AAl?$AAa?$AAg?$AAs?$AA?5?$AA?$CG?$AA?5?$AA0?$AAx?$AA7?$AAF?$AA?$CJ?$AA?$AA@ 0000000180041bc8     disasm_x86.obj
 0002:0000cbfc       ??_C@_03BOIJJBH@?$DM0?$DO?$AA@ 0000000180041bfc     disasm_x86.obj
 0002:0000cc00       ??_C@_1FC@MBOMGIBJ@?$AAO?$AAp?$AAe?$AAr?$AAa?$AAn?$AAd?$AA?9?$AA?$DO?$AAF?$AAl?$AAa?$AAg?$AAs?$AA?5?$AA?$CG?$AA?5?$AA?$CI?$AAO?$AAP?$AA_?$AAE?$AAX?$AAE?$AAC?$AA?$HM?$AAO?$AAP?$AA_?$AAS?$AAR?$AAC@ 0000000180041c00     disasm_x86.obj
 0002:0000cc54       ??_C@_03CKPDCA@?$DM1?$DO?$AA@ 0000000180041c54     disasm_x86.obj
 0002:0000cc58       ??_C@_06ELCFKOOK@?$DM0xFF?$DO?$AA@ 0000000180041c58     disasm_x86.obj
 0002:0000cc60       ??_C@_09EFLABJLB@?$DMTSC_MSR?$DO?$AA@ 0000000180041c60     disasm_x86.obj
 0002:0000cc70       ??_C@_08MOCCIJIG@?$DMCS_MSR?$DO?$AA@ 0000000180041c70     disasm_x86.obj
 0002:0000cc80       ??_C@_09EFEGOEDD@?$DMEIP_MSR?$DO?$AA@ 0000000180041c80     disasm_x86.obj
 0002:0000cc90       ??_C@_09KIDNMJNA@?$DMESP_MSR?$DO?$AA@ 0000000180041c90     disasm_x86.obj
 0002:0000cca0       ??_C@_0P@PHOLFMNK@?$DMKRNLBASE_MSR?$DO?$AA@ 0000000180041ca0     disasm_x86.obj
 0002:0000ccb0       ??_C@_0L@DABGOHCB@?$DMSTAR_MSR?$DO?$AA@ 0000000180041cb0     disasm_x86.obj
 0002:0000ccc0       ??_C@_0M@FMLNENBC@?$DMCSTAR_MSR?$DO?$AA@ 0000000180041cc0     disasm_x86.obj
 0002:0000ccd0       ??_C@_1BG@DMKKEFKI@?$AAI?$AAS?$AA_?$AAA?$AAM?$AAD?$AA6?$AA4?$AA?$CI?$AA?$CJ?$AA?$AA@ 0000000180041cd0     disasm_x86.obj
 0002:0000cce8       ??_C@_0M@MPEFLJNE@?$DMLSTAR_MSR?$DO?$AA@ 0000000180041ce8     disasm_x86.obj
 0002:0000ccf8       ??_C@_0M@DOACLIHO@?$DMFMASK_MSR?$DO?$AA@ 0000000180041cf8     disasm_x86.obj
 0002:0000cd08       ??_C@_1CC@DBDJOCHB@?$AAO?$AAp?$AAe?$AAr?$AAa?$AAn?$AAd?$AAI?$AAn?$AAd?$AAe?$AAx?$AA?5?$AA?$DM?$AA?5?$AA2?$AA?$AA@ 0000000180041d08     disasm_x86.obj
 0002:0000cd2c       ??_C@_04NNJCMPBN@?$DM?$CFs?$DO?$AA@ 0000000180041d2c     disasm_x86.obj
 0002:0000cd38       ??_C@_09HAHDLCLC@?$DMRCX?3RBX?$DO?$AA@ 0000000180041d38     disasm_x86.obj
 0002:0000cd48       ??_C@_09GKBCNGJI@?$DMECX?3EBX?$DO?$AA@ 0000000180041d48     disasm_x86.obj
 0002:0000cd58       ??_C@_07CEGHNHDO@?$DMCX?3BX?$DO?$AA@ 0000000180041d58     disasm_x86.obj
 0002:0000cd60       ??_C@_09GIADBEEF@?$DMRDX?3RAX?$DO?$AA@ 0000000180041d60     disasm_x86.obj
 0002:0000cd70       ??_C@_09HCGCHAGP@?$DMEDX?3EAX?$DO?$AA@ 0000000180041d70     disasm_x86.obj
 0002:0000cd80       ??_C@_07PDHFEGFO@?$DMDX?3AX?$DO?$AA@ 0000000180041d80     disasm_x86.obj
 0002:0000cd88       ??_C@_0BC@BMOKMNPA@?$DMEDX?3ECX?3EBX?3EAX?$DO?$AA@ 0000000180041d88     disasm_x86.obj
 0002:0000cda0       ??_C@_09KJKIALHP@?$DMFPUSTAT?$DO?$AA@ 0000000180041da0     disasm_x86.obj
 0002:0000cdb0       ??_C@_09PKOHADFN@?$DMFPUCTRL?$DO?$AA@ 0000000180041db0     disasm_x86.obj
 0002:0000cdc0       ??_C@_08JLLMLFGF@?$DMFPUTAG?$DO?$AA@ 0000000180041dc0     disasm_x86.obj
 0002:0000cdcc       ??_C@_05LJOHAHOM@?$DM0?40?$DO?$AA@ 0000000180041dcc     disasm_x86.obj
 0002:0000cdd4       ??_C@_05IEIHCOFM@?$DM1?40?$DO?$AA@ 0000000180041dd4     disasm_x86.obj
 0002:0000cddc       ??_C@_04DAPABGCL@?$DMpi?$DO?$AA@ 0000000180041ddc     disasm_x86.obj
 0002:0000cde8       ??_C@_0L@FEPAOFDE@?$DMlog_2?510?$DO?$AA@ 0000000180041de8     disasm_x86.obj
 0002:0000cdf8       ??_C@_09BKOFKLLP@?$DMlog_2?5e?$DO?$AA@ 0000000180041df8     disasm_x86.obj
 0002:0000ce08       ??_C@_0L@FJKFOEIM@?$DMlog_10?52?$DO?$AA@ 0000000180041e08     disasm_x86.obj
 0002:0000ce14       ??_C@_06JCHMGMBH@?$DMln?52?$DO?$AA@ 0000000180041e14     disasm_x86.obj
 0002:0000ce20       ??_C@_0DI@BNMEDCED@?$FL0x?$CF08I64X?$FN?5ANOMALY?3?5Undocumente@ 0000000180041e20     disasm_x86.obj
 0002:0000ce60       ??_C@_1FC@EBMKLEOA@?$AAI?$AAn?$AAs?$AAt?$AAr?$AAu?$AAc?$AAt?$AAi?$AAo?$AAn?$AA?9?$AA?$DO?$AAO?$AAp?$AAc?$AAo?$AAd?$AAe?$AAB?$AAy?$AAt?$AAe?$AAs?$AA?$FL?$AA0?$AA?$FN?$AA?5?$AA?$DN?$AA?$DN?$AA?5?$AAX@ 0000000180041e60     disasm_x86.obj
 0002:0000cec0       ??_C@_0EF@GEBOMDBA@?$FL0x?$CF08I64X?$FN?5ANOMALY?3?5Segment?5ove@ 0000000180041ec0     disasm_x86.obj
 0002:0000cf08       ??_C@_1CE@HGNFIJEK@?$AAO?$AAp?$AAe?$AAr?$AAa?$AAn?$AAd?$AAI?$AAn?$AAd?$AAe?$AAx?$AA?5?$AA?$DN?$AA?$DN?$AA?5?$AA1?$AA?$AA@ 0000000180041f08     disasm_x86.obj
 0002:0000cf30       ??_C@_1CK@GIKDGFFL@?$AAO?$AAp?$AAe?$AAr?$AAa?$AAn?$AAd?$AA?9?$AA?$DO?$AAL?$AAe?$AAn?$AAg?$AAt?$AAh?$AA?5?$AA?$DN?$AA?$DN?$AA?5?$AA1?$AA?$AA@ 0000000180041f30     disasm_x86.obj
 0002:0000cf60       ??_C@_1EE@EKPDOLHF@?$AA?$CB?$AAX?$AA8?$AA6?$AAI?$AAn?$AAs?$AAt?$AAr?$AAu?$AAc?$AAt?$AAi?$AAo?$AAn?$AA?9?$AA?$DO?$AAH?$AAa?$AAs?$AAD?$AAs?$AAt?$AAA?$AAd?$AAd?$AAr?$AAe?$AAs?$AAs?$AAi?$AAn@ 0000000180041f60     disasm_x86.obj
 0002:0000cfb0       ??_C@_1EE@PMMLCHCL@?$AA?$CB?$AAX?$AA8?$AA6?$AAI?$AAn?$AAs?$AAt?$AAr?$AAu?$AAc?$AAt?$AAi?$AAo?$AAn?$AA?9?$AA?$DO?$AAH?$AAa?$AAs?$AAS?$AAr?$AAc?$AAA?$AAd?$AAd?$AAr?$AAe?$AAs?$AAs?$AAi?$AAn@ 0000000180041fb0     disasm_x86.obj
 0002:0000cff8       ??_C@_07NCKHPGBP@?$CFs?3?$FL?$CFs?$FN?$AA@ 0000000180041ff8     disasm_x86.obj
 0002:0000d000       ??_C@_1FO@EHBLJEAL@?$AAX?$AA8?$AA6?$AAI?$AAn?$AAs?$AAt?$AAr?$AAu?$AAc?$AAt?$AAi?$AAo?$AAn?$AA?9?$AA?$DO?$AAO?$AAp?$AAe?$AAr?$AAa?$AAn?$AAd?$AAS?$AAi?$AAz?$AAe?$AA?5?$AA?$DO?$AA?$DN?$AA?5?$AAO@ 0000000180042000     disasm_x86.obj
 0002:0000d060       ??_C@_0L@FKODKOEL@0x?$CF02I64X?$DN?$AA@ 0000000180042060     disasm_x86.obj
 0002:0000d06c       ??_C@_05OINFJHGD@?$CFI64u?$AA@ 000000018004206c     disasm_x86.obj
 0002:0000d074       ??_C@_05LLAMLEHD@?$CFI64d?$AA@ 0000000180042074     disasm_x86.obj
 0002:0000d080       ??_C@_08HDNLCENL@0x?$CF02lX?$DN?$AA@ 0000000180042080     disasm_x86.obj
 0002:0000d08c       ??_C@_03FKNCMABI@?$CFlu?$AA@ 000000018004208c     disasm_x86.obj
 0002:0000d090       ??_C@_03JALODAI@?$CFld?$AA@ 0000000180042090     disasm_x86.obj
 0002:0000d098       ??_C@_07GELCMGDI@0x?$CF02X?$DN?$AA@ 0000000180042098     disasm_x86.obj
 0002:0000d0a0       ??_C@_02GMHACPFF@?$CFu?$AA@ 00000001800420a0     disasm_x86.obj
 0002:0000d0a4       ??_C@_02DPKJAMEF@?$CFd?$AA@ 00000001800420a4     disasm_x86.obj
 0002:0000d0b0       ??_C@_0ED@PJNAGPMD@?$FL0x?$CF08I64X?$FN?5ANOMALY?3?5Both?5condit@ 00000001800420b0     disasm_x86.obj
 0002:0000d100       ??_C@_1IC@MKCJKLDK@?$AA?$CI?$AAO?$AAp?$AAe?$AAr?$AAa?$AAn?$AAd?$AA?9?$AA?$DO?$AAF?$AAl?$AAa?$AAg?$AAs?$AA?5?$AA?$CG?$AA?5?$AAO?$AAP?$AA_?$AAE?$AAX?$AAE?$AAC?$AA?$CJ?$AA?5?$AA?$CG?$AA?$CG?$AA?5?$AA?$CI?$AAI@ 0000000180042100     disasm_x86.obj
 0002:0000d188       ??_C@_09JNMDINEO@?$FLrip?$CLilen?$AA@ 0000000180042188     disasm_x86.obj
 0002:0000d198       ??_C@_1DC@IGGLPGBG@?$AA?$CI?$AAO?$AAp?$AAe?$AAr?$AAa?$AAn?$AAd?$AA?$CJ?$AA?9?$AA?$DO?$AAT?$AAa?$AAr?$AAg?$AAe?$AAt?$AAA?$AAd?$AAd?$AAr?$AAe?$AAs?$AAs?$AA?$AA@ 0000000180042198     disasm_x86.obj
 0002:0000d1d0       ??_C@_0M@LBDFAMBC@?$FN?$DN0x?$CF04I64X?$AA@ 00000001800421d0     disasm_x86.obj
 0002:0000d1e0       ??_C@_09FFGCKCPG@?$FLeip?$CLilen?$AA@ 00000001800421e0     disasm_x86.obj
 0002:0000d1f0       ??_C@_09GPANNGCI@?$FN?$DN0x?$CF04lX?$AA@ 00000001800421f0     disasm_x86.obj
 0002:0000d200       ??_C@_08PHOGLINB@?$FLip?$CLilen?$AA@ 0000000180042200     disasm_x86.obj
 0002:0000d210       ??_C@_08GDDLODOH@?$FN?$DN0x?$CF04X?$AA@ 0000000180042210     disasm_x86.obj
 0002:0000d220       ??_C@_0DF@KLGCEBFP@?$FL0x?$CF08I64X?$FN?5ANOMALY?3?5Unexpected?5@ 0000000180042220     disasm_x86.obj
 0002:0000d260       ??_C@_1JM@EDJMNOIB@?$AAX?$AA8?$AA6?$AAI?$AAn?$AAs?$AAt?$AAr?$AAu?$AAc?$AAt?$AAi?$AAo?$AAn?$AA?9?$AA?$DO?$AAS?$AAe?$AAg?$AAm?$AAe?$AAn?$AAt?$AA?5?$AA?$DN?$AA?$DN?$AA?5?$AAS?$AAE?$AAG?$AA_?$AAD@ 0000000180042260     disasm_x86.obj
 0002:0000d300       ??_C@_1CO@MNKPKGH@?$AA?$CI?$AAO?$AAp?$AAe?$AAr?$AAa?$AAn?$AAd?$AA?$CJ?$AA?9?$AA?$DO?$AAL?$AAe?$AAn?$AAg?$AAt?$AAh?$AA?5?$AA?$DM?$AA?$DN?$AA?5?$AA8?$AA?$AA@ 0000000180042300     disasm_x86.obj
 0002:0000d330       ??_C@_1DE@ECMAGJFB@?$AA?$CI?$AAO?$AAp?$AAe?$AAr?$AAa?$AAn?$AAd?$AA?$CJ?$AA?9?$AA?$DO?$AAF?$AAl?$AAa?$AAg?$AAs?$AA?5?$AA?$CG?$AA?5?$AAO?$AAP?$AA_?$AAF?$AAA?$AAR?$AA?$AA@ 0000000180042330     disasm_x86.obj
 0002:0000d368       ??_C@_0M@EBLFNBEJ@?$CFs?50x?$CF02X?3?$FL?$AA@ 0000000180042368     disasm_x86.obj
 0002:0000d378       ??_C@_1DK@PFALCGFJ@?$AA?$CB?$AA?$CI?$AA?$CI?$AAO?$AAp?$AAe?$AAr?$AAa?$AAn?$AAd?$AA?$CJ?$AA?9?$AA?$DO?$AAF?$AAl?$AAa?$AAg?$AAs?$AA?5?$AA?$CG?$AA?5?$AAO?$AAP?$AA_?$AAF?$AAA?$AAR?$AA?$CJ?$AA?$AA@ 0000000180042378     disasm_x86.obj
 0002:0000d3c0       ??_C@_1EE@DMAANNPF@?$AAX?$AA8?$AA6?$AAI?$AAn?$AAs?$AAt?$AAr?$AAu?$AAc?$AAt?$AAi?$AAo?$AAn?$AA?9?$AA?$DO?$AAS?$AAe?$AAg?$AAm?$AAe?$AAn?$AAt?$AA?5?$AA?$DM?$AA?5?$AAS?$AAE?$AAG?$AA_?$AAM?$AAA@ 00000001800423c0     disasm_x86.obj
 0002:0000d408       ??_C@_07PBHPMIPL@?$CFs?5?$CFs?3?$FL?$AA@ 0000000180042408     disasm_x86.obj
 0002:0000d410       ??_C@_0DJ@CIOAIPIP@?$FL0x?$CF08I64X?$FN?5ANOMALY?3?5segment?5ove@ 0000000180042410     disasm_x86.obj
 0002:0000d450       ??_C@_0DB@COKBDBIG@?$FL0x?$CF08I64X?$FN?5ERROR?3?5mod?5?$CB?$DN?53?5for?5@ 0000000180042450     disasm_x86.obj
 0002:0000d490       ??_C@_0EA@HHOOFPNJ@?$FL0x?$CF08I64X?$FN?5ERROR?3?5invalid?5mmx?5r@ 0000000180042490     disasm_x86.obj
 0002:0000d4d0       ??_C@_0DL@DAPGJCMJ@?$FL0x?$CF08I64X?$FN?5ERROR?3?5AMODE_PR?5ille@ 00000001800424d0     disasm_x86.obj
 0002:0000d510       ??_C@_1EC@OKHDCCCL@?$AAX?$AA8?$AA6?$AA_?$AAR?$AAe?$AAg?$AAi?$AAs?$AAt?$AAe?$AAr?$AAs?$AA?$FL?$AAO?$AAp?$AAe?$AAr?$AAa?$AAn?$AAd?$AA?9?$AA?$DO?$AAR?$AAe?$AAg?$AAi?$AAs?$AAt?$AAe?$AAr?$AA?$FN@ 0000000180042510     disasm_x86.obj
 0002:0000d558       ??_C@_0DB@MGBEPLMF@?$FL0x?$CF08I64X?$FN?5ERROR?3?5mod?5?$CB?$DN?53?5for?5@ 0000000180042558     disasm_x86.obj
 0002:0000d590       ??_C@_0DL@OLPLHEHN@?$FL0x?$CF08I64X?$FN?5ERROR?3?5AMODE_VR?5ille@ 0000000180042590     disasm_x86.obj
 0002:0000d5d0       ??_C@_0DP@MLGBPDCD@?$FL0x?$CF08I64X?$FN?5ERROR?3?5invalid?5mmx?5r@ 00000001800425d0     disasm_x86.obj
 0002:0000d610       ??_C@_0DK@KGNMIOML@?$FL0x?$CF08I64X?$FN?5ERROR?3?5AMODE_P?5illeg@ 0000000180042610     disasm_x86.obj
 0002:0000d650       ??_C@_0DA@DDMHGLGC@?$FL0x?$CF08I64X?$FN?5ERROR?3?5mod?5?$CB?$DN?53?5for?5@ 0000000180042650     disasm_x86.obj
 0002:0000d680       ??_C@_08FHJNMMKA@seg_?$CF02X?$AA@ 0000000180042680     disasm_x86.obj
 0002:0000d690       ??_C@_1DO@GFCDOPED@?$AAI?$AAn?$AAs?$AAt?$AAr?$AAu?$AAc?$AAt?$AAi?$AAo?$AAn?$AA?9?$AA?$DO?$AAT?$AAy?$AAp?$AAe?$AA?5?$AA?$DN?$AA?$DN?$AA?5?$AAI?$AAT?$AAY?$AAP?$AAE?$AA_?$AAM?$AAO?$AAV?$AA?$AA@ 0000000180042690     disasm_x86.obj
 0002:0000d6d0       ??_C@_0CP@BEOOAPBK@?$FL0x?$CF08I64X?$FN?5ERROR?3?5mod?5?$DN?53?5for?5A@ 00000001800426d0     disasm_x86.obj
 0002:0000d700       ??_C@_0DN@OALIHHKH@?$FL0x?$CF08I64X?$FN?5ERROR?3?5mod?5?$DN?53?5for?5A@ 0000000180042700     disasm_x86.obj
 0002:0000d740       ??_C@_1CA@IHBPKMFB@?$AAO?$AAp?$AAe?$AAr?$AAa?$AAn?$AAd?$AA?9?$AA?$DO?$AAL?$AAe?$AAn?$AAg?$AAt?$AAh?$AA?$AA@ 0000000180042740     disasm_x86.obj
 0002:0000d760       ??_C@_1HO@BFKADENA@?$AAI?$AAn?$AAd?$AAe?$AAx?$AA?5?$AA?$DO?$AA?5?$AA0?$AA?5?$AA?$CG?$AA?$CG?$AA?5?$AAI?$AAn?$AAd?$AAe?$AAx?$AA?5?$AA?$DM?$AA?5?$AAM?$AAA?$AAX?$AA_?$AAO?$AAP?$AAT?$AAY?$AAP?$AAE?$AA_@ 0000000180042760     disasm_x86.obj
 0002:0000d7e0       ??_C@_1CO@KMFCBFDI@?$AA?$CB?$AAX?$AA8?$AA6?$AAI?$AAn?$AAs?$AAt?$AAr?$AAu?$AAc?$AAt?$AAi?$AAo?$AAn?$AA?9?$AA?$DO?$AAr?$AAe?$AAx?$AA_?$AAb?$AA?$AA@ 00000001800427e0     disasm_x86.obj
 0002:0000d810       ??_C@_1BO@OKAJBILN@?$AA?$CB?$AAI?$AAm?$AAm?$AAe?$AAd?$AAi?$AAa?$AAt?$AAe?$AAS?$AAi?$AAz?$AAe?$AA?$AA@ 0000000180042810     disasm_x86.obj
 0002:0000d830       ??_C@_1M@LHGLMLD@?$AAG?$AAr?$AAo?$AAu?$AAp?$AA?$AA@ 0000000180042830     disasm_x86.obj
 0002:0000d840       ??_C@_0BJ@JEFKDHMD@CreateToolhelp32Snapshot?$AA@ 0000000180042840     mhook.obj
 0002:0000d860       ??_C@_1BC@GDMECMAK@?$AAk?$AAe?$AAr?$AAn?$AAe?$AAl?$AA3?$AA2?$AA?$AA@ 0000000180042860     mhook.obj
 0002:0000d878       ??_C@_0O@DHAEEPDO@Thread32First?$AA@ 0000000180042878     mhook.obj
 0002:0000d888       ??_C@_0N@LDGMJMKG@Thread32Next?$AA@ 0000000180042888     mhook.obj
 0002:0000d898       ??_C@_0BP@FHNKMLBD@ocioralog_unhookOCIStmtExecute?$AA@ 0000000180042898     ocioralog.obj
 0002:0000d8b8       ??_C@_0CA@OPLBHIHB@ocioralog_unhookOCIServerAttach?$AA@ 00000001800428b8     ocioralog.obj
 0002:0000d8d8       ??_C@_0BL@MPBKNNOM@ocioralog_unhookOCIAttrSet?$AA@ 00000001800428d8     ocioralog.obj
 0002:0000d8f8       ??_C@_0BN@BKBBFKCJ@ocioralog_hookOCIStmtExecute?$AA@ 00000001800428f8     ocioralog.obj
 0002:0000d918       ??_C@_0BO@CJPAGKFC@ocioralog_hookOCIServerAttach?$AA@ 0000000180042918     ocioralog.obj
 0002:0000d938       ??_C@_0BJ@CDHKGPGO@ocioralog_hookOCIAttrSet?$AA@ 0000000180042938     ocioralog.obj
 0002:0000d958       ??_C@_0BF@HHGDHIPC@ocioralog_getlogfile?$AA@ 0000000180042958     ocioralog.obj
 0002:0000d970       ??_C@_0BF@GJEMMPLL@ocioralog_setlogfile?$AA@ 0000000180042970     ocioralog.obj
 0002:0000d988       ??_C@_0BB@FJKJPBBM@ocioralog_unhook?$AA@ 0000000180042988     ocioralog.obj
 0002:0000d9a0       ??_C@_0P@IKDNJKGB@ocioralog_hook?$AA@ 00000001800429a0     ocioralog.obj
 0002:0000d9b0       ??_C@_0O@HMBGMLMI@SERVERATTACH?6?$AA@ 00000001800429b0     ocioralog.obj
 0002:0000d9c0       ??_C@_0CJ@CKAIECNH@?$FLOCIServerAttach?$FN?5Connection?5str@ 00000001800429c0     ocioralog.obj
 0002:0000d9f0       ??_C@_0BL@JHOKNMOO@?$FLOCIAttrSet?$FN?5Username?3?5?$CFs?6?$AA@ 00000001800429f0     ocioralog.obj
 0002:0000da10       ??_C@_0BL@PFCMGPEN@?$FLOCIAttrSet?$FN?5Password?3?5?$CFs?6?$AA@ 0000000180042a10     ocioralog.obj
 0002:0000da30       ??_C@_0BP@BEMIHELD@?$FLOCIStmtExecute?$FN?5Username?3?5?$CFs?6?$AA@ 0000000180042a30     ocioralog.obj
 0002:0000da50       ??_C@_0BP@HGAOMHBA@?$FLOCIStmtExecute?$FN?5Password?3?5?$CFs?6?$AA@ 0000000180042a50     ocioralog.obj
 0002:0000da70       ??_C@_0BK@NCLEBNKB@?$FLOCIStmtExecute?$FN?5SQL?3?5?$CFs?6?$AA@ 0000000180042a70     ocioralog.obj
 0002:0000da90       ??_C@_07EEIDHNLF@oci?4dll?$AA@ 0000000180042a90     ocioralog.obj
 0002:0000da98       ??_C@_0DI@BENEDCPO@?$FLhookOCIServerAttach?$FN?5ERROR?3?5Fun@ 0000000180042a98     ocioralog.obj
 0002:0000dad0       ??_C@_0BA@DMCCEDDG@OCIServerAttach?$AA@ 0000000180042ad0     ocioralog.obj
 0002:0000dae0       ??_C@_0CM@NGBMGNCH@OCIServerAttach?5function?5hooking@ 0000000180042ae0     ocioralog.obj
 0002:0000db10       ??_C@_0CL@EJLMHJLO@OCIServerAttach?5function?5cannot?5@ 0000000180042b10     ocioralog.obj
 0002:0000db40       ??_C@_0DC@JFNKIFFI@OCIServerAttach?5function?5has?5alr@ 0000000180042b40     ocioralog.obj
 0002:0000db78       ??_C@_0DH@KJFPJAJ@?$FLhookOCIStmtExecute?$FN?5ERROR?3?5Func@ 0000000180042b78     ocioralog.obj
 0002:0000dbb0       ??_C@_0P@BCBFHHHE@OCIStmtExecute?$AA@ 0000000180042bb0     ocioralog.obj
 0002:0000dbc0       ??_C@_0CL@DBGOGHMF@OCIStmtExecute?5function?5hooking?5@ 0000000180042bc0     ocioralog.obj
 0002:0000dbf0       ??_C@_0CK@IDJLJMLA@OCIStmtExecute?5function?5cannot?5b@ 0000000180042bf0     ocioralog.obj
 0002:0000dc20       ??_C@_0DB@OJHNIJEC@OCIStmtExecute?5function?5has?5alre@ 0000000180042c20     ocioralog.obj
 0002:0000dc58       ??_C@_0DD@FPMGPBOP@?$FLhookOCIAttrSet?$FN?5ERROR?3?5Function@ 0000000180042c58     ocioralog.obj
 0002:0000dc90       ??_C@_0L@OEDCHFID@OCIAttrSet?$AA@ 0000000180042c90     ocioralog.obj
 0002:0000dca0       ??_C@_0CH@LAONHNGN@OCIAttrSet?5function?5hooking?5comp@ 0000000180042ca0     ocioralog.obj
 0002:0000dcc8       ??_C@_0CG@LOJHPJGE@OCIAttrSet?5function?5cannot?5be?5ho@ 0000000180042cc8     ocioralog.obj
 0002:0000dcf0       ??_C@_0CN@CJHJPNIA@OCIAttrSet?5function?5has?5already?5@ 0000000180042cf0     ocioralog.obj
 0002:0000dd20       ??_C@_0BM@NFLHOLBC@Function?5hooking?5completed?6?$AA@ 0000000180042d20     ocioralog.obj
 0002:0000dd40       ??_C@_0EI@JJJAPCHJ@Function?5hooking?5failed?4?5See?5the@ 0000000180042d40     ocioralog.obj
 0002:0000dd88       ??_C@_0CO@FDCGODEC@OCIServerAttach?5function?5unhooki@ 0000000180042d88     ocioralog.obj
 0002:0000ddb8       ??_C@_0CN@NPLLHMEA@OCIStmtExecute?5function?5unhookin@ 0000000180042db8     ocioralog.obj
 0002:0000dde8       ??_C@_0CJ@EEAHDCFI@OCIAttrSet?5function?5unhooking?5co@ 0000000180042de8     ocioralog.obj
 0002:0000de18       ??_C@_0BO@PFMMAEEK@Function?5unhooking?5completed?6?$AA@ 0000000180042e18     ocioralog.obj
 0002:0000de38       ??_C@_02JDPG@rb?$AA@       0000000180042e38     ocioralog.obj
 0002:0000de3c       ??_C@_02BMJICGCB@rt?$AA@   0000000180042e3c     ocioralog.obj
 0002:0000de40       ??_C@_0BC@GOMPHICK@New?5log?5file?3?5?$CFs?6?$AA@ 0000000180042e40     ocioralog.obj
 0002:0000de54       ??_C@_04JKHNIKCB@TEMP?$AA@ 0000000180042e54     ocioralog.obj
 0002:0000de60       ??_C@_0P@CBBFFNAK@?2ocioralog?4txt?$AA@ 0000000180042e60     ocioralog.obj
 0002:0000de70       ??_C@_0CM@CMKCGNNN@?$FLInitServerExtension?$FN?5Extension?5@ 0000000180042e70     ocioralog.obj
 0002:0000dea0       ??_C@_0DA@JOOJJBHH@?$FLDeInitServerExtension?$FN?5Extensio@ 0000000180042ea0     ocioralog.obj
 0002:0000ded0       ??_C@_01MCMALHOG@a?$AA@    0000000180042ed0     ocioralog.obj
 0002:0000ded8       ??_C@_0BO@EFKJANNE@Could?5not?5open?5the?5log?5file?$CB?6?$AA@ 0000000180042ed8     ocioralog.obj
 0002:0000def8       __rtc_iaa                  0000000180042ef8     LIBCMT:_initsect_.obj
 0002:0000df00       __rtc_izz                  0000000180042f00     LIBCMT:_initsect_.obj
 0002:0000df08       __rtc_taa                  0000000180042f08     LIBCMT:_initsect_.obj
 0002:0000df10       __rtc_tzz                  0000000180042f10     LIBCMT:_initsect_.obj
 0002:0001048c       __DELAY_IMPORT_DESCRIPTOR_metsrv_dll 000000018004548c     metsrv:metsrv.dll
 0002:000104ac       __NULL_DELAY_IMPORT_DESCRIPTOR 00000001800454ac     metsrv:metsrv.dll
 0002:00010518       \177metsrv_NULL_THUNK_DATA_DLN 0000000180045518     metsrv:metsrv.dll
 0002:000105e8       \177metsrv_NULL_THUNK_DATA_DLB 00000001800455e8     metsrv:metsrv.dll
 0002:00010630       __IMPORT_DESCRIPTOR_KERNEL32 0000000180045630     kernel32:KERNEL32.dll
 0002:00010644       __IMPORT_DESCRIPTOR_USER32 0000000180045644     user32:USER32.dll
 0002:00010658       __IMPORT_DESCRIPTOR_ADVAPI32 0000000180045658     advapi32:ADVAPI32.dll
 0002:0001066c       __NULL_IMPORT_DESCRIPTOR   000000018004566c     kernel32:KERNEL32.dll
 0003:00000098       rand_ssleay_meth           0000000180047098     libeay32:md_rand.obj
 0003:0000ed20       _iob                       0000000180055d20     LIBCMT:_file.obj
 0003:0000f0e0       __security_cookie          00000001800560e0     LIBCMT:gs_cookie.obj
 0003:0000f0e8       __security_cookie_complement 00000001800560e8     LIBCMT:gs_cookie.obj
 0003:0000f0f0       __abort_behavior           00000001800560f0     LIBCMT:abort.obj
 0003:0000f0f4       _fltused                   00000001800560f4     LIBCMT:_fpinit_.obj
 0003:0000f0f8       _ldused                    00000001800560f8     LIBCMT:_fpinit_.obj
 0003:0000f270       __badioinfo                0000000180056270     LIBCMT:ioinit.obj
 0003:0000f510       __nullstring               0000000180056510     LIBCMT:output.obj
 0003:0000f518       __wnullstring              0000000180056518     LIBCMT:output.obj
 0003:0000f520       __initialmbcinfo           0000000180056520     LIBCMT:mbctype.obj
 0003:0000f740       _mbctype                   0000000180056740     LIBCMT:mbctype.obj
 0003:0000f850       _mbcasemap                 0000000180056850     LIBCMT:mbctype.obj
 0003:0000f950       __ptmbcinfo                0000000180056950     LIBCMT:mbctype.obj
 0003:0000fa50       __globallocalestatus       0000000180056a50     LIBCMT:glstatus.obj
 0003:0000fa54       __clocalestr               0000000180056a54     LIBCMT:nlsdata2.obj
 0003:0000fa60       __lc_time_c                0000000180056a60     LIBCMT:nlsdata2.obj
 0003:0000fd20       __initiallocinfo           0000000180056d20     LIBCMT:nlsdata2.obj
 0003:0000fe80       __ptlocinfo                0000000180056e80     LIBCMT:nlsdata2.obj
 0003:0000fe88       __flsindex                 0000000180056e88     LIBCMT:tidtable.obj
 0003:0000fea0       _cfltcvt_tab               0000000180056ea0     LIBCMT:cmiscdat.obj
 0003:0000fef0       _lookuptrailbytes          0000000180056ef0     LIBCMT:read.obj
 0003:0000fff0       __lconv_static_decimal     0000000180056ff0     LIBCMT:lconv.obj
 0003:0000fff4       __lconv_static_W_decimal   0000000180056ff4     LIBCMT:lconv.obj
 0003:0000fff8       __lconv                    0000000180056ff8     LIBCMT:lconv.obj
 0003:00010000       __lconv_c                  0000000180057000     LIBCMT:lconv.obj
 0003:00010098       _pctype                    0000000180057098     LIBCMT:ctype.obj
 0003:000100a0       _pwctype                   00000001800570a0     LIBCMT:ctype.obj
 0003:000100a8       __mb_cur_max               00000001800570a8     LIBCMT:nlsdata1.obj
 0003:000100ac       __decimal_point            00000001800570ac     LIBCMT:nlsdata1.obj
 0003:000100b0       __decimal_point_length     00000001800570b0     LIBCMT:nlsdata1.obj
 0003:000100c0       _confh                     00000001800570c0     LIBCMT:initcon.obj
 0003:00010100       _pow10pos                  0000000180057100     LIBCMT:_constpow_.obj
 0003:00010260       _pow10neg                  0000000180057260     LIBCMT:_constpow_.obj
 0003:000103c0       __pfnDliNotifyHook2        00000001800573c0     ocioralog.obj
 0003:000103d0       customCommands             00000001800573d0     ocioralog.obj
 0003:00010bb8       X86                        0000000180057bb8     disasm_x86.obj
 0003:000110e8       float_1                    00000001800580e8     disasm_x86.obj
 0003:000110f8       float_l2t                  00000001800580f8     disasm_x86.obj
 0003:00011108       float_l2e                  0000000180058108     disasm_x86.obj
 0003:00011118       float_pi                   0000000180058118     disasm_x86.obj
 0003:00011128       float_lg2                  0000000180058128     disasm_x86.obj
 0003:00011138       float_ln2                  0000000180058138     disasm_x86.obj
 0003:00011150       X86_Group_6                0000000180058150     disasm_x86.obj
 0003:00011350       X86_Group_7                0000000180058350     disasm_x86.obj
 0003:00011550       X86_0F01_ModRM             0000000180058550     disasm_x86.obj
 0003:00015550       X86_Opcode_0F05            000000018005c550     disasm_x86.obj
 0003:000155d0       X86_Group_P                000000018005c5d0     disasm_x86.obj
 0003:000157d0       X86_3DNOW_0F               000000018005c7d0     disasm_x86.obj
 0003:000197d0       X86_Group_17               00000001800607d0     disasm_x86.obj
 0003:000199d0       X86_Group_13               00000001800609d0     disasm_x86.obj
 0003:00019bd0       X86_Group_14               0000000180060bd0     disasm_x86.obj
 0003:00019dd0       X86_Group_15               0000000180060dd0     disasm_x86.obj
 0003:00019fd0       X86_Group_16               0000000180060fd0     disasm_x86.obj
 0003:0001a1d0       X86_Group_11               00000001800611d0     disasm_x86.obj
 0003:0001a3d0       X86_Group_8                00000001800613d0     disasm_x86.obj
 0003:0001a5d0       X86_Group_9                00000001800615d0     disasm_x86.obj
 0003:0001a7d0       X86_Opcodes_2              00000001800617d0     disasm_x86.obj
 0003:0001e7d0       X86_Opcode_63              00000001800657d0     disasm_x86.obj
 0003:0001e850       X86_Group_1_80             0000000180065850     disasm_x86.obj
 0003:0001ea50       X86_Group_1_81             0000000180065a50     disasm_x86.obj
 0003:0001ec50       X86_Group_1_82             0000000180065c50     disasm_x86.obj
 0003:0001ee50       X86_Group_1_83             0000000180065e50     disasm_x86.obj
 0003:0001f050       X86_Group_10               0000000180066050     disasm_x86.obj
 0003:0001f250       X86_Group_2_C0             0000000180066250     disasm_x86.obj
 0003:0001f450       X86_Group_2_C1             0000000180066450     disasm_x86.obj
 0003:0001f650       X86_Group_12_C6            0000000180066650     disasm_x86.obj
 0003:0001f850       X86_Group_12_C7            0000000180066850     disasm_x86.obj
 0003:0001fa50       X86_Group_2_D0             0000000180066a50     disasm_x86.obj
 0003:0001fc50       X86_Group_2_D1             0000000180066c50     disasm_x86.obj
 0003:0001fe50       X86_Group_2_D2             0000000180066e50     disasm_x86.obj
 0003:00020050       X86_Group_2_D3             0000000180067050     disasm_x86.obj
 0003:00020250       X86_ESC_0                  0000000180067250     disasm_x86.obj
 0003:00021450       X86_ESC_1                  0000000180068450     disasm_x86.obj
 0003:00022650       X86_ESC_2                  0000000180069650     disasm_x86.obj
 0003:00023850       X86_ESC_3                  000000018006a850     disasm_x86.obj
 0003:00024a50       X86_ESC_4                  000000018006ba50     disasm_x86.obj
 0003:00025c50       X86_ESC_5                  000000018006cc50     disasm_x86.obj
 0003:00026e50       X86_ESC_6                  000000018006de50     disasm_x86.obj
 0003:00028050       X86_ESC_7                  000000018006f050     disasm_x86.obj
 0003:00029250       X86_Group_3_F6             0000000180070250     disasm_x86.obj
 0003:00029450       X86_Group_3_F7             0000000180070450     disasm_x86.obj
 0003:00029650       X86_Group_4                0000000180070650     disasm_x86.obj
 0003:00029850       X86_Group_5                0000000180070850     disasm_x86.obj
 0003:00029a50       X86_Opcodes_1              0000000180070a50     disasm_x86.obj
 0003:0002da50       X86_SSE2_Group_13          0000000180074a50     disasm_x86.obj
 0003:0002e050       X86_SSE2_Group_14          0000000180075050     disasm_x86.obj
 0003:0002e650       X86_SSE2_Group_15          0000000180075650     disasm_x86.obj
 0003:0002ec50       X86_SSE                    0000000180075c50     disasm_x86.obj
 0003:0003ac50       X86_ModRM_1                0000000180081c50     disasm_x86.obj
 0003:0003ad50       X86_ModRM_2                0000000180081d50     disasm_x86.obj
 0003:0003ae50       X86_SSE_2                  0000000180081e50     disasm_x86.obj
 0003:0003af50       X86_LockPrefix_1           0000000180081f50     disasm_x86.obj
 0003:0003b050       X86_LockPrefix_2           0000000180082050     disasm_x86.obj
 0003:0003b150       X86_LockPrefix_Groups      0000000180082150     disasm_x86.obj
 0003:0003b1e0       X86_Groups_1               00000001800821e0     disasm_x86.obj
 0003:0003b2e0       X86_Groups_2               00000001800822e0     disasm_x86.obj
 0003:0003b3e0       X86_Invalid_Op16_2         00000001800823e0     disasm_x86.obj
 0003:0003b4e0       X86_Invalid_Addr64_1       00000001800824e0     disasm_x86.obj
 0003:0003b5e0       X86_Invalid_Addr64_2       00000001800825e0     disasm_x86.obj
 0003:0003b6e0       X86_Registers              00000001800826e0     disasm_x86.obj
 0003:0003bde0       OptypeHandlers             0000000180082de0     disasm_x86.obj
 0003:0003beb0       StandardPrologues          0000000180082eb0     disasm_x86.obj
 0003:0003bf00       SupportedArchitectures     0000000180082f00     disasm.obj
 0003:0003bf40       __imp_packet_add_tlv_uint  0000000180082f40     metsrv:metsrv.dll
 0003:0003bf48       __imp_packet_transmit      0000000180082f48     metsrv:metsrv.dll
 0003:0003bf50       __imp_packet_add_tlv_string 0000000180082f50     metsrv:metsrv.dll
 0003:0003bf58       __imp_packet_get_tlv_value_string 0000000180082f58     metsrv:metsrv.dll
 0003:0003bf60       __imp_packet_create_response 0000000180082f60     metsrv:metsrv.dll
 0003:0003bf68       __imp_command_register     0000000180082f68     metsrv:metsrv.dll
 0003:0003bf70       __imp_packet_get_tlv       0000000180082f70     metsrv:metsrv.dll
 0003:0003bf78       __imp_Init                 0000000180082f78     metsrv:metsrv.dll
 0003:0003bf80       __imp_command_deregister   0000000180082f80     metsrv:metsrv.dll
 0003:0003bf88       \177metsrv_NULL_THUNK_DATA_DLA 0000000180082f88     metsrv:metsrv.dll
 0003:0003bfa0       __hmod__metsrv_dll         0000000180082fa0     metsrv:metsrv.dll
 0003:0003c010       OPENSSL_ia32cap_P          0000000180083010     libeay32:cryptlib.obj
 0003:0003c014       OPENSSL_NONPIC_relocated   0000000180083014     libeay32:cryptlib.obj
 0003:0003c038       cleanse_ctr                0000000180083038     libeay32:mem_clr.obj
 0003:0003c7f0       __puiHead                  00000001800837f0     Delayimp:delayhlp.obj
 0003:0003c7f8       __pfnDliFailureHook2       00000001800837f8     Delayimp:delayhk1.obj
 0003:0003c800       hMetSrv                    0000000180083800     ReflectiveDllInjection:DelayLoadMetSrv.obj
 0003:0003c808       _cflush                    0000000180083808     LIBCMT:_file.obj
 0003:0003c81c       __error_mode               000000018008381c     LIBCMT:dllcrt0.obj
 0003:0003c820       _aenvptr                   0000000180083820     LIBCMT:dllcrt0.obj
 0003:0003c828       _wenvptr                   0000000180083828     LIBCMT:dllcrt0.obj
 0003:0003c830       __app_type                 0000000180083830     LIBCMT:dllcrt0.obj
 0003:0003c834       __fastflag                 0000000180083834     LIBCMT:_fpinit_.obj
 0003:0003cdb0       __pInvalidArgHandler       0000000180083db0     LIBCMT:invarg.obj
 0003:0003cdb8       _umaskval                  0000000180083db8     LIBCMT:crt0dat.obj
 0003:0003cdbc       __argc                     0000000180083dbc     LIBCMT:crt0dat.obj
 0003:0003cdc0       __argv                     0000000180083dc0     LIBCMT:crt0dat.obj
 0003:0003cdc8       __wargv                    0000000180083dc8     LIBCMT:crt0dat.obj
 0003:0003cdd0       _environ                   0000000180083dd0     LIBCMT:crt0dat.obj
 0003:0003cdd8       __initenv                  0000000180083dd8     LIBCMT:crt0dat.obj
 0003:0003cde0       _wenviron                  0000000180083de0     LIBCMT:crt0dat.obj
 0003:0003cde8       __winitenv                 0000000180083de8     LIBCMT:crt0dat.obj
 0003:0003cdf0       _pgmptr                    0000000180083df0     LIBCMT:crt0dat.obj
 0003:0003cdf8       _wpgmptr                   0000000180083df8     LIBCMT:crt0dat.obj
 0003:0003ce00       _exitflag                  0000000180083e00     LIBCMT:crt0dat.obj
 0003:0003ce04       _C_Termination_Done        0000000180083e04     LIBCMT:crt0dat.obj
 0003:0003ce08       _C_Exit_Done               0000000180083e08     LIBCMT:crt0dat.obj
 0003:0003ce60       _maxwait                   0000000180083e60     LIBCMT:crtheap.obj
 0003:0003d0a0       _stdbuf                    00000001800840a0     LIBCMT:_sftbuf.obj
 0003:0003d0b8       __mbulinfo                 00000001800840b8     LIBCMT:mbctype.obj
 0003:0003d0c4       __mbcodepage               00000001800840c4     LIBCMT:mbctype.obj
 0003:0003d0c8       __ismbcodepage             00000001800840c8     LIBCMT:mbctype.obj
 0003:0003d0cc       __mblcid                   00000001800840cc     LIBCMT:mbctype.obj
 0003:0003d0d0       __locale_changed           00000001800840d0     LIBCMT:setlocal.obj
 0003:0003d0d8       _crtheap                   00000001800840d8     LIBCMT:heapinit.obj
 0003:0003d708       ?_pnhHeap@@3P6AH_K@ZEA     0000000180084708     LIBCMT:handler.obj
 0003:0003d710       _newmode                   0000000180084710     LIBCMT:_newmode.obj
 0003:0003d828       _fmode                     0000000180084828     LIBCMT:txtmode.obj
 0003:0003d830       ?__pInconsistency@@3P6AXXZEA 0000000180084830     LIBCMT:hooks.obj
 0003:0003d840       __pPurecall                0000000180084840     LIBCMT:inithelp.obj
 0003:0003d848       __lconv_static_null        0000000180084848     LIBCMT:lconv.obj
 0003:0003d84c       __lconv_static_W_null      000000018008484c     LIBCMT:lconv.obj
 0003:0003d850       _commode                   0000000180084850     LIBCMT:ncommode.obj
 0003:0003d854       _outputformat              0000000180084854     LIBCMT:outputformat.obj
 0003:0003da90       float_0                    0000000180084a90     disasm_x86.obj
 0003:0003daa0       X86_Invalid_Op16_1         0000000180084aa0     disasm_x86.obj
 0003:0003dbb4       isOCIAttrSetHooked         0000000180084bb4     ocioralog.obj
 0003:0003dbb8       hAppInstance               0000000180084bb8     ocioralog.obj
 0003:0003dbc0       logfn                      0000000180084bc0     ocioralog.obj
 0003:0003dfa8       isOCIServerAttachHooked    0000000180084fa8     ocioralog.obj
 0003:0003dfac       isOCIStmtExecuteHooked     0000000180084fac     ocioralog.obj
 0003:0003dfb0       ?fnThread32Next@@3P6AHPEAXPEAUtagTHREADENTRY32@@@ZEA 0000000180084fb0     mhook.obj
 0003:0003dfb8       ?fnCreateToolhelp32Snapshot@@3P6APEAXKK@ZEA 0000000180084fb8     mhook.obj
 0003:0003dfc0       ?fnThread32First@@3P6AHPEAXPEAUtagTHREADENTRY32@@@ZEA 0000000180084fc0     mhook.obj
 0003:0003dfc8       _debugger_hook_dummy       0000000180084fc8     <common>
 0003:0003dfcc       _nhandle                   0000000180084fcc     <common>
 0003:0003dfe0       __pioinfo                  0000000180084fe0     <common>
 0003:0003e1e0       __env_initialized          00000001800851e0     <common>
 0003:0003e1e8       __onexitend                00000001800851e8     <common>
 0003:0003e1f0       __onexitbegin              00000001800851f0     <common>
 0003:0003e1f8       __mbctype_initialized      00000001800851f8     <common>
 0003:0003e200       __dyn_tls_init_callback    0000000180085200     <common>
 0003:0003e208       _pDestructExceptionObject  0000000180085208     <common>
 0003:0003e210       _acmdln                    0000000180085210     <common>
 0003:0003e218       __piob                     0000000180085218     <common>
 0003:0003e220       _bufin                     0000000180085220     <common>
 0003:0003f220       _nstream                   0000000180086220     <common>
 0003:0003f228       o_ocistmtexecute           0000000180086228     <common>
 0003:0003f230       o_ociserverattach          0000000180086230     <common>
 0003:0003f238       o_ociattrset               0000000180086238     <common>

 entry point at        0001:00024174

 Static symbols

 0001:00005800       SetOperands                0000000180006800 f    CIL library: CIL module
 0001:0000bf80       SetModRM16                 000000018000cf80 f    CIL library: CIL module
 0001:0000c4d0       SetModRM32                 000000018000d4d0 f    CIL library: CIL module
 0001:0000cc70       SetSIB                     000000018000dc70 f    CIL library: CIL module
 0001:0000d210       ApplyDisplacement          000000018000e210 f    CIL library: CIL module
 0001:0000d2a0       IsValidLockPrefix          000000018000e2a0 f    CIL library: CIL module
 0001:0000d410       ?SkipJumps@@YAPEAEPEAE@Z   000000018000e410 f    CIL library: CIL module
 0001:0000d450       ?TrampolineAlloc@@YAPEAUMHOOKS_TRAMPOLINE@@PEAE_J1@Z 000000018000e450 f    CIL library: CIL module
 0001:0000d5c0       ?SuspendOneThread@@YAPEAXKPEAEK@Z 000000018000e5c0 f    CIL library: CIL module
 0001:0000d6f0       ?ResumeOtherThreads@@YAXXZ 000000018000e6f0 f    CIL library: CIL module
 0001:0000d7b0       ?SuspendOtherThreads@@YAHPEAEK@Z 000000018000e7b0 f    CIL library: CIL module
 0001:0000d990       ?DisassembleAndSkip@@YAKPEAXKPEAUMHOOKS_PATCHDATA@@@Z 000000018000e990 f    CIL library: CIL module
 0001:000103a0       des_ecb_cipher             00000001800113a0 f   libeay32:e_des.obj
 0001:00010420       des_ofb_cipher             0000000180011420 f   libeay32:e_des.obj
 0001:00010470       des_cbc_cipher             0000000180011470 f   libeay32:e_des.obj
 0001:000104b0       des_cfb64_cipher           00000001800114b0 f   libeay32:e_des.obj
 0001:00010510       des_cfb1_cipher            0000000180011510 f   libeay32:e_des.obj
 0001:00010620       des_cfb8_cipher            0000000180011620 f   libeay32:e_des.obj
 0001:00010680       des_init_key               0000000180011680 f   libeay32:e_des.obj
 0001:000106b0       des_ctrl                   00000001800116b0 f   libeay32:e_des.obj
 0001:00010720       do_evp_enc_engine          0000000180011720 f   libeay32:enc_min.obj
 0001:00010b40       default_malloc_ex          0000000180011b40 f   libeay32:mem.obj
 0001:00010b60       default_realloc_ex         0000000180011b60 f   libeay32:mem.obj
 0001:00010b80       default_malloc_locked_ex   0000000180011b80 f   libeay32:mem.obj
 0001:00010f00       _strlen31                  0000000180011f00 f   libeay32:cryptlib.obj
 0001:00013970       err_fns_check              0000000180014970 f   libeay32:err_def.obj
 0001:000139e0       int_err_del                00000001800149e0 f   libeay32:err_def.obj
 0001:00013a40       int_err_get_item           0000000180014a40 f   libeay32:err_def.obj
 0001:00013ad0       int_err_set_item           0000000180014ad0 f   libeay32:err_def.obj
 0001:00013b60       int_err_del_item           0000000180014b60 f   libeay32:err_def.obj
 0001:00013bf0       int_thread_release         0000000180014bf0 f   libeay32:err_def.obj
 0001:00013c40       int_thread_get_item        0000000180014c40 f   libeay32:err_def.obj
 0001:00013cd0       int_thread_set_item        0000000180014cd0 f   libeay32:err_def.obj
 0001:00013d70       int_err_get_next_lib       0000000180014d70 f   libeay32:err_def.obj
 0001:00013dd0       ERR_STATE_free             0000000180014dd0 f   libeay32:err_def.obj
 0001:00013e60       err_hash                   0000000180014e60 f   libeay32:err_def.obj
 0001:00013ea0       pid_hash                   0000000180014ea0 f   libeay32:err_def.obj
 0001:00013fb0       int_err_get                0000000180014fb0 f   libeay32:err_def.obj
 0001:00014060       int_thread_get             0000000180015060 f   libeay32:err_def.obj
 0001:00014120       int_thread_del_item        0000000180015120 f   libeay32:err_def.obj
 0001:000142e0       ssleay_rand_cleanup        00000001800152e0 f   libeay32:md_rand.obj
 0001:00014350       ssleay_rand_add            0000000180015350 f   libeay32:md_rand.obj
 0001:00014790       ssleay_rand_seed           0000000180015790 f   libeay32:md_rand.obj
 0001:000147b0       ssleay_rand_bytes          00000001800157b0 f   libeay32:md_rand.obj
 0001:00014c50       ssleay_rand_pseudo_bytes   0000000180015c50 f   libeay32:md_rand.obj
 0001:00014ca0       ssleay_rand_status         0000000180015ca0 f   libeay32:md_rand.obj
 0001:000155d0       expand                     00000001800165d0 f   libeay32:lhash.obj
 0001:000156d0       contract                   00000001800166d0 f   libeay32:lhash.obj
 0001:00015c10       do_evp_md_engine           0000000180016c10 f   libeay32:digest.obj
 0001:00015f00       init                       0000000180016f00 f   libeay32:m_sha1.obj
 0001:00015f20       update                     0000000180016f20 f   libeay32:m_sha1.obj
 0001:00015f40       final                      0000000180016f40 f   libeay32:m_sha1.obj
 0001:00015f70       init224                    0000000180016f70 f   libeay32:m_sha1.obj
 0001:00015f90       init256                    0000000180016f90 f   libeay32:m_sha1.obj
 0001:00015fb0       update256                  0000000180016fb0 f   libeay32:m_sha1.obj
 0001:00015fd0       final256                   0000000180016fd0 f   libeay32:m_sha1.obj
 0001:00015ff0       init384                    0000000180016ff0 f   libeay32:m_sha1.obj
 0001:00016010       init512                    0000000180017010 f   libeay32:m_sha1.obj
 0001:00016030       update512                  0000000180017030 f   libeay32:m_sha1.obj
 0001:00016050       final512                   0000000180017050 f   libeay32:m_sha1.obj
 0001:00016070       readtimer                  0000000180017070 f   libeay32:rand_win.obj
 0001:00017720       impl_check                 0000000180018720 f   libeay32:ex_data.obj
 0001:00017780       ex_hash_cb                 0000000180018780 f   libeay32:ex_data.obj
 0001:00017790       err_cmp                    0000000180018790 f   libeay32:ex_data.obj
 0001:00017790       pid_cmp                    0000000180018790 f   libeay32:ex_data.obj
 0001:00017790       ex_cmp_cb                  0000000180018790 f   libeay32:ex_data.obj
 0001:000177a0       ex_data_check              00000001800187a0 f   libeay32:ex_data.obj
 0001:00017820       def_cleanup_util_cb        0000000180018820 f   libeay32:ex_data.obj
 0001:00017840       def_cleanup_cb             0000000180018840 f   libeay32:ex_data.obj
 0001:00017870       def_get_class              0000000180018870 f   libeay32:ex_data.obj
 0001:00017980       def_add_index              0000000180018980 f   libeay32:ex_data.obj
 0001:00017ad0       int_new_class              0000000180018ad0 f   libeay32:ex_data.obj
 0001:00017b30       int_cleanup                0000000180018b30 f   libeay32:ex_data.obj
 0001:00017b90       int_get_new_index          0000000180018b90 f   libeay32:ex_data.obj
 0001:00017d50       int_new_ex_data            0000000180018d50 f   libeay32:ex_data.obj
 0001:00017f00       int_dup_ex_data            0000000180018f00 f   libeay32:ex_data.obj
 0001:000180f0       int_free_ex_data           00000001800190f0 f   libeay32:ex_data.obj
 0001:00018880       sha1_block_data_order      0000000180019880 f   libeay32:sha1dgst.obj
 0001:00019f70       sha256_block_data_order    000000018001af70 f   libeay32:sha256.obj
 0001:0001b570       sha512_block_data_order    000000018001c570 f   libeay32:sha512.obj
 0001:0001d400       asn1_item_combine_free     000000018001e400 f   libeay32:tasn_fre.obj
 0001:0001daa0       asn1_check_tlen            000000018001eaa0 f   libeay32:tasn_dec.obj
 0001:0001dcd0       asn1_template_ex_d2i       000000018001ecd0 f   libeay32:tasn_dec.obj
 0001:0001def0       asn1_find_end              000000018001eef0 f   libeay32:tasn_dec.obj
 0001:0001e040       asn1_collect               000000018001f040 f   libeay32:tasn_dec.obj
 0001:0001e330       asn1_d2i_ex_primitive      000000018001f330 f   libeay32:tasn_dec.obj
 0001:0001f3a0       asn1_template_noexp_d2i    00000001800203a0 f   libeay32:tasn_dec.obj
 0001:0001f960       asn1_template_ex_i2d       0000000180020960 f   libeay32:tasn_enc.obj
 0001:0001fc60       der_cmp                    0000000180020c60 f   libeay32:tasn_enc.obj
 0001:0001fe60       asn1_i2d_ex_primitive      0000000180020e60 f   libeay32:tasn_enc.obj
 0001:00020420       asn1_set_seq_out           0000000180021420 f   libeay32:tasn_enc.obj
 0001:00020690       asn1_item_flags_i2d        0000000180021690 f   libeay32:tasn_enc.obj
 0001:000208d0       asn1_item_ex_combine_new   00000001800218d0 f   libeay32:tasn_new.obj
 0001:00020b70       asn1_item_clear            0000000180021b70 f   libeay32:tasn_new.obj
 0001:00020d80       file_new                   0000000180021d80 f   libeay32:bss_file.obj
 0001:00020da0       file_free                  0000000180021da0 f   libeay32:bss_file.obj
 0001:00020e00       file_read                  0000000180021e00 f   libeay32:bss_file.obj
 0001:00020ec0       file_write                 0000000180021ec0 f   libeay32:bss_file.obj
 0001:00020f10       file_ctrl                  0000000180021f10 f   libeay32:bss_file.obj
 0001:00021220       file_gets                  0000000180022220 f   libeay32:bss_file.obj
 0001:00021280       file_puts                  0000000180022280 f   libeay32:bss_file.obj
 0001:00021e80       swprintf                   0000000180022e80 f   LIBCMT:wassert.obj
 0001:00022da0       flsall                     0000000180023da0 f   LIBCMT:fflush.obj
 0001:00024058       __DllMainCRTStartup        0000000180025058 f   LIBCMT:dllcrt0.obj
 0001:000249e0       shortsort                  00000001800259e0 f   LIBCMT:qsort.obj
 0001:00025f04       _initterm                  0000000180026f04 f   LIBCMT:crt0dat.obj
 0001:00026024       doexit                     0000000180027024 f   LIBCMT:crt0dat.obj
 0001:00026664       xtow_s                     0000000180027664 f   LIBCMT:xtows.obj
 0001:00027da0       write_char                 0000000180028da0 f   LIBCMT:output.obj
 0001:00027de8       write_multi_char           0000000180028de8 f   LIBCMT:output.obj
 0001:00027e3c       write_string               0000000180028e3c f   LIBCMT:output.obj
 0001:00028a54       ?setSBCS@@YAXPEAUthreadmbcinfostruct@@@Z 0000000180029a54 f   LIBCMT:mbctype.obj
 0001:00028ae0       ?setSBUpLow@@YAXPEAUthreadmbcinfostruct@@@Z 0000000180029ae0 f   LIBCMT:mbctype.obj
 0001:00028d8c       ?getSystemCP@@YAHH@Z       0000000180029d8c f   LIBCMT:mbctype.obj
 0001:0002ab94       parse_cmdline              000000018002bb94 f   LIBCMT:stdargv.obj
 0001:0002b258       write_char                 000000018002c258 f   LIBCMT:woutput.obj
 0001:0002b290       write_multi_char           000000018002c290 f   LIBCMT:woutput.obj
 0001:0002b2e4       write_string               000000018002c2e4 f   LIBCMT:woutput.obj
 0001:0002c004       _cftoe2_l                  000000018002d004 f   LIBCMT:cvt.obj
 0001:0002c710       _cftof2_l                  000000018002d710 f   LIBCMT:cvt.obj
 0001:0002e340       ?__crtLCMapStringA_stat@@YAHPEAUlocaleinfo_struct@@KKPEBDHPEADHHH@Z 000000018002f340 f   LIBCMT:a_map.obj
 0001:0002e6a4       ?__crtGetStringTypeA_stat@@YAHPEAUlocaleinfo_struct@@KPEBDHPEAGHHH@Z 000000018002f6a4 f   LIBCMT:a_str.obj
 0001:0002eeb8       _tsopen_nolock             000000018002feb8 f   LIBCMT:open.obj
 0001:0002fac0       ?__crtCompareStringA_stat@@YAHPEAUlocaleinfo_struct@@KKPEBDH1HH@Z 0000000180030ac0 f   LIBCMT:a_cmp.obj
 0001:00030330       ?x_ismbbtype_l@@YAHPEAUlocaleinfo_struct@@IHH@Z 0000000180031330 f   LIBCMT:ismbbyte.obj
 0001:00033350       flsall$fin$0               0000000180034350 f   LIBCMT:fflush.obj
 0001:00033380       flsall$fin$1               0000000180034380 f   LIBCMT:fflush.obj
 0001:0003339b       printf$fin$0               000000018003439b f   LIBCMT:printf.obj
 0001:000333c2       fgets$fin$0                00000001800343c2 f   LIBCMT:fgets.obj
 0001:000333dc       fwprintf$fin$0             00000001800343dc f   LIBCMT:fopen.obj
 0001:000333dc       setvbuf$fin$0              00000001800343dc f   LIBCMT:fopen.obj
 0001:000333dc       _fsopen$fin$0              00000001800343dc f   LIBCMT:fopen.obj
 0001:000333f6       fprintf$fin$0              00000001800343f6 f   LIBCMT:fprintf.obj
 0001:00033410       fseek$fin$0                0000000180034410 f   LIBCMT:fseek.obj
 0001:00033410       ftell$fin$0                0000000180034410 f   LIBCMT:fseek.obj
 0001:00033410       fclose$fin$0               0000000180034410 f   LIBCMT:fseek.obj
 0001:00033410       fflush$fin$0               0000000180034410 f   LIBCMT:fseek.obj
 0001:0003342a       getenv$fin$0               000000018003442a f   LIBCMT:getenv.obj
 0001:00033445       _CRT_INIT$fin$0            0000000180034445 f   LIBCMT:dllcrt0.obj
 0001:0003346b       __DllMainCRTStartup$filt$0 000000018003446b f   LIBCMT:dllcrt0.obj
 0001:00033489       vfprintf_helper$fin$0      0000000180034489 f   LIBCMT:vfprintf.obj
 0001:00033489       fwrite$fin$0               0000000180034489 f   LIBCMT:vfprintf.obj
 0001:000334a3       fread_s$fin$0              00000001800344a3 f   LIBCMT:fread.obj
 0001:000334bd       doexit$fin$0               00000001800344bd f   LIBCMT:crt0dat.obj
 0001:000334e1       raise$fin$0                00000001800344e1 f   LIBCMT:winsig.obj
 0001:000334ff       _fcloseall$fin$0           00000001800344ff f   LIBCMT:closeall.obj
 0001:000334ff       _getstream$fin$0           00000001800344ff f   LIBCMT:closeall.obj
 0001:0003351a       _mtinitlocknum$fin$0       000000018003451a f   LIBCMT:mlock.obj
 0001:00033538       _lseek$fin$0               0000000180034538 f   LIBCMT:write.obj
 0001:00033538       _write$fin$0               0000000180034538 f   LIBCMT:write.obj
 0001:00033538       _lseeki64$fin$0            0000000180034538 f   LIBCMT:write.obj
 0001:00033538       _read$fin$0                0000000180034538 f   LIBCMT:write.obj
 0001:00033551       _setmbcp$fin$0             0000000180034551 f   LIBCMT:mbctype.obj
 0001:00033551       __updatetmbcinfo$fin$0     0000000180034551 f   LIBCMT:mbctype.obj
 0001:0003356c       __updatetlocinfo$fin$0     000000018003456c f   LIBCMT:localref.obj
 0001:00033587       _initptd$fin$1             0000000180034587 f   LIBCMT:tidtable.obj
 0001:00033587       _freefls$fin$1             0000000180034587 f   LIBCMT:tidtable.obj
 0001:000335a7       _initptd$fin$0             00000001800345a7 f   LIBCMT:tidtable.obj
 0001:000335a7       _freefls$fin$0             00000001800345a7 f   LIBCMT:tidtable.obj
 0001:000335c2       _close$fin$0               00000001800345c2 f   LIBCMT:close.obj
 0001:000335c2       _setmode$fin$0             00000001800345c2 f   LIBCMT:close.obj
 0001:000335c2       _commit$fin$0              00000001800345c2 f   LIBCMT:close.obj
 0001:000335db       __lock_fhandle$fin$0       00000001800345db f   LIBCMT:osfinfo.obj
 0001:000335f6       _alloc_osfhnd$fin$0        00000001800345f6 f   LIBCMT:osfinfo.obj
 0001:00033616       _alloc_osfhnd$fin$1        0000000180034616 f   LIBCMT:osfinfo.obj
 0001:00033640       _IsNonwritableInCurrentImage$filt$0 0000000180034640 f   LIBCMT:pesect.obj
 0001:00033662       _onexit$fin$0              0000000180034662 f   LIBCMT:onexit.obj
 0001:00033678       _sopen_helper$fin$0        0000000180034678 f   LIBCMT:open.obj
 0001:000336d0       ??__EfnCreateToolhelp32Snapshot@@YAXXZ 00000001800346d0 f    CIL library: CIL module
 0001:00033700       ??__EfnThread32First@@YAXXZ 0000000180034700 f    CIL library: CIL module
 0001:00033730       ??__EfnThread32Next@@YAXXZ 0000000180034730 f    CIL library: CIL module
