EXPORTS
    ??0?$CLockableFlexArray@VCStaticCritSec@@@@QEAA@$$QEAV0@@Z=C:/Windows/System32/wbemcomn.??0?$CLockableFlexArray@VCStaticCritSec@@@@QEAA@$$QEAV0@@Z @1
    ??0?$CLockableFlexArray@VCStaticCritSec@@@@QEAA@AEAV0@@Z=C:/Windows/System32/wbemcomn.??0?$CLockableFlexArray@VCStaticCritSec@@@@QEAA@AEAV0@@Z @2
    ??0?$CLockableFlexArray@VCStaticCritSec@@@@QEAA@XZ=C:/Windows/System32/wbemcomn.??0?$CLockableFlexArray@VCStaticCritSec@@@@QEAA@XZ @3
    ??0?$SZLess@PEBG@@QEAA@AEBU0@@Z=C:/Windows/System32/wbemcomn.??0?$SZLess@PEBG@@QEAA@AEBU0@@Z @4
    ??0?$SZLess@PEBG@@QEAA@XZ=C:/Windows/System32/wbemcomn.??0?$SZLess@PEBG@@QEAA@XZ @5
    ??0C9XAce@@QEAA@AEBV0@@Z=C:/Windows/System32/wbemcomn.??0C9XAce@@QEAA@AEBV0@@Z @6
    ??0C9XAce@@QEAA@KKKPEAG@Z=C:/Windows/System32/wbemcomn.??0C9XAce@@QEAA@KKKPEAG@Z @7
    ??0C9XAce@@QEAA@XZ=C:/Windows/System32/wbemcomn.??0C9XAce@@QEAA@XZ @8
    ??0CAbstractQl1Parser@@QEAA@AEBV0@@Z=C:/Windows/System32/wbemcomn.??0CAbstractQl1Parser@@QEAA@AEBV0@@Z @9
    ??0CAbstractQl1Parser@@QEAA@PEAVCGenLexSource@@@Z=C:/Windows/System32/wbemcomn.??0CAbstractQl1Parser@@QEAA@PEAVCGenLexSource@@@Z @10
    ??0CArena@@QEAA@$$QEAV0@@Z=C:/Windows/System32/wbemcomn.??0CArena@@QEAA@$$QEAV0@@Z @11
    ??0CArena@@QEAA@AEBV0@@Z=C:/Windows/System32/wbemcomn.??0CArena@@QEAA@AEBV0@@Z @12
    ??0CArena@@QEAA@XZ=C:/Windows/System32/wbemcomn.??0CArena@@QEAA@XZ @13
    ??0CBaseAce@@QEAA@AEBV0@@Z=C:/Windows/System32/wbemcomn.??0CBaseAce@@QEAA@AEBV0@@Z @14
    ??0CBaseAce@@QEAA@XZ=C:/Windows/System32/wbemcomn.??0CBaseAce@@QEAA@XZ @15
    ??0CBasicUnloadInstruction@@IEAA@XZ=C:/Windows/System32/wbemcomn.??0CBasicUnloadInstruction@@IEAA@XZ @16
    ??0CBasicUnloadInstruction@@QEAA@AEBV0@@Z=C:/Windows/System32/wbemcomn.??0CBasicUnloadInstruction@@QEAA@AEBV0@@Z @17
    ??0CBasicUnloadInstruction@@QEAA@VCWbemInterval@@@Z=C:/Windows/System32/wbemcomn.??0CBasicUnloadInstruction@@QEAA@VCWbemInterval@@@Z @18
    ??0CBuffer@@QEAA@AEBV0@@Z=C:/Windows/System32/wbemcomn.??0CBuffer@@QEAA@AEBV0@@Z @19
    ??0CBuffer@@QEAA@PEAEKH@Z=C:/Windows/System32/wbemcomn.??0CBuffer@@QEAA@PEAEKH@Z @20
    ??0CCheckedInCritSec@@QEAA@PEAVCCritSec@@@Z=C:/Windows/System32/wbemcomn.??0CCheckedInCritSec@@QEAA@PEAVCCritSec@@@Z @21
    ??0CCircularQueue@@QEAA@XZ=C:/Windows/System32/wbemcomn.??0CCircularQueue@@QEAA@XZ @22
    ??0CClientOpsNode@@QEAA@XZ=C:/Windows/System32/wbemcomn.??0CClientOpsNode@@QEAA@XZ @23
    ??0CContainerControl@@QEAA@$$QEAV0@@Z=C:/Windows/System32/wbemcomn.??0CContainerControl@@QEAA@$$QEAV0@@Z @24
    ??0CContainerControl@@QEAA@AEBV0@@Z=C:/Windows/System32/wbemcomn.??0CContainerControl@@QEAA@AEBV0@@Z @25
    ??0CContainerControl@@QEAA@PEAUIUnknown@@@Z=C:/Windows/System32/wbemcomn.??0CContainerControl@@QEAA@PEAUIUnknown@@@Z @26
    ??0CCritSec@@QEAA@XZ=C:/Windows/System32/wbemcomn.??0CCritSec@@QEAA@XZ @27
    ??0CDMTFParser@@QEAA@PEBG@Z=C:/Windows/System32/wbemcomn.??0CDMTFParser@@QEAA@PEBG@Z @28
    ??0CDatePart@@QEAA@XZ=C:/Windows/System32/wbemcomn.??0CDatePart@@QEAA@XZ @29
    ??0CDateTimeParser@@IEAA@XZ=C:/Windows/System32/wbemcomn.??0CDateTimeParser@@IEAA@XZ @30
    ??0CDateTimeParser@@QEAA@PEBG@Z=C:/Windows/System32/wbemcomn.??0CDateTimeParser@@QEAA@PEBG@Z @31
    ??0CEnterWbemCriticalSection@@QEAA@PEAVCWbemCriticalSection@@K@Z=C:/Windows/System32/wbemcomn.??0CEnterWbemCriticalSection@@QEAA@PEAVCWbemCriticalSection@@K@Z @32
    ??0CEventLog@@QEAA@AEBV0@@Z=C:/Windows/System32/wbemcomn.??0CEventLog@@QEAA@AEBV0@@Z @33
    ??0CEventLog@@QEAA@PEBGAEBU_GUID@@K@Z=C:/Windows/System32/wbemcomn.??0CEventLog@@QEAA@PEBGAEBU_GUID@@K@Z @34
    ??0CEventLogRecord@@QEAA@AEAV0@@Z=C:/Windows/System32/wbemcomn.??0CEventLogRecord@@QEAA@AEAV0@@Z @35
    ??0CEventLogRecord@@QEAA@GAEBU_EVENT_DESCRIPTOR@@VCInsertionString@@111111111@Z=C:/Windows/System32/wbemcomn.??0CEventLogRecord@@QEAA@GAEBU_EVENT_DESCRIPTOR@@VCInsertionString@@111111111@Z @36
    ??0CExecQueue@@QEAA@AEAV0@@Z=C:/Windows/System32/wbemcomn.??0CExecQueue@@QEAA@AEAV0@@Z @37
    ??0CExecQueue@@QEAA@XZ=C:/Windows/System32/wbemcomn.??0CExecQueue@@QEAA@XZ @38
    ??0CExecRequest@@QEAA@AEBV0@@Z=C:/Windows/System32/wbemcomn.??0CExecRequest@@QEAA@AEBV0@@Z @39
    ??0CExecRequest@@QEAA@XZ=C:/Windows/System32/wbemcomn.??0CExecRequest@@QEAA@XZ @40
    ??0CFlexArray@@QEAA@AEAV0@@Z=C:/Windows/System32/wbemcomn.??0CFlexArray@@QEAA@AEAV0@@Z @41
    ??0CFlexArray@@QEAA@HH@Z=C:/Windows/System32/wbemcomn.??0CFlexArray@@QEAA@HH@Z @42
    ??0CFlexQueue@@QEAA@H@Z=C:/Windows/System32/wbemcomn.??0CFlexQueue@@QEAA@H@Z @43
    ??0CHaltable@@QEAA@AEBV0@@Z=C:/Windows/System32/wbemcomn.??0CHaltable@@QEAA@AEBV0@@Z @44
    ??0CHaltable@@QEAA@XZ=C:/Windows/System32/wbemcomn.??0CHaltable@@QEAA@XZ @45
    ??0CHex@@QEAA@J@Z=C:/Windows/System32/wbemcomn.??0CHex@@QEAA@J@Z @46
    ??0CIdentitySecurity@@QEAA@AEBV0@@Z=C:/Windows/System32/wbemcomn.??0CIdentitySecurity@@QEAA@AEBV0@@Z @47
    ??0CIdentitySecurity@@QEAA@_N@Z=C:/Windows/System32/wbemcomn.??0CIdentitySecurity@@QEAA@_N@Z @48
    ??0CIdentityTest@@QEAA@AEBV0@@Z=C:/Windows/System32/wbemcomn.??0CIdentityTest@@QEAA@AEBV0@@Z @49
    ??0CIdentityTest@@QEAA@PEAVCTimerInstruction@@@Z=C:/Windows/System32/wbemcomn.??0CIdentityTest@@QEAA@PEAVCTimerInstruction@@@Z @50
    ??0CInCritSec@@QEAA@PEAU_RTL_CRITICAL_SECTION@@@Z=C:/Windows/System32/wbemcomn.??0CInCritSec@@QEAA@PEAU_RTL_CRITICAL_SECTION@@@Z @51
    ??0CInsertionString@@QEAA@$$QEAV0@@Z=C:/Windows/System32/wbemcomn.??0CInsertionString@@QEAA@$$QEAV0@@Z @52
    ??0CInsertionString@@QEAA@AEBV0@@Z=C:/Windows/System32/wbemcomn.??0CInsertionString@@QEAA@AEBV0@@Z @53
    ??0CInsertionString@@QEAA@J@Z=C:/Windows/System32/wbemcomn.??0CInsertionString@@QEAA@J@Z @54
    ??0CInsertionString@@QEAA@PEBD@Z=C:/Windows/System32/wbemcomn.??0CInsertionString@@QEAA@PEBD@Z @55
    ??0CInsertionString@@QEAA@PEBG@Z=C:/Windows/System32/wbemcomn.??0CInsertionString@@QEAA@PEBG@Z @56
    ??0CInsertionString@@QEAA@VCHex@@@Z=C:/Windows/System32/wbemcomn.??0CInsertionString@@QEAA@VCHex@@@Z @57
    ??0CInsertionString@@QEAA@XZ=C:/Windows/System32/wbemcomn.??0CInsertionString@@QEAA@XZ @58
    ??0CInstructionQueue@@QEAA@XZ=C:/Windows/System32/wbemcomn.??0CInstructionQueue@@QEAA@XZ @59
    ??0CInstructionTest@@QEAA@$$QEAV0@@Z=C:/Windows/System32/wbemcomn.??0CInstructionTest@@QEAA@$$QEAV0@@Z @60
    ??0CInstructionTest@@QEAA@AEBV0@@Z=C:/Windows/System32/wbemcomn.??0CInstructionTest@@QEAA@AEBV0@@Z @61
    ??0CInstructionTest@@QEAA@XZ=C:/Windows/System32/wbemcomn.??0CInstructionTest@@QEAA@XZ @62
    ??0CLifeControl@@QEAA@$$QEAV0@@Z=C:/Windows/System32/wbemcomn.??0CLifeControl@@QEAA@$$QEAV0@@Z @63
    ??0CLifeControl@@QEAA@AEBV0@@Z=C:/Windows/System32/wbemcomn.??0CLifeControl@@QEAA@AEBV0@@Z @64
    ??0CLifeControl@@QEAA@XZ=C:/Windows/System32/wbemcomn.??0CLifeControl@@QEAA@XZ @65
    ??0CLike@@QEAA@AEBV0@@Z=C:/Windows/System32/wbemcomn.??0CLike@@QEAA@AEBV0@@Z @66
    ??0CLike@@QEAA@PEBGG@Z=C:/Windows/System32/wbemcomn.??0CLike@@QEAA@PEBGG@Z @67
    ??0CLike@@QEAA@XZ=C:/Windows/System32/wbemcomn.??0CLike@@QEAA@XZ @68
    ??0CLimitControl@@QEAA@AEBV0@@Z=C:/Windows/System32/wbemcomn.??0CLimitControl@@QEAA@AEBV0@@Z @69
    ??0CLimitControl@@QEAA@XZ=C:/Windows/System32/wbemcomn.??0CLimitControl@@QEAA@XZ @70
    ??0CMRCICompression@@QEAA@XZ=C:/Windows/System32/wbemcomn.??0CMRCICompression@@QEAA@XZ @71
    ??0CMRCIControl@@QEAA@XZ=C:/Windows/System32/wbemcomn.??0CMRCIControl@@QEAA@XZ @72
    ??0CMUILocaleList@@QEAA@XZ=C:/Windows/System32/wbemcomn.??0CMUILocaleList@@QEAA@XZ @73
    ??0CMemoryLog@@QEAA@XZ=C:/Windows/System32/wbemcomn.??0CMemoryLog@@QEAA@XZ @74
    ??0CMinMaxLimitControl@@QEAA@$$QEAV0@@Z=C:/Windows/System32/wbemcomn.??0CMinMaxLimitControl@@QEAA@$$QEAV0@@Z @75
    ??0CMinMaxLimitControl@@QEAA@AEBV0@@Z=C:/Windows/System32/wbemcomn.??0CMinMaxLimitControl@@QEAA@AEBV0@@Z @76
    ??0CMinMaxLimitControl@@QEAA@HPEBG@Z=C:/Windows/System32/wbemcomn.??0CMinMaxLimitControl@@QEAA@HPEBG@Z @77
    ??0CNtAce@@QEAA@AEBV0@@Z=C:/Windows/System32/wbemcomn.??0CNtAce@@QEAA@AEBV0@@Z @78
    ??0CNtAce@@QEAA@KKKAEAVCNtSid@@@Z=C:/Windows/System32/wbemcomn.??0CNtAce@@QEAA@KKKAEAVCNtSid@@@Z @79
    ??0CNtAce@@QEAA@KKKPEAG@Z=C:/Windows/System32/wbemcomn.??0CNtAce@@QEAA@KKKPEAG@Z @80
    ??0CNtAce@@QEAA@PEAU_ACCESS_ALLOWED_ACE@@@Z=C:/Windows/System32/wbemcomn.??0CNtAce@@QEAA@PEAU_ACCESS_ALLOWED_ACE@@@Z @81
    ??0CNtAce@@QEAA@XZ=C:/Windows/System32/wbemcomn.??0CNtAce@@QEAA@XZ @82
    ??0CNtAcl@@QEAA@AEBV0@@Z=C:/Windows/System32/wbemcomn.??0CNtAcl@@QEAA@AEBV0@@Z @83
    ??0CNtAcl@@QEAA@K@Z=C:/Windows/System32/wbemcomn.??0CNtAcl@@QEAA@K@Z @84
    ??0CNtAcl@@QEAA@PEAU_ACL@@@Z=C:/Windows/System32/wbemcomn.??0CNtAcl@@QEAA@PEAU_ACL@@@Z @85
    ??0CNtSecurityDescriptor@@QEAA@AEAV0@@Z=C:/Windows/System32/wbemcomn.??0CNtSecurityDescriptor@@QEAA@AEAV0@@Z @86
    ??0CNtSecurityDescriptor@@QEAA@PEAX@Z=C:/Windows/System32/wbemcomn.??0CNtSecurityDescriptor@@QEAA@PEAX@Z @87
    ??0CNtSecurityDescriptor@@QEAA@XZ=C:/Windows/System32/wbemcomn.??0CNtSecurityDescriptor@@QEAA@XZ @88
    ??0CNtSid@@QEAA@AEBV0@@Z=C:/Windows/System32/wbemcomn.??0CNtSid@@QEAA@AEBV0@@Z @89
    ??0CNtSid@@QEAA@PEAG@Z=C:/Windows/System32/wbemcomn.??0CNtSid@@QEAA@PEAG@Z @90
    ??0CNtSid@@QEAA@PEAX@Z=C:/Windows/System32/wbemcomn.??0CNtSid@@QEAA@PEAX@Z @91
    ??0CNtSid@@QEAA@W4SidType@0@@Z=C:/Windows/System32/wbemcomn.??0CNtSid@@QEAA@W4SidType@0@@Z @92
    ??0CNtSid@@QEAA@XZ=C:/Windows/System32/wbemcomn.??0CNtSid@@QEAA@XZ @93
    ??0CPropertyName@@QEAA@AEBV0@@Z=C:/Windows/System32/wbemcomn.??0CPropertyName@@QEAA@AEBV0@@Z @94
    ??0CPropertyName@@QEAA@XZ=C:/Windows/System32/wbemcomn.??0CPropertyName@@QEAA@XZ @95
    ??0CQl1ParseSink@@QEAA@$$QEAV0@@Z=C:/Windows/System32/wbemcomn.??0CQl1ParseSink@@QEAA@$$QEAV0@@Z @96
    ??0CQl1ParseSink@@QEAA@AEBV0@@Z=C:/Windows/System32/wbemcomn.??0CQl1ParseSink@@QEAA@AEBV0@@Z @97
    ??0CQl1ParseSink@@QEAA@XZ=C:/Windows/System32/wbemcomn.??0CQl1ParseSink@@QEAA@XZ @98
    ??0CRegistryMinMaxLimitControl@@QEAA@$$QEAV0@@Z=C:/Windows/System32/wbemcomn.??0CRegistryMinMaxLimitControl@@QEAA@$$QEAV0@@Z @99
    ??0CRegistryMinMaxLimitControl@@QEAA@AEBV0@@Z=C:/Windows/System32/wbemcomn.??0CRegistryMinMaxLimitControl@@QEAA@AEBV0@@Z @100
    ??0CRegistryMinMaxLimitControl@@QEAA@HPEBG0000@Z=C:/Windows/System32/wbemcomn.??0CRegistryMinMaxLimitControl@@QEAA@HPEBG0000@Z @101
    ??0CSafeArray@@QEAA@AEAV0@@Z=C:/Windows/System32/wbemcomn.??0CSafeArray@@QEAA@AEAV0@@Z @102
    ??0CSafeArray@@QEAA@HHHH@Z=C:/Windows/System32/wbemcomn.??0CSafeArray@@QEAA@HHHH@Z @103
    ??0CSafeArray@@QEAA@PEAUtagSAFEARRAY@@HHH@Z=C:/Windows/System32/wbemcomn.??0CSafeArray@@QEAA@PEAUtagSAFEARRAY@@HHH@Z @104
    ??0CStaticCritSec@@QEAA@XZ=C:/Windows/System32/wbemcomn.??0CStaticCritSec@@QEAA@XZ @105
    ??0CTextTemplate@@QEAA@AEBV0@@Z=C:/Windows/System32/wbemcomn.??0CTextTemplate@@QEAA@AEBV0@@Z @106
    ??0CTextTemplate@@QEAA@PEBG@Z=C:/Windows/System32/wbemcomn.??0CTextTemplate@@QEAA@PEBG@Z @107
    ??0CTimerGenerator@@QEAA@AEBV0@@Z=C:/Windows/System32/wbemcomn.??0CTimerGenerator@@QEAA@AEBV0@@Z @108
    ??0CTimerGenerator@@QEAA@XZ=C:/Windows/System32/wbemcomn.??0CTimerGenerator@@QEAA@XZ @109
    ??0CTimerInstruction@@QEAA@AEBV0@@Z=C:/Windows/System32/wbemcomn.??0CTimerInstruction@@QEAA@AEBV0@@Z @110
    ??0CTimerInstruction@@QEAA@XZ=C:/Windows/System32/wbemcomn.??0CTimerInstruction@@QEAA@XZ @111
    ??0CTraceSessionControl@@QEAA@XZ=C:/Windows/System32/wbemcomn.??0CTraceSessionControl@@QEAA@XZ @112
    ??0CUnk@@QEAA@AEBV0@@Z=C:/Windows/System32/wbemcomn.??0CUnk@@QEAA@AEBV0@@Z @113
    ??0CUnk@@QEAA@PEAVCLifeControl@@PEAUIUnknown@@@Z=C:/Windows/System32/wbemcomn.??0CUnk@@QEAA@PEAVCLifeControl@@PEAUIUnknown@@@Z @114
    ??0CUnkInternal@@QEAA@AEBV0@@Z=C:/Windows/System32/wbemcomn.??0CUnkInternal@@QEAA@AEBV0@@Z @115
    ??0CUnkInternal@@QEAA@PEAVCLifeControl@@@Z=C:/Windows/System32/wbemcomn.??0CUnkInternal@@QEAA@PEAVCLifeControl@@@Z @116
    ??0CVar@@QEAA@AEBV0@@Z=C:/Windows/System32/wbemcomn.??0CVar@@QEAA@AEBV0@@Z @117
    ??0CVar@@QEAA@D@Z=C:/Windows/System32/wbemcomn.??0CVar@@QEAA@D@Z @118
    ??0CVar@@QEAA@E@Z=C:/Windows/System32/wbemcomn.??0CVar@@QEAA@E@Z @119
    ??0CVar@@QEAA@F@Z=C:/Windows/System32/wbemcomn.??0CVar@@QEAA@F@Z @120
    ??0CVar@@QEAA@FH@Z=C:/Windows/System32/wbemcomn.??0CVar@@QEAA@FH@Z @121
    ??0CVar@@QEAA@G@Z=C:/Windows/System32/wbemcomn.??0CVar@@QEAA@G@Z @122
    ??0CVar@@QEAA@HPEAG@Z=C:/Windows/System32/wbemcomn.??0CVar@@QEAA@HPEAG@Z @123
    ??0CVar@@QEAA@HPEAUtagSAFEARRAY@@@Z=C:/Windows/System32/wbemcomn.??0CVar@@QEAA@HPEAUtagSAFEARRAY@@@Z @124
    ??0CVar@@QEAA@HVauto_bstr@@@Z=C:/Windows/System32/wbemcomn.??0CVar@@QEAA@HVauto_bstr@@@Z @125
    ??0CVar@@QEAA@J@Z=C:/Windows/System32/wbemcomn.??0CVar@@QEAA@J@Z @126
    ??0CVar@@QEAA@K@Z=C:/Windows/System32/wbemcomn.??0CVar@@QEAA@K@Z @127
    ??0CVar@@QEAA@M@Z=C:/Windows/System32/wbemcomn.??0CVar@@QEAA@M@Z @128
    ??0CVar@@QEAA@N@Z=C:/Windows/System32/wbemcomn.??0CVar@@QEAA@N@Z @129
    ??0CVar@@QEAA@PEADH@Z=C:/Windows/System32/wbemcomn.??0CVar@@QEAA@PEADH@Z @130
    ??0CVar@@QEAA@PEAGH@Z=C:/Windows/System32/wbemcomn.??0CVar@@QEAA@PEAGH@Z @131
    ??0CVar@@QEAA@PEAU_FILETIME@@@Z=C:/Windows/System32/wbemcomn.??0CVar@@QEAA@PEAU_FILETIME@@@Z @132
    ??0CVar@@QEAA@PEAU_GUID@@H@Z=C:/Windows/System32/wbemcomn.??0CVar@@QEAA@PEAU_GUID@@H@Z @133
    ??0CVar@@QEAA@PEAUtagBLOB@@H@Z=C:/Windows/System32/wbemcomn.??0CVar@@QEAA@PEAUtagBLOB@@H@Z @134
    ??0CVar@@QEAA@PEAUtagVARIANT@@@Z=C:/Windows/System32/wbemcomn.??0CVar@@QEAA@PEAUtagVARIANT@@@Z @135
    ??0CVar@@QEAA@PEAVCVarVector@@H@Z=C:/Windows/System32/wbemcomn.??0CVar@@QEAA@PEAVCVarVector@@H@Z @136
    ??0CVar@@QEAA@XZ=C:/Windows/System32/wbemcomn.??0CVar@@QEAA@XZ @137
    ??0CVarVector@@QEAA@AEAV0@@Z=C:/Windows/System32/wbemcomn.??0CVarVector@@QEAA@AEAV0@@Z @138
    ??0CVarVector@@QEAA@HHH@Z=C:/Windows/System32/wbemcomn.??0CVarVector@@QEAA@HHH@Z @139
    ??0CVarVector@@QEAA@HPEAUtagSAFEARRAY@@H@Z=C:/Windows/System32/wbemcomn.??0CVarVector@@QEAA@HPEAUtagSAFEARRAY@@H@Z @140
    ??0CVarVector@@QEAA@XZ=C:/Windows/System32/wbemcomn.??0CVarVector@@QEAA@XZ @141
    ??0CWMITraceSettings@@QEAA@XZ=C:/Windows/System32/wbemcomn.??0CWMITraceSettings@@QEAA@XZ @142
    ??0CWQLScanner@@QEAA@AEAV0@@Z=C:/Windows/System32/wbemcomn.??0CWQLScanner@@QEAA@AEAV0@@Z @143
    ??0CWQLScanner@@QEAA@PEAVCGenLexSource@@@Z=C:/Windows/System32/wbemcomn.??0CWQLScanner@@QEAA@PEAVCGenLexSource@@@Z @144
    ??0CWStringArray@@QEAA@AEAV0@@Z=C:/Windows/System32/wbemcomn.??0CWStringArray@@QEAA@AEAV0@@Z @145
    ??0CWStringArray@@QEAA@HH@Z=C:/Windows/System32/wbemcomn.??0CWStringArray@@QEAA@HH@Z @146
    ??0CWbemCallSecurity@@AEAA@AEBV0@@Z=C:/Windows/System32/wbemcomn.??0CWbemCallSecurity@@AEAA@AEBV0@@Z @147
    ??0CWbemCallSecurity@@AEAA@XZ=C:/Windows/System32/wbemcomn.??0CWbemCallSecurity@@AEAA@XZ @148
    ??0CWbemCriticalSection@@QEAA@XZ=C:/Windows/System32/wbemcomn.??0CWbemCriticalSection@@QEAA@XZ @149
    ??0CWbemInstallObject@@QEAA@XZ=C:/Windows/System32/wbemcomn.??0CWbemInstallObject@@QEAA@XZ @150
    ??0CWbemInterval@@IEAA@K@Z=C:/Windows/System32/wbemcomn.??0CWbemInterval@@IEAA@K@Z @151
    ??0CWbemInterval@@QEAA@XZ=C:/Windows/System32/wbemcomn.??0CWbemInterval@@QEAA@XZ @152
    ??0CWbemTime@@IEAA@_J@Z=C:/Windows/System32/wbemcomn.??0CWbemTime@@IEAA@_J@Z @153
    ??0CWbemTime@@QEAA@AEBV0@@Z=C:/Windows/System32/wbemcomn.??0CWbemTime@@QEAA@AEBV0@@Z @154
    ??0CWbemTime@@QEAA@XZ=C:/Windows/System32/wbemcomn.??0CWbemTime@@QEAA@XZ @155
    ??0CWbemTimeSpan@@QEAA@HHHHHHH@Z=C:/Windows/System32/wbemcomn.??0CWbemTimeSpan@@QEAA@HHHHHHH@Z @156
    ??0CWin32DefaultArena@@QEAA@AEBV0@@Z=C:/Windows/System32/wbemcomn.??0CWin32DefaultArena@@QEAA@AEBV0@@Z @157
    ??0CWin32DefaultArena@@QEAA@XZ=C:/Windows/System32/wbemcomn.??0CWin32DefaultArena@@QEAA@XZ @158
    ??0QL1_Parser@@QEAA@AEBV0@@Z=C:/Windows/System32/wbemcomn.??0QL1_Parser@@QEAA@AEBV0@@Z @159
    ??0QL1_Parser@@QEAA@PEAVCGenLexSource@@@Z=C:/Windows/System32/wbemcomn.??0QL1_Parser@@QEAA@PEAVCGenLexSource@@@Z @160
    ??0QL_LEVEL_1_RPN_EXPRESSION@@QEAA@AEBU0@@Z=C:/Windows/System32/wbemcomn.??0QL_LEVEL_1_RPN_EXPRESSION@@QEAA@AEBU0@@Z @161
    ??0QL_LEVEL_1_RPN_EXPRESSION@@QEAA@XZ=C:/Windows/System32/wbemcomn.??0QL_LEVEL_1_RPN_EXPRESSION@@QEAA@XZ @162
    ??0QL_LEVEL_1_TOKEN@@QEAA@AEBU0@@Z=C:/Windows/System32/wbemcomn.??0QL_LEVEL_1_TOKEN@@QEAA@AEBU0@@Z @163
    ??0QL_LEVEL_1_TOKEN@@QEAA@XZ=C:/Windows/System32/wbemcomn.??0QL_LEVEL_1_TOKEN@@QEAA@XZ @164
    ??0Registry@@QEAA@PEAUHKEY__@@KKPEBG@Z=C:/Windows/System32/wbemcomn.??0Registry@@QEAA@PEAUHKEY__@@KKPEBG@Z @165
    ??0Registry@@QEAA@PEAUHKEY__@@KPEBG@Z=C:/Windows/System32/wbemcomn.??0Registry@@QEAA@PEAUHKEY__@@KPEBG@Z @166
    ??0Registry@@QEAA@PEBGK@Z=C:/Windows/System32/wbemcomn.??0Registry@@QEAA@PEBGK@Z @167
    ??0Registry@@QEAA@XZ=C:/Windows/System32/wbemcomn.??0Registry@@QEAA@XZ @168
    ??0WString2@@QEAA@AEBV0@@Z=C:/Windows/System32/wbemcomn.??0WString2@@QEAA@AEBV0@@Z @169
    ??0WString2@@QEAA@KPEAUHINSTANCE__@@@Z=C:/Windows/System32/wbemcomn.??0WString2@@QEAA@KPEAUHINSTANCE__@@@Z @170
    ??0WString2@@QEAA@PEAGH@Z=C:/Windows/System32/wbemcomn.??0WString2@@QEAA@PEAGH@Z @171
    ??0WString2@@QEAA@PEBD@Z=C:/Windows/System32/wbemcomn.??0WString2@@QEAA@PEBD@Z @172
    ??0WString2@@QEAA@PEBG@Z=C:/Windows/System32/wbemcomn.??0WString2@@QEAA@PEBG@Z @173
    ??0WString2@@QEAA@XZ=C:/Windows/System32/wbemcomn.??0WString2@@QEAA@XZ @174
    ??0WString2@@QEAA@_K@Z=C:/Windows/System32/wbemcomn.??0WString2@@QEAA@_K@Z @175
    ??0WString@@QEAA@AEBV0@@Z=C:/Windows/System32/wbemcomn.??0WString@@QEAA@AEBV0@@Z @176
    ??0WString@@QEAA@KPEAUHINSTANCE__@@@Z=C:/Windows/System32/wbemcomn.??0WString@@QEAA@KPEAUHINSTANCE__@@@Z @177
    ??0WString@@QEAA@PEAGH@Z=C:/Windows/System32/wbemcomn.??0WString@@QEAA@PEAGH@Z @178
    ??0WString@@QEAA@PEBD@Z=C:/Windows/System32/wbemcomn.??0WString@@QEAA@PEBD@Z @179
    ??0WString@@QEAA@PEBG@Z=C:/Windows/System32/wbemcomn.??0WString@@QEAA@PEBG@Z @180
    ??0WString@@QEAA@XZ=C:/Windows/System32/wbemcomn.??0WString@@QEAA@XZ @181
    ??1?$CLockableFlexArray@VCStaticCritSec@@@@QEAA@XZ=C:/Windows/System32/wbemcomn.??1?$CLockableFlexArray@VCStaticCritSec@@@@QEAA@XZ @182
    ??1?$SZLess@PEBG@@UEAA@XZ=C:/Windows/System32/wbemcomn.??1?$SZLess@PEBG@@UEAA@XZ @183
    ??1C9XAce@@UEAA@XZ=C:/Windows/System32/wbemcomn.??1C9XAce@@UEAA@XZ @184
    ??1CAbstractQl1Parser@@UEAA@XZ=C:/Windows/System32/wbemcomn.??1CAbstractQl1Parser@@UEAA@XZ @185
    ??1CBaseAce@@UEAA@XZ=C:/Windows/System32/wbemcomn.??1CBaseAce@@UEAA@XZ @186
    ??1CBasicUnloadInstruction@@UEAA@XZ=C:/Windows/System32/wbemcomn.??1CBasicUnloadInstruction@@UEAA@XZ @187
    ??1CBuffer@@QEAA@XZ=C:/Windows/System32/wbemcomn.??1CBuffer@@QEAA@XZ @188
    ??1CCheckedInCritSec@@QEAA@XZ=C:/Windows/System32/wbemcomn.??1CCheckedInCritSec@@QEAA@XZ @189
    ??1CClientOpsNode@@QEAA@XZ=C:/Windows/System32/wbemcomn.??1CClientOpsNode@@QEAA@XZ @190
    ??1CCritSec@@QEAA@XZ=C:/Windows/System32/wbemcomn.??1CCritSec@@QEAA@XZ @191
    ??1CDMTFParser@@QEAA@XZ=C:/Windows/System32/wbemcomn.??1CDMTFParser@@QEAA@XZ @192
    ??1CDatePart@@QEAA@XZ=C:/Windows/System32/wbemcomn.??1CDatePart@@QEAA@XZ @193
    ??1CDateTimeParser@@QEAA@XZ=C:/Windows/System32/wbemcomn.??1CDateTimeParser@@QEAA@XZ @194
    ??1CEnterWbemCriticalSection@@QEAA@XZ=C:/Windows/System32/wbemcomn.??1CEnterWbemCriticalSection@@QEAA@XZ @195
    ??1CEventLog@@QEAA@XZ=C:/Windows/System32/wbemcomn.??1CEventLog@@QEAA@XZ @196
    ??1CEventLogRecord@@QEAA@XZ=C:/Windows/System32/wbemcomn.??1CEventLogRecord@@QEAA@XZ @197
    ??1CExecQueue@@QEAA@XZ=C:/Windows/System32/wbemcomn.??1CExecQueue@@QEAA@XZ @198
    ??1CExecRequest@@UEAA@XZ=C:/Windows/System32/wbemcomn.??1CExecRequest@@UEAA@XZ @199
    ??1CFlexArray@@QEAA@XZ=C:/Windows/System32/wbemcomn.??1CFlexArray@@QEAA@XZ @200
    ??1CFlexQueue@@QEAA@XZ=C:/Windows/System32/wbemcomn.??1CFlexQueue@@QEAA@XZ @201
    ??1CHaltable@@UEAA@XZ=C:/Windows/System32/wbemcomn.??1CHaltable@@UEAA@XZ @202
    ??1CIdentitySecurity@@QEAA@XZ=C:/Windows/System32/wbemcomn.??1CIdentitySecurity@@QEAA@XZ @203
    ??1CIdentityTest@@QEAA@XZ=C:/Windows/System32/wbemcomn.??1CIdentityTest@@QEAA@XZ @204
    ??1CInCritSec@@QEAA@XZ=C:/Windows/System32/wbemcomn.??1CInCritSec@@QEAA@XZ @205
    ??1CInsertionString@@QEAA@XZ=C:/Windows/System32/wbemcomn.??1CInsertionString@@QEAA@XZ @206
    ??1CInstructionQueue@@QEAA@XZ=C:/Windows/System32/wbemcomn.??1CInstructionQueue@@QEAA@XZ @207
    ??1CLike@@QEAA@XZ=C:/Windows/System32/wbemcomn.??1CLike@@QEAA@XZ @208
    ??1CLimitControl@@UEAA@XZ=C:/Windows/System32/wbemcomn.??1CLimitControl@@UEAA@XZ @209
    ??1CMRCICompression@@QEAA@XZ=C:/Windows/System32/wbemcomn.??1CMRCICompression@@QEAA@XZ @210
    ??1CMUILocaleList@@QEAA@XZ=C:/Windows/System32/wbemcomn.??1CMUILocaleList@@QEAA@XZ @211
    ??1CMinMaxLimitControl@@UEAA@XZ=C:/Windows/System32/wbemcomn.??1CMinMaxLimitControl@@UEAA@XZ @212
    ??1CNtAce@@UEAA@XZ=C:/Windows/System32/wbemcomn.??1CNtAce@@UEAA@XZ @213
    ??1CNtAcl@@QEAA@XZ=C:/Windows/System32/wbemcomn.??1CNtAcl@@QEAA@XZ @214
    ??1CNtSecurityDescriptor@@QEAA@XZ=C:/Windows/System32/wbemcomn.??1CNtSecurityDescriptor@@QEAA@XZ @215
    ??1CNtSid@@QEAA@XZ=C:/Windows/System32/wbemcomn.??1CNtSid@@QEAA@XZ @216
    ??1CPropertyName@@QEAA@XZ=C:/Windows/System32/wbemcomn.??1CPropertyName@@QEAA@XZ @217
    ??1CPublishWMIOperationEvent@@QEAA@XZ=C:/Windows/System32/wbemcomn.??1CPublishWMIOperationEvent@@QEAA@XZ @218
    ??1CRegistryMinMaxLimitControl@@UEAA@XZ=C:/Windows/System32/wbemcomn.??1CRegistryMinMaxLimitControl@@UEAA@XZ @219
    ??1CSafeArray@@QEAA@XZ=C:/Windows/System32/wbemcomn.??1CSafeArray@@QEAA@XZ @220
    ??1CStaticCritSec@@QEAA@XZ=C:/Windows/System32/wbemcomn.??1CStaticCritSec@@QEAA@XZ @221
    ??1CTextTemplate@@QEAA@XZ=C:/Windows/System32/wbemcomn.??1CTextTemplate@@QEAA@XZ @222
    ??1CTimerGenerator@@UEAA@XZ=C:/Windows/System32/wbemcomn.??1CTimerGenerator@@UEAA@XZ @223
    ??1CTimerInstruction@@UEAA@XZ=C:/Windows/System32/wbemcomn.??1CTimerInstruction@@UEAA@XZ @224
    ??1CUnk@@UEAA@XZ=C:/Windows/System32/wbemcomn.??1CUnk@@UEAA@XZ @225
    ??1CUnkInternal@@UEAA@XZ=C:/Windows/System32/wbemcomn.??1CUnkInternal@@UEAA@XZ @226
    ??1CVar@@QEAA@XZ=C:/Windows/System32/wbemcomn.??1CVar@@QEAA@XZ @227
    ??1CVarVector@@QEAA@XZ=C:/Windows/System32/wbemcomn.??1CVarVector@@QEAA@XZ @228
    ??1CWQLScanner@@QEAA@XZ=C:/Windows/System32/wbemcomn.??1CWQLScanner@@QEAA@XZ @229
    ??1CWStringArray@@QEAA@XZ=C:/Windows/System32/wbemcomn.??1CWStringArray@@QEAA@XZ @230
    ??1CWbemCallSecurity@@AEAA@XZ=C:/Windows/System32/wbemcomn.??1CWbemCallSecurity@@AEAA@XZ @231
    ??1CWbemCriticalSection@@QEAA@XZ=C:/Windows/System32/wbemcomn.??1CWbemCriticalSection@@QEAA@XZ @232
    ??1CWbemInstallObject@@QEAA@XZ=C:/Windows/System32/wbemcomn.??1CWbemInstallObject@@QEAA@XZ @233
    ??1CWin32DefaultArena@@QEAA@XZ=C:/Windows/System32/wbemcomn.??1CWin32DefaultArena@@QEAA@XZ @234
    ??1QL1_Parser@@UEAA@XZ=C:/Windows/System32/wbemcomn.??1QL1_Parser@@UEAA@XZ @235
    ??1QL_LEVEL_1_RPN_EXPRESSION@@QEAA@XZ=C:/Windows/System32/wbemcomn.??1QL_LEVEL_1_RPN_EXPRESSION@@QEAA@XZ @236
    ??1QL_LEVEL_1_TOKEN@@QEAA@XZ=C:/Windows/System32/wbemcomn.??1QL_LEVEL_1_TOKEN@@QEAA@XZ @237
    ??1Registry@@QEAA@XZ=C:/Windows/System32/wbemcomn.??1Registry@@QEAA@XZ @238
    ??1WString2@@QEAA@XZ=C:/Windows/System32/wbemcomn.??1WString2@@QEAA@XZ @239
    ??1WString@@QEAA@XZ=C:/Windows/System32/wbemcomn.??1WString@@QEAA@XZ @240
    ??4?$CLockableFlexArray@VCStaticCritSec@@@@QEAAAEAV0@$$QEAV0@@Z=C:/Windows/System32/wbemcomn.??4?$CLockableFlexArray@VCStaticCritSec@@@@QEAAAEAV0@$$QEAV0@@Z @241
    ??4?$CLockableFlexArray@VCStaticCritSec@@@@QEAAAEAV0@AEAV0@@Z=C:/Windows/System32/wbemcomn.??4?$CLockableFlexArray@VCStaticCritSec@@@@QEAAAEAV0@AEAV0@@Z @242
    ??4?$SZLess@PEBG@@QEAAAEAU0@AEBU0@@Z=C:/Windows/System32/wbemcomn.??4?$SZLess@PEBG@@QEAAAEAU0@AEBU0@@Z @243
    ??4C9XAce@@QEAAAEAV0@AEBV0@@Z=C:/Windows/System32/wbemcomn.??4C9XAce@@QEAAAEAV0@AEBV0@@Z @244
    ??4CAbstractQl1Parser@@QEAAAEAV0@AEBV0@@Z=C:/Windows/System32/wbemcomn.??4CAbstractQl1Parser@@QEAAAEAV0@AEBV0@@Z @245
    ??4CArena@@QEAAAEAV0@$$QEAV0@@Z=C:/Windows/System32/wbemcomn.??4CArena@@QEAAAEAV0@$$QEAV0@@Z @246
    ??4CArena@@QEAAAEAV0@AEBV0@@Z=C:/Windows/System32/wbemcomn.??4CArena@@QEAAAEAV0@AEBV0@@Z @247
    ??4CBaseAce@@QEAAAEAV0@AEBV0@@Z=C:/Windows/System32/wbemcomn.??4CBaseAce@@QEAAAEAV0@AEBV0@@Z @248
    ??4CBaseMrciCompression@@QEAAAEAV0@$$QEAV0@@Z=C:/Windows/System32/wbemcomn.??4CBaseMrciCompression@@QEAAAEAV0@$$QEAV0@@Z @249
    ??4CBaseMrciCompression@@QEAAAEAV0@AEBV0@@Z=C:/Windows/System32/wbemcomn.??4CBaseMrciCompression@@QEAAAEAV0@AEBV0@@Z @250
    ??4CBasicUnloadInstruction@@QEAAAEAV0@AEBV0@@Z=C:/Windows/System32/wbemcomn.??4CBasicUnloadInstruction@@QEAAAEAV0@AEBV0@@Z @251
    ??4CBuffer@@QEAAAEAV0@AEBV0@@Z=C:/Windows/System32/wbemcomn.??4CBuffer@@QEAAAEAV0@AEBV0@@Z @252
    ??4CCheckedInCritSec@@QEAAAEAV0@AEBV0@@Z=C:/Windows/System32/wbemcomn.??4CCheckedInCritSec@@QEAAAEAV0@AEBV0@@Z @253
    ??4CCircularQueue@@QEAAAEAV0@$$QEAV0@@Z=C:/Windows/System32/wbemcomn.??4CCircularQueue@@QEAAAEAV0@$$QEAV0@@Z @254
    ??4CCircularQueue@@QEAAAEAV0@AEBV0@@Z=C:/Windows/System32/wbemcomn.??4CCircularQueue@@QEAAAEAV0@AEBV0@@Z @255
    ??4CClientOpsNode@@QEAAAEAV0@AEBV0@@Z=C:/Windows/System32/wbemcomn.??4CClientOpsNode@@QEAAAEAV0@AEBV0@@Z @256
    ??4CContainerControl@@QEAAAEAV0@$$QEAV0@@Z=C:/Windows/System32/wbemcomn.??4CContainerControl@@QEAAAEAV0@$$QEAV0@@Z @257
    ??4CContainerControl@@QEAAAEAV0@AEBV0@@Z=C:/Windows/System32/wbemcomn.??4CContainerControl@@QEAAAEAV0@AEBV0@@Z @258
    ??4CCritSec@@QEAAAEAV0@AEBV0@@Z=C:/Windows/System32/wbemcomn.??4CCritSec@@QEAAAEAV0@AEBV0@@Z @259
    ??4CDMTFParser@@QEAAAEAV0@AEBV0@@Z=C:/Windows/System32/wbemcomn.??4CDMTFParser@@QEAAAEAV0@AEBV0@@Z @260
    ??4CDatePart@@QEAAAEAV0@AEBV0@@Z=C:/Windows/System32/wbemcomn.??4CDatePart@@QEAAAEAV0@AEBV0@@Z @261
    ??4CDateTimeParser@@QEAAAEAV0@AEBV0@@Z=C:/Windows/System32/wbemcomn.??4CDateTimeParser@@QEAAAEAV0@AEBV0@@Z @262
    ??4CEnterWbemCriticalSection@@QEAAAEAV0@AEBV0@@Z=C:/Windows/System32/wbemcomn.??4CEnterWbemCriticalSection@@QEAAAEAV0@AEBV0@@Z @263
    ??4CExecQueue@@QEAAAEAV0@AEAV0@@Z=C:/Windows/System32/wbemcomn.??4CExecQueue@@QEAAAEAV0@AEAV0@@Z @264
    ??4CExecRequest@@QEAAAEAV0@AEBV0@@Z=C:/Windows/System32/wbemcomn.??4CExecRequest@@QEAAAEAV0@AEBV0@@Z @265
    ??4CFlexArray@@QEAAAEAV0@AEAV0@@Z=C:/Windows/System32/wbemcomn.??4CFlexArray@@QEAAAEAV0@AEAV0@@Z @266
    ??4CFlexQueue@@QEAAAEAV0@AEBV0@@Z=C:/Windows/System32/wbemcomn.??4CFlexQueue@@QEAAAEAV0@AEBV0@@Z @267
    ??4CHaltable@@QEAAAEAV0@AEBV0@@Z=C:/Windows/System32/wbemcomn.??4CHaltable@@QEAAAEAV0@AEBV0@@Z @268
    ??4CHex@@QEAAAEAV0@$$QEAV0@@Z=C:/Windows/System32/wbemcomn.??4CHex@@QEAAAEAV0@$$QEAV0@@Z @269
    ??4CHex@@QEAAAEAV0@AEBV0@@Z=C:/Windows/System32/wbemcomn.??4CHex@@QEAAAEAV0@AEBV0@@Z @270
    ??4CIdentitySecurity@@QEAAAEAV0@AEBV0@@Z=C:/Windows/System32/wbemcomn.??4CIdentitySecurity@@QEAAAEAV0@AEBV0@@Z @271
    ??4CIdentityTest@@QEAAAEAV0@AEBV0@@Z=C:/Windows/System32/wbemcomn.??4CIdentityTest@@QEAAAEAV0@AEBV0@@Z @272
    ??4CInCritSec@@QEAAAEAV0@AEBV0@@Z=C:/Windows/System32/wbemcomn.??4CInCritSec@@QEAAAEAV0@AEBV0@@Z @273
    ??4CInsertionString@@QEAAAEAV0@$$QEAV0@@Z=C:/Windows/System32/wbemcomn.??4CInsertionString@@QEAAAEAV0@$$QEAV0@@Z @274
    ??4CInsertionString@@QEAAAEAV0@AEBV0@@Z=C:/Windows/System32/wbemcomn.??4CInsertionString@@QEAAAEAV0@AEBV0@@Z @275
    ??4CInstructionQueue@@QEAAAEAV0@AEBV0@@Z=C:/Windows/System32/wbemcomn.??4CInstructionQueue@@QEAAAEAV0@AEBV0@@Z @276
    ??4CInstructionTest@@QEAAAEAV0@$$QEAV0@@Z=C:/Windows/System32/wbemcomn.??4CInstructionTest@@QEAAAEAV0@$$QEAV0@@Z @277
    ??4CInstructionTest@@QEAAAEAV0@AEBV0@@Z=C:/Windows/System32/wbemcomn.??4CInstructionTest@@QEAAAEAV0@AEBV0@@Z @278
    ??4CLifeControl@@QEAAAEAV0@$$QEAV0@@Z=C:/Windows/System32/wbemcomn.??4CLifeControl@@QEAAAEAV0@$$QEAV0@@Z @279
    ??4CLifeControl@@QEAAAEAV0@AEBV0@@Z=C:/Windows/System32/wbemcomn.??4CLifeControl@@QEAAAEAV0@AEBV0@@Z @280
    ??4CLike@@QEAAAEAV0@AEBV0@@Z=C:/Windows/System32/wbemcomn.??4CLike@@QEAAAEAV0@AEBV0@@Z @281
    ??4CLimitControl@@QEAAAEAV0@AEBV0@@Z=C:/Windows/System32/wbemcomn.??4CLimitControl@@QEAAAEAV0@AEBV0@@Z @282
    ??4CMRCICompression@@QEAAAEAV0@AEBV0@@Z=C:/Windows/System32/wbemcomn.??4CMRCICompression@@QEAAAEAV0@AEBV0@@Z @283
    ??4CMRCIControl@@QEAAAEAV0@$$QEAV0@@Z=C:/Windows/System32/wbemcomn.??4CMRCIControl@@QEAAAEAV0@$$QEAV0@@Z @284
    ??4CMRCIControl@@QEAAAEAV0@AEBV0@@Z=C:/Windows/System32/wbemcomn.??4CMRCIControl@@QEAAAEAV0@AEBV0@@Z @285
    ??4CMUILocale@@QEAAAEAV0@$$QEAV0@@Z=C:/Windows/System32/wbemcomn.??4CMUILocale@@QEAAAEAV0@$$QEAV0@@Z @286
    ??4CMUILocale@@QEAAAEAV0@AEBV0@@Z=C:/Windows/System32/wbemcomn.??4CMUILocale@@QEAAAEAV0@AEBV0@@Z @287
    ??4CMUILocaleList@@QEAAAEAV0@AEBV0@@Z=C:/Windows/System32/wbemcomn.??4CMUILocaleList@@QEAAAEAV0@AEBV0@@Z @288
    ??4CMemoryLog@@QEAAAEAV0@$$QEAV0@@Z=C:/Windows/System32/wbemcomn.??4CMemoryLog@@QEAAAEAV0@$$QEAV0@@Z @289
    ??4CMemoryLog@@QEAAAEAV0@AEBV0@@Z=C:/Windows/System32/wbemcomn.??4CMemoryLog@@QEAAAEAV0@AEBV0@@Z @290
    ??4CMinMaxLimitControl@@QEAAAEAV0@$$QEAV0@@Z=C:/Windows/System32/wbemcomn.??4CMinMaxLimitControl@@QEAAAEAV0@$$QEAV0@@Z @291
    ??4CMinMaxLimitControl@@QEAAAEAV0@AEBV0@@Z=C:/Windows/System32/wbemcomn.??4CMinMaxLimitControl@@QEAAAEAV0@AEBV0@@Z @292
    ??4CNtAce@@QEAAAEAV0@AEBV0@@Z=C:/Windows/System32/wbemcomn.??4CNtAce@@QEAAAEAV0@AEBV0@@Z @293
    ??4CNtAcl@@QEAAAEAV0@AEBV0@@Z=C:/Windows/System32/wbemcomn.??4CNtAcl@@QEAAAEAV0@AEBV0@@Z @294
    ??4CNtSecurity@@QEAAAEAV0@$$QEAV0@@Z=C:/Windows/System32/wbemcomn.??4CNtSecurity@@QEAAAEAV0@$$QEAV0@@Z @295
    ??4CNtSecurity@@QEAAAEAV0@AEBV0@@Z=C:/Windows/System32/wbemcomn.??4CNtSecurity@@QEAAAEAV0@AEBV0@@Z @296
    ??4CNtSecurityDescriptor@@QEAAAEAV0@AEAV0@@Z=C:/Windows/System32/wbemcomn.??4CNtSecurityDescriptor@@QEAAAEAV0@AEAV0@@Z @297
    ??4CNtSid@@QEAAAEAV0@AEBV0@@Z=C:/Windows/System32/wbemcomn.??4CNtSid@@QEAAAEAV0@AEBV0@@Z @298
    ??4CPersistentConfig@@QEAAAEAV0@$$QEAV0@@Z=C:/Windows/System32/wbemcomn.??4CPersistentConfig@@QEAAAEAV0@$$QEAV0@@Z @299
    ??4CPersistentConfig@@QEAAAEAV0@AEBV0@@Z=C:/Windows/System32/wbemcomn.??4CPersistentConfig@@QEAAAEAV0@AEBV0@@Z @300
    ??4CPropertyName@@QEAAXAEBU_tag_WbemPropertyName@@@Z=C:/Windows/System32/wbemcomn.??4CPropertyName@@QEAAXAEBU_tag_WbemPropertyName@@@Z @301
    ??4CPropertyName@@QEAAXAEBV0@@Z=C:/Windows/System32/wbemcomn.??4CPropertyName@@QEAAXAEBV0@@Z @302
    ??4CPublishWMIOperationEvent@@QEAAAEAV0@AEBV0@@Z=C:/Windows/System32/wbemcomn.??4CPublishWMIOperationEvent@@QEAAAEAV0@AEBV0@@Z @303
    ??4CQl1ParseSink@@QEAAAEAV0@$$QEAV0@@Z=C:/Windows/System32/wbemcomn.??4CQl1ParseSink@@QEAAAEAV0@$$QEAV0@@Z @304
    ??4CQl1ParseSink@@QEAAAEAV0@AEBV0@@Z=C:/Windows/System32/wbemcomn.??4CQl1ParseSink@@QEAAAEAV0@AEBV0@@Z @305
    ??4CRegistryMinMaxLimitControl@@QEAAAEAV0@$$QEAV0@@Z=C:/Windows/System32/wbemcomn.??4CRegistryMinMaxLimitControl@@QEAAAEAV0@$$QEAV0@@Z @306
    ??4CRegistryMinMaxLimitControl@@QEAAAEAV0@AEBV0@@Z=C:/Windows/System32/wbemcomn.??4CRegistryMinMaxLimitControl@@QEAAAEAV0@AEBV0@@Z @307
    ??4CSafeArray@@QEAAAEAV0@AEAV0@@Z=C:/Windows/System32/wbemcomn.??4CSafeArray@@QEAAAEAV0@AEAV0@@Z @308
    ??4CSmallArrayBlob@@QEAAAEAV0@$$QEAV0@@Z=C:/Windows/System32/wbemcomn.??4CSmallArrayBlob@@QEAAAEAV0@$$QEAV0@@Z @309
    ??4CSmallArrayBlob@@QEAAAEAV0@AEBV0@@Z=C:/Windows/System32/wbemcomn.??4CSmallArrayBlob@@QEAAAEAV0@AEBV0@@Z @310
    ??4CStaticCritSec@@QEAAAEAV0@AEBV0@@Z=C:/Windows/System32/wbemcomn.??4CStaticCritSec@@QEAAAEAV0@AEBV0@@Z @311
    ??4CTextTemplate@@QEAAAEAV0@AEBV0@@Z=C:/Windows/System32/wbemcomn.??4CTextTemplate@@QEAAAEAV0@AEBV0@@Z @312
    ??4CTimerGenerator@@QEAAAEAV0@AEBV0@@Z=C:/Windows/System32/wbemcomn.??4CTimerGenerator@@QEAAAEAV0@AEBV0@@Z @313
    ??4CTimerInstruction@@QEAAAEAV0@AEBV0@@Z=C:/Windows/System32/wbemcomn.??4CTimerInstruction@@QEAAAEAV0@AEBV0@@Z @314
    ??4CTraceSessionControl@@QEAAAEAV0@$$QEAV0@@Z=C:/Windows/System32/wbemcomn.??4CTraceSessionControl@@QEAAAEAV0@$$QEAV0@@Z @315
    ??4CTraceSessionControl@@QEAAAEAV0@AEBV0@@Z=C:/Windows/System32/wbemcomn.??4CTraceSessionControl@@QEAAAEAV0@AEBV0@@Z @316
    ??4CUnk@@QEAAAEAV0@AEBV0@@Z=C:/Windows/System32/wbemcomn.??4CUnk@@QEAAAEAV0@AEBV0@@Z @317
    ??4CUnkInternal@@QEAAAEAV0@AEBV0@@Z=C:/Windows/System32/wbemcomn.??4CUnkInternal@@QEAAAEAV0@AEBV0@@Z @318
    ??4CVar@@QEAAAEAV0@AEBV0@@Z=C:/Windows/System32/wbemcomn.??4CVar@@QEAAAEAV0@AEBV0@@Z @319
    ??4CVarVector@@QEAAAEAV0@AEAV0@@Z=C:/Windows/System32/wbemcomn.??4CVarVector@@QEAAAEAV0@AEAV0@@Z @320
    ??4CWMITraceSettings@@QEAAAEAV0@$$QEAV0@@Z=C:/Windows/System32/wbemcomn.??4CWMITraceSettings@@QEAAAEAV0@$$QEAV0@@Z @321
    ??4CWMITraceSettings@@QEAAAEAV0@AEBV0@@Z=C:/Windows/System32/wbemcomn.??4CWMITraceSettings@@QEAAAEAV0@AEBV0@@Z @322
    ??4CWQLScanner@@QEAAAEAV0@AEAV0@@Z=C:/Windows/System32/wbemcomn.??4CWQLScanner@@QEAAAEAV0@AEAV0@@Z @323
    ??4CWStringArray@@QEAAAEAV0@AEAV0@@Z=C:/Windows/System32/wbemcomn.??4CWStringArray@@QEAAAEAV0@AEAV0@@Z @324
    ??4CWbemCallSecurity@@AEAAAEAV0@AEBV0@@Z=C:/Windows/System32/wbemcomn.??4CWbemCallSecurity@@AEAAAEAV0@AEBV0@@Z @325
    ??4CWbemCriticalSection@@QEAAAEAV0@AEBV0@@Z=C:/Windows/System32/wbemcomn.??4CWbemCriticalSection@@QEAAAEAV0@AEBV0@@Z @326
    ??4CWbemInstallObject@@QEAAAEAV0@AEBV0@@Z=C:/Windows/System32/wbemcomn.??4CWbemInstallObject@@QEAAAEAV0@AEBV0@@Z @327
    ??4CWbemInterval@@QEAAAEAV0@$$QEAV0@@Z=C:/Windows/System32/wbemcomn.??4CWbemInterval@@QEAAAEAV0@$$QEAV0@@Z @328
    ??4CWbemInterval@@QEAAAEAV0@AEBV0@@Z=C:/Windows/System32/wbemcomn.??4CWbemInterval@@QEAAAEAV0@AEBV0@@Z @329
    ??4CWbemTime@@QEAAXAEBV0@@Z=C:/Windows/System32/wbemcomn.??4CWbemTime@@QEAAXAEBV0@@Z @330
    ??4CWbemTimeSpan@@QEAAAEAV0@$$QEAV0@@Z=C:/Windows/System32/wbemcomn.??4CWbemTimeSpan@@QEAAAEAV0@$$QEAV0@@Z @331
    ??4CWbemTimeSpan@@QEAAAEAV0@AEBV0@@Z=C:/Windows/System32/wbemcomn.??4CWbemTimeSpan@@QEAAAEAV0@AEBV0@@Z @332
    ??4CWin32DefaultArena@@QEAAAEAV0@AEBV0@@Z=C:/Windows/System32/wbemcomn.??4CWin32DefaultArena@@QEAAAEAV0@AEBV0@@Z @333
    ??4MD5@@QEAAAEAV0@$$QEAV0@@Z=C:/Windows/System32/wbemcomn.??4MD5@@QEAAAEAV0@$$QEAV0@@Z @334
    ??4MD5@@QEAAAEAV0@AEBV0@@Z=C:/Windows/System32/wbemcomn.??4MD5@@QEAAAEAV0@AEBV0@@Z @335
    ??4QL1_Parser@@QEAAAEAV0@AEBV0@@Z=C:/Windows/System32/wbemcomn.??4QL1_Parser@@QEAAAEAV0@AEBV0@@Z @336
    ??4QL_LEVEL_1_RPN_EXPRESSION@@QEAAAEAU0@AEBU0@@Z=C:/Windows/System32/wbemcomn.??4QL_LEVEL_1_RPN_EXPRESSION@@QEAAAEAU0@AEBU0@@Z @337
    ??4QL_LEVEL_1_TOKEN@@QEAAAEAU0@AEBU0@@Z=C:/Windows/System32/wbemcomn.??4QL_LEVEL_1_TOKEN@@QEAAAEAU0@AEBU0@@Z @338
    ??4QL_LEVEL_1_TOKEN@@QEAAAEAU0@AEBU_tag_WbemQl1Token@@@Z=C:/Windows/System32/wbemcomn.??4QL_LEVEL_1_TOKEN@@QEAAAEAU0@AEBU_tag_WbemQl1Token@@@Z @339
    ??4Registry@@QEAAAEAV0@AEBV0@@Z=C:/Windows/System32/wbemcomn.??4Registry@@QEAAAEAV0@AEBV0@@Z @340
    ??4SHA256@@QEAAAEAV0@$$QEAV0@@Z=C:/Windows/System32/wbemcomn.??4SHA256@@QEAAAEAV0@$$QEAV0@@Z @341
    ??4SHA256@@QEAAAEAV0@AEBV0@@Z=C:/Windows/System32/wbemcomn.??4SHA256@@QEAAAEAV0@AEBV0@@Z @342
    ??4WString2@@QEAAAEAV0@AEBV0@@Z=C:/Windows/System32/wbemcomn.??4WString2@@QEAAAEAV0@AEBV0@@Z @343
    ??4WString2@@QEAAAEAV0@PEBG@Z=C:/Windows/System32/wbemcomn.??4WString2@@QEAAAEAV0@PEBG@Z @344
    ??4WString@@QEAAAEAV0@AEBV0@@Z=C:/Windows/System32/wbemcomn.??4WString@@QEAAAEAV0@AEBV0@@Z @345
    ??4WString@@QEAAAEAV0@PEBG@Z=C:/Windows/System32/wbemcomn.??4WString@@QEAAAEAV0@PEBG@Z @346
    ??8CEventLogRecord@@QEAAHAEBV0@@Z=C:/Windows/System32/wbemcomn.??8CEventLogRecord@@QEAAHAEBV0@@Z @347
    ??8CNtSid@@QEAAHAEAV0@@Z=C:/Windows/System32/wbemcomn.??8CNtSid@@QEAAHAEAV0@@Z @348
    ??8CPropertyName@@QEAAHAEBU_tag_WbemPropertyName@@@Z=C:/Windows/System32/wbemcomn.??8CPropertyName@@QEAAHAEBU_tag_WbemPropertyName@@@Z @349
    ??8CVar@@QEAAHAEAV0@@Z=C:/Windows/System32/wbemcomn.??8CVar@@QEAAHAEAV0@@Z @350
    ??8CVarVector@@QEAAHAEAV0@@Z=C:/Windows/System32/wbemcomn.??8CVarVector@@QEAAHAEAV0@@Z @351
    ??ACFlexArray@@QEAAAEAPEAXH@Z=C:/Windows/System32/wbemcomn.??ACFlexArray@@QEAAAEAPEAXH@Z @352
    ??ACFlexArray@@QEBAPEAXH@Z=C:/Windows/System32/wbemcomn.??ACFlexArray@@QEBAPEAXH@Z @353
    ??ACSmallArrayBlob@@QEBAPEAXH@Z=C:/Windows/System32/wbemcomn.??ACSmallArrayBlob@@QEBAPEAXH@Z @354
    ??ACVarVector@@QEAAAEAVCVar@@H@Z=C:/Windows/System32/wbemcomn.??ACVarVector@@QEAAAEAVCVar@@H@Z @355
    ??ACWStringArray@@QEBAPEAGH@Z=C:/Windows/System32/wbemcomn.??ACWStringArray@@QEBAPEAGH@Z @356
    ??AWString2@@QEBAGH@Z=C:/Windows/System32/wbemcomn.??AWString2@@QEBAGH@Z @357
    ??AWString@@QEBAGH@Z=C:/Windows/System32/wbemcomn.??AWString@@QEBAGH@Z @358
    ??BCHex@@QEAAJXZ=C:/Windows/System32/wbemcomn.??BCHex@@QEAAJXZ @359
    ??BCVar@@QEAA?AU_FILETIME@@XZ=C:/Windows/System32/wbemcomn.??BCVar@@QEAA?AU_FILETIME@@XZ @360
    ??BCVar@@QEAADXZ=C:/Windows/System32/wbemcomn.??BCVar@@QEAADXZ @361
    ??BCVar@@QEAAEXZ=C:/Windows/System32/wbemcomn.??BCVar@@QEAAEXZ @362
    ??BCVar@@QEAAFXZ=C:/Windows/System32/wbemcomn.??BCVar@@QEAAFXZ @363
    ??BCVar@@QEAAGXZ=C:/Windows/System32/wbemcomn.??BCVar@@QEAAGXZ @364
    ??BCVar@@QEAAJXZ=C:/Windows/System32/wbemcomn.??BCVar@@QEAAJXZ @365
    ??BCVar@@QEAAKXZ=C:/Windows/System32/wbemcomn.??BCVar@@QEAAKXZ @366
    ??BCVar@@QEAAMXZ=C:/Windows/System32/wbemcomn.??BCVar@@QEAAMXZ @367
    ??BCVar@@QEAANXZ=C:/Windows/System32/wbemcomn.??BCVar@@QEAANXZ @368
    ??BCVar@@QEAAPEADXZ=C:/Windows/System32/wbemcomn.??BCVar@@QEAAPEADXZ @369
    ??BCVar@@QEAAPEAGXZ=C:/Windows/System32/wbemcomn.??BCVar@@QEAAPEAGXZ @370
    ??BCVar@@QEAAPEAU_GUID@@XZ=C:/Windows/System32/wbemcomn.??BCVar@@QEAAPEAU_GUID@@XZ @371
    ??BCVar@@QEAAPEAUtagBLOB@@XZ=C:/Windows/System32/wbemcomn.??BCVar@@QEAAPEAUtagBLOB@@XZ @372
    ??BCVar@@QEAAPEAVCVarVector@@XZ=C:/Windows/System32/wbemcomn.??BCVar@@QEAAPEAVCVarVector@@XZ @373
    ??BWString2@@QEAAPEAGXZ=C:/Windows/System32/wbemcomn.??BWString2@@QEAAPEAGXZ @374
    ??BWString2@@QEBAPEBGXZ=C:/Windows/System32/wbemcomn.??BWString2@@QEBAPEBGXZ @375
    ??BWString@@QEAAPEAGXZ=C:/Windows/System32/wbemcomn.??BWString@@QEAAPEAGXZ @376
    ??BWString@@QEBAPEBGXZ=C:/Windows/System32/wbemcomn.??BWString@@QEBAPEBGXZ @377
    ??DCWbemInterval@@QEBA?AV0@N@Z=C:/Windows/System32/wbemcomn.??DCWbemInterval@@QEBA?AV0@N@Z @378
    ??GCWbemTime@@QEBA?AV0@AEBVCWbemTimeSpan@@@Z=C:/Windows/System32/wbemcomn.??GCWbemTime@@QEBA?AV0@AEBVCWbemTimeSpan@@@Z @379
    ??GCWbemTime@@QEBA?AVCWbemInterval@@AEBV0@@Z=C:/Windows/System32/wbemcomn.??GCWbemTime@@QEBA?AVCWbemInterval@@AEBV0@@Z @380
    ??HCWbemInterval@@QEBA?AV0@V0@@Z=C:/Windows/System32/wbemcomn.??HCWbemInterval@@QEBA?AV0@V0@@Z @381
    ??HCWbemTime@@QEBA?AV0@AEBVCWbemInterval@@@Z=C:/Windows/System32/wbemcomn.??HCWbemTime@@QEBA?AV0@AEBVCWbemInterval@@@Z @382
    ??HCWbemTime@@QEBA?AV0@AEBVCWbemTimeSpan@@@Z=C:/Windows/System32/wbemcomn.??HCWbemTime@@QEBA?AV0@AEBVCWbemTimeSpan@@@Z @383
    ??MCWbemInterval@@QEAAHV0@@Z=C:/Windows/System32/wbemcomn.??MCWbemInterval@@QEAAHV0@@Z @384
    ??MCWbemTime@@QEBAHAEBV0@@Z=C:/Windows/System32/wbemcomn.??MCWbemTime@@QEBAHAEBV0@@Z @385
    ??MWString2@@QEBAHPEBG@Z=C:/Windows/System32/wbemcomn.??MWString2@@QEBAHPEBG@Z @386
    ??MWString@@QEBAHPEBG@Z=C:/Windows/System32/wbemcomn.??MWString@@QEBAHPEBG@Z @387
    ??NCWbemTime@@QEBAHAEBV0@@Z=C:/Windows/System32/wbemcomn.??NCWbemTime@@QEBAHAEBV0@@Z @388
    ??NWString2@@QEBAHPEBG@Z=C:/Windows/System32/wbemcomn.??NWString2@@QEBAHPEBG@Z @389
    ??NWString@@QEBAHPEBG@Z=C:/Windows/System32/wbemcomn.??NWString@@QEBAHPEBG@Z @390
    ??OCWbemInterval@@QEAAHV0@@Z=C:/Windows/System32/wbemcomn.??OCWbemInterval@@QEAAHV0@@Z @391
    ??OCWbemTime@@QEBAHAEBV0@@Z=C:/Windows/System32/wbemcomn.??OCWbemTime@@QEBAHAEBV0@@Z @392
    ??OWString2@@QEBAHPEBG@Z=C:/Windows/System32/wbemcomn.??OWString2@@QEBAHPEBG@Z @393
    ??OWString@@QEBAHPEBG@Z=C:/Windows/System32/wbemcomn.??OWString@@QEBAHPEBG@Z @394
    ??PCWbemTime@@QEBAHAEBV0@@Z=C:/Windows/System32/wbemcomn.??PCWbemTime@@QEBAHAEBV0@@Z @395
    ??PWString2@@QEBAHPEBG@Z=C:/Windows/System32/wbemcomn.??PWString2@@QEBAHPEBG@Z @396
    ??PWString@@QEBAHPEBG@Z=C:/Windows/System32/wbemcomn.??PWString@@QEBAHPEBG@Z @397
    ??R?$SZLess@PEBG@@QEBA_NAEBQEBG0@Z=C:/Windows/System32/wbemcomn.??R?$SZLess@PEBG@@QEBA_NAEBQEBG0@Z @398
    ??RCIdentityTest@@UEAAHPEAVCTimerInstruction@@@Z=C:/Windows/System32/wbemcomn.??RCIdentityTest@@UEAAHPEAVCTimerInstruction@@@Z @399
    ??RWString2@@QEBA?AV0@HH@Z=C:/Windows/System32/wbemcomn.??RWString2@@QEBA?AV0@HH@Z @400
    ??RWString@@QEBA?AV0@HH@Z=C:/Windows/System32/wbemcomn.??RWString@@QEBA?AV0@HH@Z @401
    ??YCWbemInterval@@QEAAXV0@@Z=C:/Windows/System32/wbemcomn.??YCWbemInterval@@QEAAXV0@@Z @402
    ??YWString2@@QEAAAEAV0@AEBV0@@Z=C:/Windows/System32/wbemcomn.??YWString2@@QEAAAEAV0@AEBV0@@Z @403
    ??YWString2@@QEAAAEAV0@G@Z=C:/Windows/System32/wbemcomn.??YWString2@@QEAAAEAV0@G@Z @404
    ??YWString2@@QEAAAEAV0@PEBG@Z=C:/Windows/System32/wbemcomn.??YWString2@@QEAAAEAV0@PEBG@Z @405
    ??YWString@@QEAAAEAV0@AEBV0@@Z=C:/Windows/System32/wbemcomn.??YWString@@QEAAAEAV0@AEBV0@@Z @406
    ??YWString@@QEAAAEAV0@G@Z=C:/Windows/System32/wbemcomn.??YWString@@QEAAAEAV0@G@Z @407
    ??YWString@@QEAAAEAV0@PEBG@Z=C:/Windows/System32/wbemcomn.??YWString@@QEAAAEAV0@PEBG@Z @408
    ??_7?$SZLess@PEBG@@6B@=C:/Windows/System32/wbemcomn.??_7?$SZLess@PEBG@@6B@ @409
    ??_7C9XAce@@6B@=C:/Windows/System32/wbemcomn.??_7C9XAce@@6B@ @410
    ??_7CAbstractQl1Parser@@6B@=C:/Windows/System32/wbemcomn.??_7CAbstractQl1Parser@@6B@ @411
    ??_7CArena@@6B@=C:/Windows/System32/wbemcomn.??_7CArena@@6B@ @412
    ??_7CBaseAce@@6B@=C:/Windows/System32/wbemcomn.??_7CBaseAce@@6B@ @413
    ??_7CBasicUnloadInstruction@@6B@=C:/Windows/System32/wbemcomn.??_7CBasicUnloadInstruction@@6B@ @414
    ??_7CBuffer@@6B@=C:/Windows/System32/wbemcomn.??_7CBuffer@@6B@ @415
    ??_7CContainerControl@@6B@=C:/Windows/System32/wbemcomn.??_7CContainerControl@@6B@ @416
    ??_7CExecQueue@@6B@=C:/Windows/System32/wbemcomn.??_7CExecQueue@@6B@ @417
    ??_7CExecRequest@@6B@=C:/Windows/System32/wbemcomn.??_7CExecRequest@@6B@ @418
    ??_7CHaltable@@6B@=C:/Windows/System32/wbemcomn.??_7CHaltable@@6B@ @419
    ??_7CIdentityTest@@6B@=C:/Windows/System32/wbemcomn.??_7CIdentityTest@@6B@ @420
    ??_7CInstructionTest@@6B@=C:/Windows/System32/wbemcomn.??_7CInstructionTest@@6B@ @421
    ??_7CLifeControl@@6B@=C:/Windows/System32/wbemcomn.??_7CLifeControl@@6B@ @422
    ??_7CLimitControl@@6B@=C:/Windows/System32/wbemcomn.??_7CLimitControl@@6B@ @423
    ??_7CMinMaxLimitControl@@6B@=C:/Windows/System32/wbemcomn.??_7CMinMaxLimitControl@@6B@ @424
    ??_7CNtAce@@6B@=C:/Windows/System32/wbemcomn.??_7CNtAce@@6B@ @425
    ??_7CQl1ParseSink@@6B@=C:/Windows/System32/wbemcomn.??_7CQl1ParseSink@@6B@ @426
    ??_7CRegistryMinMaxLimitControl@@6B@=C:/Windows/System32/wbemcomn.??_7CRegistryMinMaxLimitControl@@6B@ @427
    ??_7CTimerGenerator@@6B@=C:/Windows/System32/wbemcomn.??_7CTimerGenerator@@6B@ @428
    ??_7CTimerInstruction@@6B@=C:/Windows/System32/wbemcomn.??_7CTimerInstruction@@6B@ @429
    ??_7CUnk@@6B@=C:/Windows/System32/wbemcomn.??_7CUnk@@6B@ @430
    ??_7CUnkInternal@@6B@=C:/Windows/System32/wbemcomn.??_7CUnkInternal@@6B@ @431
    ??_7CWbemCallSecurity@@6B@=C:/Windows/System32/wbemcomn.??_7CWbemCallSecurity@@6B@ @432
    ??_7CWin32DefaultArena@@6B@=C:/Windows/System32/wbemcomn.??_7CWin32DefaultArena@@6B@ @433
    ??_7QL1_Parser@@6B@=C:/Windows/System32/wbemcomn.??_7QL1_Parser@@6B@ @434
    ??_7QL_LEVEL_1_RPN_EXPRESSION@@6B@=C:/Windows/System32/wbemcomn.??_7QL_LEVEL_1_RPN_EXPRESSION@@6B@ @435
    ??_FCBuffer@@QEAAXXZ=C:/Windows/System32/wbemcomn.??_FCBuffer@@QEAAXXZ @436
    ??_FCEventLog@@QEAAXXZ=C:/Windows/System32/wbemcomn.??_FCEventLog@@QEAAXXZ @437
    ??_FCFlexArray@@QEAAXXZ=C:/Windows/System32/wbemcomn.??_FCFlexArray@@QEAAXXZ @438
    ??_FCFlexQueue@@QEAAXXZ=C:/Windows/System32/wbemcomn.??_FCFlexQueue@@QEAAXXZ @439
    ??_FCNtAcl@@QEAAXXZ=C:/Windows/System32/wbemcomn.??_FCNtAcl@@QEAAXXZ @440
    ??_FCTextTemplate@@QEAAXXZ=C:/Windows/System32/wbemcomn.??_FCTextTemplate@@QEAAXXZ @441
    ??_FCUnk@@QEAAXXZ=C:/Windows/System32/wbemcomn.??_FCUnk@@QEAAXXZ @442
    ??_FCWStringArray@@QEAAXXZ=C:/Windows/System32/wbemcomn.??_FCWStringArray@@QEAAXXZ @443
    ?AbortCompression@CMRCIControl@@QEAAXXZ=C:/Windows/System32/wbemcomn.?AbortCompression@CMRCIControl@@QEAAXXZ @444
    ?AbortRequested@CMRCIControl@@QEAAHXZ=C:/Windows/System32/wbemcomn.?AbortRequested@CMRCIControl@@QEAAHXZ @445
    ?Access@CSafeArray@@QEAAJPEAPEAX@Z=C:/Windows/System32/wbemcomn.?Access@CSafeArray@@QEAAJPEAPEAX@Z @446
    ?AccessCheck@CIdentitySecurity@@QEAAHXZ=C:/Windows/System32/wbemcomn.?AccessCheck@CIdentitySecurity@@QEAAHXZ @447
    ?AccessRawArray@CVarVector@@QEAAJPEAPEAX@Z=C:/Windows/System32/wbemcomn.?AccessRawArray@CVarVector@@QEAAJPEAPEAX@Z @448
    ?Add@CFlexArray@@QEAAHPEAX@Z=C:/Windows/System32/wbemcomn.?Add@CFlexArray@@QEAAHPEAX@Z @449
    ?Add@CMinMaxLimitControl@@UEAAJKKPEAK@Z=C:/Windows/System32/wbemcomn.?Add@CMinMaxLimitControl@@UEAAJKKPEAK@Z @450
    ?Add@CVarVector@@QEAAHAEAVCVar@@@Z=C:/Windows/System32/wbemcomn.?Add@CVarVector@@QEAAHAEAVCVar@@@Z @451
    ?Add@CVarVector@@QEAAHPEAVCVar@@@Z=C:/Windows/System32/wbemcomn.?Add@CVarVector@@QEAAHPEAVCVar@@@Z @452
    ?Add@CWStringArray@@QEAAHPEBG@Z=C:/Windows/System32/wbemcomn.?Add@CWStringArray@@QEAAHPEBG@Z @453
    ?AddAce@CNtAcl@@QEAAHPEAVCNtAce@@@Z=C:/Windows/System32/wbemcomn.?AddAce@CNtAcl@@QEAAHPEAVCNtAce@@@Z @454
    ?AddAggregationProperty@QL_LEVEL_1_RPN_EXPRESSION@@UEAAXAEBVCPropertyName@@@Z=C:/Windows/System32/wbemcomn.?AddAggregationProperty@QL_LEVEL_1_RPN_EXPRESSION@@UEAAXAEBVCPropertyName@@@Z @455
    ?AddAllAggregationProperties@QL_LEVEL_1_RPN_EXPRESSION@@UEAAXXZ=C:/Windows/System32/wbemcomn.?AddAllAggregationProperties@QL_LEVEL_1_RPN_EXPRESSION@@UEAAXXZ @456
    ?AddAllProperties@QL_LEVEL_1_RPN_EXPRESSION@@UEAAXXZ=C:/Windows/System32/wbemcomn.?AddAllProperties@QL_LEVEL_1_RPN_EXPRESSION@@UEAAXXZ @457
    ?AddAppropriateToken@CAbstractQl1Parser@@IEAAXAEBU_tag_WbemQl1Token@@@Z=C:/Windows/System32/wbemcomn.?AddAppropriateToken@CAbstractQl1Parser@@IEAAXAEBU_tag_WbemQl1Token@@@Z @458
    ?AddBSTR@CSafeArray@@QEAAHPEAG@Z=C:/Windows/System32/wbemcomn.?AddBSTR@CSafeArray@@QEAAHPEAG@Z @459
    ?AddBool@CSafeArray@@QEAAHF@Z=C:/Windows/System32/wbemcomn.?AddBool@CSafeArray@@QEAAHF@Z @460
    ?AddByte@CSafeArray@@QEAAHE@Z=C:/Windows/System32/wbemcomn.?AddByte@CSafeArray@@QEAAHE@Z @461
    ?AddChild@CClientOpsNode@@QEAAXPEAV1@@Z=C:/Windows/System32/wbemcomn.?AddChild@CClientOpsNode@@QEAAXPEAV1@@Z @462
    ?AddCulture@CMUILocaleList@@AEAAJPEBGW4LocaleType@CMUILocale@@K@Z=C:/Windows/System32/wbemcomn.?AddCulture@CMUILocaleList@@AEAAJPEBGW4LocaleType@CMUILocale@@K@Z @463
    ?AddDispatch@CSafeArray@@QEAAHPEAUIDispatch@@@Z=C:/Windows/System32/wbemcomn.?AddDispatch@CSafeArray@@QEAAHPEAUIDispatch@@@Z @464
    ?AddDouble@CSafeArray@@QEAAHN@Z=C:/Windows/System32/wbemcomn.?AddDouble@CSafeArray@@QEAAHN@Z @465
    ?AddElement@CPropertyName@@QEAAXPEBG@Z=C:/Windows/System32/wbemcomn.?AddElement@CPropertyName@@QEAAXPEBG@Z @466
    ?AddEnvironmentValue@CWbemInstallObject@@SAJPEBG0@Z=C:/Windows/System32/wbemcomn.?AddEnvironmentValue@CWbemInstallObject@@SAJPEBG0@Z @467
    ?AddFloat@CSafeArray@@QEAAHM@Z=C:/Windows/System32/wbemcomn.?AddFloat@CSafeArray@@QEAAHM@Z @468
    ?AddHavingToken@QL_LEVEL_1_RPN_EXPRESSION@@UEAAXAEBU_tag_WbemQl1Token@@@Z=C:/Windows/System32/wbemcomn.?AddHavingToken@QL_LEVEL_1_RPN_EXPRESSION@@UEAAXAEBU_tag_WbemQl1Token@@@Z @469
    ?AddInsertionString@CEventLogRecord@@IEAAXAEAVCInsertionString@@@Z=C:/Windows/System32/wbemcomn.?AddInsertionString@CEventLogRecord@@IEAAXAEAVCInsertionString@@@Z @470
    ?AddLocale@CMUILocaleList@@AEAAJPEBGW4LocaleType@CMUILocale@@K@Z=C:/Windows/System32/wbemcomn.?AddLocale@CMUILocaleList@@AEAAJPEBGW4LocaleType@CMUILocale@@K@Z @471
    ?AddLong@CSafeArray@@QEAAHJ@Z=C:/Windows/System32/wbemcomn.?AddLong@CSafeArray@@QEAAHJ@Z @472
    ?AddMember@CLimitControl@@UEAAJXZ=C:/Windows/System32/wbemcomn.?AddMember@CLimitControl@@UEAAJXZ @473
    ?AddProperty@QL_LEVEL_1_RPN_EXPRESSION@@UEAAXAEBVCPropertyName@@@Z=C:/Windows/System32/wbemcomn.?AddProperty@QL_LEVEL_1_RPN_EXPRESSION@@UEAAXAEBVCPropertyName@@@Z @474
    ?AddRecord@CEventLog@@IEAAHPEAVCEventLogRecord@@@Z=C:/Windows/System32/wbemcomn.?AddRecord@CEventLog@@IEAAHPEAVCEventLogRecord@@@Z @475
    ?AddRef@CBasicUnloadInstruction@@UEAAXXZ=C:/Windows/System32/wbemcomn.?AddRef@CBasicUnloadInstruction@@UEAAXXZ @476
    ?AddRef@CBuffer@@UEAAKXZ=C:/Windows/System32/wbemcomn.?AddRef@CBuffer@@UEAAKXZ @477
    ?AddRef@CContainerControl@@UEAAXPEAUIUnknown@@@Z=C:/Windows/System32/wbemcomn.?AddRef@CContainerControl@@UEAAXPEAUIUnknown@@@Z @478
    ?AddRef@CExecQueue@@QEAAXXZ=C:/Windows/System32/wbemcomn.?AddRef@CExecQueue@@QEAAXXZ @479
    ?AddRef@CUnk@@UEAAKXZ=C:/Windows/System32/wbemcomn.?AddRef@CUnk@@UEAAKXZ @480
    ?AddRef@CUnkInternal@@UEAAKXZ=C:/Windows/System32/wbemcomn.?AddRef@CUnkInternal@@UEAAKXZ @481
    ?AddRef@CWbemCallSecurity@@UEAAKXZ=C:/Windows/System32/wbemcomn.?AddRef@CWbemCallSecurity@@UEAAKXZ @482
    ?AddRef@QL_LEVEL_1_RPN_EXPRESSION@@QEAAXXZ=C:/Windows/System32/wbemcomn.?AddRef@QL_LEVEL_1_RPN_EXPRESSION@@QEAAXXZ @483
    ?AddScalar@CSafeArray@@AEAAHTSA_ArrayScalar@@@Z=C:/Windows/System32/wbemcomn.?AddScalar@CSafeArray@@AEAAHTSA_ArrayScalar@@@Z @484
    ?AddShort@CSafeArray@@QEAAHF@Z=C:/Windows/System32/wbemcomn.?AddShort@CSafeArray@@QEAAHF@Z @485
    ?AddToken@QL_LEVEL_1_RPN_EXPRESSION@@QEAAXAEBUQL_LEVEL_1_TOKEN@@@Z=C:/Windows/System32/wbemcomn.?AddToken@QL_LEVEL_1_RPN_EXPRESSION@@QEAAXAEBUQL_LEVEL_1_TOKEN@@@Z @486
    ?AddToken@QL_LEVEL_1_RPN_EXPRESSION@@UEAAXAEBU_tag_WbemQl1Token@@@Z=C:/Windows/System32/wbemcomn.?AddToken@QL_LEVEL_1_RPN_EXPRESSION@@UEAAXAEBU_tag_WbemQl1Token@@@Z @487
    ?AddUnknown@CSafeArray@@QEAAHPEAUIUnknown@@@Z=C:/Windows/System32/wbemcomn.?AddUnknown@CSafeArray@@QEAAHPEAUIUnknown@@@Z @488
    ?AddVariant@CSafeArray@@QEAAHPEAUtagVARIANT@@@Z=C:/Windows/System32/wbemcomn.?AddVariant@CSafeArray@@QEAAHPEAUtagVARIANT@@@Z @489
    ?AdjustInitialPriority@CExecQueue@@MEAAXPEAVCExecRequest@@@Z=C:/Windows/System32/wbemcomn.?AdjustInitialPriority@CExecQueue@@MEAAXPEAVCExecRequest@@@Z @490
    ?AdjustPriorityForPassing@CExecQueue@@MEAAXPEAVCExecRequest@@@Z=C:/Windows/System32/wbemcomn.?AdjustPriorityForPassing@CExecQueue@@MEAAXPEAVCExecRequest@@@Z @491
    ?Advance@CBuffer@@QEAAJK@Z=C:/Windows/System32/wbemcomn.?Advance@CBuffer@@QEAAJK@Z @493
    ?AliasToTable@CWQLScanner@@QEAAQEAGPEAG@Z=C:/Windows/System32/wbemcomn.?AliasToTable@CWQLScanner@@QEAAQEAGPEAG@Z @494
    ?Alloc@CWin32DefaultArena@@UEAAPEAX_K@Z=C:/Windows/System32/wbemcomn.?Alloc@CWin32DefaultArena@@UEAAPEAX_K@Z @495
    ?AllocAmPm@CDateTimeParser@@IEAAPEAGXZ=C:/Windows/System32/wbemcomn.?AllocAmPm@CDateTimeParser@@IEAAPEAGXZ @496
    ?AppendBuffer@WString2@@AEAAXPEBG_K@Z=C:/Windows/System32/wbemcomn.?AppendBuffer@WString2@@AEAAXPEBG_K@Z @497
    ?AppendCulture@CMUILocaleList@@AEAAJPEBG@Z=C:/Windows/System32/wbemcomn.?AppendCulture@CMUILocaleList@@AEAAJPEBG@Z @498
    ?AppendLocale@CMUILocaleList@@AEAAJPEBG@Z=C:/Windows/System32/wbemcomn.?AppendLocale@CMUILocaleList@@AEAAJPEBG@Z @499
    ?Apply@CTextTemplate@@QEAAPEAGPEAUIWbemClassObject@@@Z=C:/Windows/System32/wbemcomn.?Apply@CTextTemplate@@QEAAPEAGPEAUIWbemClassObject@@@Z @500
    ?Bind@CFlexArray@@QEAAXAEAV1@@Z=C:/Windows/System32/wbemcomn.?Bind@CFlexArray@@QEAAXAEAV1@@Z @501
    ?BindPtr@WString2@@QEAAXPEAG@Z=C:/Windows/System32/wbemcomn.?BindPtr@WString2@@QEAAXPEAG@Z @502
    ?BindPtr@WString@@QEAAXPEAG@Z=C:/Windows/System32/wbemcomn.?BindPtr@WString@@QEAAXPEAG@Z @503
    ?BreakWait@CInstructionQueue@@QEAAXXZ=C:/Windows/System32/wbemcomn.?BreakWait@CInstructionQueue@@QEAAXXZ @508
    ?BuildSWQLColRef@CWQLScanner@@AEAAHAEAVCFlexArray@@AEAUSWQLColRef@@@Z=C:/Windows/System32/wbemcomn.?BuildSWQLColRef@CWQLScanner@@AEAAHAEAVCFlexArray@@AEAUSWQLColRef@@@Z @510
    ?CalcSitOutPenalty@CExecQueue@@MEAAKJ@Z=C:/Windows/System32/wbemcomn.?CalcSitOutPenalty@CExecQueue@@MEAAKJ@Z @512
    ?CanDelete@CVar@@QEAAHXZ=C:/Windows/System32/wbemcomn.?CanDelete@CVar@@QEAAHXZ @513
    ?CaptureStackTrace@CMemoryLog@@AEAAXQEAPEAX@Z=C:/Windows/System32/wbemcomn.?CaptureStackTrace@CMemoryLog@@AEAAXQEAPEAX@Z @514
    ?Change@CInstructionQueue@@QEAAJPEAVCTimerInstruction@@VCWbemTime@@@Z=C:/Windows/System32/wbemcomn.?Change@CInstructionQueue@@QEAAJPEAVCTimerInstruction@@VCWbemTime@@@Z @515
    ?ChangeTypeTo@CVar@@QEAAHG@Z=C:/Windows/System32/wbemcomn.?ChangeTypeTo@CVar@@QEAAHG@Z @516
    ?ChangeTypeToEx@CVar@@QEAAHGK@Z=C:/Windows/System32/wbemcomn.?ChangeTypeToEx@CVar@@QEAAHGK@Z @517
    ?CheckDMTFDateTimeFormat@CDateTimeParser@@SAHPEBGHH@Z=C:/Windows/System32/wbemcomn.?CheckDMTFDateTimeFormat@CDateTimeParser@@SAHPEBGHH@Z @519
    ?CheckDMTFDateTimeFormatInternal@CDateTimeParser@@IEAAHPEBG@Z=C:/Windows/System32/wbemcomn.?CheckDMTFDateTimeFormatInternal@CDateTimeParser@@IEAAHPEBG@Z @520
    ?CheckDMTFDateTimeInterval@CDateTimeParser@@SAHPEBG@Z=C:/Windows/System32/wbemcomn.?CheckDMTFDateTimeInterval@CDateTimeParser@@SAHPEBG@Z @521
    ?CheckDateFormat@CDateTimeParser@@IEAAHPEBGH@Z=C:/Windows/System32/wbemcomn.?CheckDateFormat@CDateTimeParser@@IEAAHPEBGH@Z @522
    ?CheckLangNeutral@CMUILocale@@SAJPEBGPEA_N@Z=C:/Windows/System32/wbemcomn.?CheckLangNeutral@CMUILocale@@SAJPEBGPEA_N@Z @523
    ?CheckTimeFormat@CDateTimeParser@@IEAAHPEBGH@Z=C:/Windows/System32/wbemcomn.?CheckTimeFormat@CDateTimeParser@@IEAAHPEBGH@Z @524
    ?CheckType@CSafeArray@@AEAAXH@Z=C:/Windows/System32/wbemcomn.?CheckType@CSafeArray@@AEAAXH@Z @525
    ?CleanUp@CWbemInstallObject@@SAXXZ=C:/Windows/System32/wbemcomn.?CleanUp@CWbemInstallObject@@SAXXZ @526
    ?ClearPropRefs@CWQLScanner@@AEAAXXZ=C:/Windows/System32/wbemcomn.?ClearPropRefs@CWQLScanner@@AEAAXXZ @527
    ?ClearTableRefs@CWQLScanner@@AEAAXXZ=C:/Windows/System32/wbemcomn.?ClearTableRefs@CWQLScanner@@AEAAXXZ @528
    ?ClearTokens@CWQLScanner@@AEAAXXZ=C:/Windows/System32/wbemcomn.?ClearTokens@CWQLScanner@@AEAAXXZ @529
    ?Clone@CBuffer@@UEAAJPEAPEAUIStream@@@Z=C:/Windows/System32/wbemcomn.?Clone@CBuffer@@UEAAJPEAPEAUIStream@@@Z @530
    ?CloneData@CSmallArrayBlob@@QEAAPEAPEAXXZ=C:/Windows/System32/wbemcomn.?CloneData@CSmallArrayBlob@@QEAAPEAPEAXXZ @531
    ?CloneThreadContext@CWbemCallSecurity@@UEAAJH@Z=C:/Windows/System32/wbemcomn.?CloneThreadContext@CWbemCallSecurity@@UEAAJH@Z @532
    ?CloneThreadToken@CWbemCallSecurity@@AEAAJK@Z=C:/Windows/System32/wbemcomn.?CloneThreadToken@CWbemCallSecurity@@AEAAJK@Z @533
    ?Close@CEventLog@@QEAAHXZ=C:/Windows/System32/wbemcomn.?Close@CEventLog@@QEAAHXZ @534
    ?CoCreateInstance@CWbemInstallObject@@SAJAEBU_GUID@@PEAUIUnknown@@K0PEAPEAX@Z=C:/Windows/System32/wbemcomn.?CoCreateInstance@CWbemInstallObject@@SAJAEBU_GUID@@PEAUIUnknown@@K0PEAPEAX@Z @535
    ?CoGetClassObject@CWbemInstallObject@@SAJAEBU_GUID@@KPEAU_COSERVERINFO@@0PEAPEAX@Z=C:/Windows/System32/wbemcomn.?CoGetClassObject@CWbemInstallObject@@SAJAEBU_GUID@@KPEAU_COSERVERINFO@@0PEAPEAX@Z @536
    ?Commit@CBuffer@@UEAAJK@Z=C:/Windows/System32/wbemcomn.?Commit@CBuffer@@UEAAJK@Z @537
    ?CompareEls@CFlexArray@@KAHPEBX0@Z=C:/Windows/System32/wbemcomn.?CompareEls@CFlexArray@@KAHPEBX0@Z @538
    ?CompareEls@CSmallArrayBlob@@KAHPEBX0@Z=C:/Windows/System32/wbemcomn.?CompareEls@CSmallArrayBlob@@KAHPEBX0@Z @539
    ?CompareTo@CVar@@QEAAHAEAV1@H@Z=C:/Windows/System32/wbemcomn.?CompareTo@CVar@@QEAAHAEAV1@H@Z @540
    ?CompareTo@CVarVector@@QEAAHAEAV1@H@Z=C:/Windows/System32/wbemcomn.?CompareTo@CVarVector@@QEAAHAEAV1@H@Z @541
    ?Compress@CFlexArray@@QEAAXXZ=C:/Windows/System32/wbemcomn.?Compress@CFlexArray@@QEAAXXZ @543
    ?Compress@CWStringArray@@QEAAXXZ=C:/Windows/System32/wbemcomn.?Compress@CWStringArray@@QEAAXXZ @544
    ?CompressBuffer@CMRCICompression@@QEAAIPEAEK0KW4CompressionLevel@1@@Z=C:/Windows/System32/wbemcomn.?CompressBuffer@CMRCICompression@@QEAAIPEAEK0KW4CompressionLevel@1@@Z @545
    ?CompressFile@CMRCICompression@@QEAAHPEBG0KW4CompressionLevel@1@PEAVCMRCIControl@@@Z=C:/Windows/System32/wbemcomn.?CompressFile@CMRCICompression@@QEAAHPEBG0KW4CompressionLevel@1@PEAVCMRCIControl@@@Z @546
    ?CompressFileV1@CMRCICompression@@IEAAHHHKW4CompressionLevel@1@PEAVCMRCIControl@@@Z=C:/Windows/System32/wbemcomn.?CompressFileV1@CMRCICompression@@IEAAHHHKW4CompressionLevel@1@PEAVCMRCIControl@@@Z @547
    ?ComputePenalty@CMinMaxLimitControl@@IEAAJKKPEAKPEAH@Z=C:/Windows/System32/wbemcomn.?ComputePenalty@CMinMaxLimitControl@@IEAAJKKPEAKPEAH@Z @548
    ?ConcatWithoutQuotes@CTextTemplate@@AEAAXAEAVWString2@@AEAPEAG@Z=C:/Windows/System32/wbemcomn.?ConcatWithoutQuotes@CTextTemplate@@AEAAXAEAVWString2@@AEAPEAG@Z @549
    ?ContainsSid@CNtAcl@@QEAAHAEAVCNtSid@@AEAE@Z=C:/Windows/System32/wbemcomn.?ContainsSid@CNtAcl@@QEAAHAEAVCNtSid@@AEAE@Z @550
    ?CopyBuffer@WString2@@AEAAXPEBG_K@Z=C:/Windows/System32/wbemcomn.?CopyBuffer@WString2@@AEAAXPEBG_K@Z @551
    ?CopyData@CSmallArrayBlob@@IEAAXPEAV1@@Z=C:/Windows/System32/wbemcomn.?CopyData@CSmallArrayBlob@@IEAAXPEAV1@@Z @552
    ?CopyDataFrom@CFlexArray@@QEAAHAEBV1@@Z=C:/Windows/System32/wbemcomn.?CopyDataFrom@CFlexArray@@QEAAHAEBV1@@Z @553
    ?CopyTo@CBuffer@@UEAAJPEAUIStream@@T_ULARGE_INTEGER@@PEAT3@2@Z=C:/Windows/System32/wbemcomn.?CopyTo@CBuffer@@UEAAJPEAUIStream@@T_ULARGE_INTEGER@@PEAT3@2@Z @555
    ?CopyTo@CNtSid@@QEAAHPEAX@Z=C:/Windows/System32/wbemcomn.?CopyTo@CNtSid@@QEAAHPEAX@Z @556
    ?CountQuery@CWQLScanner@@QEAAHXZ=C:/Windows/System32/wbemcomn.?CountQuery@CWQLScanner@@QEAAHXZ @557
    ?CreateBlob@CSmallArrayBlob@@SAPEAV1@H@Z=C:/Windows/System32/wbemcomn.?CreateBlob@CSmallArrayBlob@@SAPEAV1@H@Z @558
    ?CreateInst@CWbemCallSecurity@@SAPEAVIWbemCallSecurity@@XZ=C:/Windows/System32/wbemcomn.?CreateInst@CWbemCallSecurity@@SAPEAVIWbemCallSecurity@@XZ @559
    ?CreateNewThread@CExecQueue@@MEAAHXZ=C:/Windows/System32/wbemcomn.?CreateNewThread@CExecQueue@@MEAAHXZ @560
    ?CurrentLine@CAbstractQl1Parser@@QEAAHXZ=C:/Windows/System32/wbemcomn.?CurrentLine@CAbstractQl1Parser@@QEAAHXZ @562
    ?CurrentToken@CAbstractQl1Parser@@QEAAPEAGXZ=C:/Windows/System32/wbemcomn.?CurrentToken@CAbstractQl1Parser@@QEAAPEAGXZ @563
    ?DateFormat10@CDateTimeParser@@IEAAHPEBG0H@Z=C:/Windows/System32/wbemcomn.?DateFormat10@CDateTimeParser@@IEAAHPEBG0H@Z @564
    ?DateFormat11@CDateTimeParser@@IEAAHPEBG0H@Z=C:/Windows/System32/wbemcomn.?DateFormat11@CDateTimeParser@@IEAAHPEBG0H@Z @565
    ?DateFormat12@CDateTimeParser@@IEAAHPEBG0H@Z=C:/Windows/System32/wbemcomn.?DateFormat12@CDateTimeParser@@IEAAHPEBG0H@Z @566
    ?DateFormat13@CDateTimeParser@@IEAAHPEBG0H@Z=C:/Windows/System32/wbemcomn.?DateFormat13@CDateTimeParser@@IEAAHPEBG0H@Z @567
    ?DateFormat14@CDateTimeParser@@IEAAHPEBG0H@Z=C:/Windows/System32/wbemcomn.?DateFormat14@CDateTimeParser@@IEAAHPEBG0H@Z @568
    ?DateFormat15@CDateTimeParser@@IEAAHPEBGH@Z=C:/Windows/System32/wbemcomn.?DateFormat15@CDateTimeParser@@IEAAHPEBGH@Z @569
    ?DateFormat1@CDateTimeParser@@IEAAHPEBGH@Z=C:/Windows/System32/wbemcomn.?DateFormat1@CDateTimeParser@@IEAAHPEBGH@Z @570
    ?DateFormat2@CDateTimeParser@@IEAAHPEBGH@Z=C:/Windows/System32/wbemcomn.?DateFormat2@CDateTimeParser@@IEAAHPEBGH@Z @571
    ?DateFormat3@CDateTimeParser@@IEAAHPEBGH@Z=C:/Windows/System32/wbemcomn.?DateFormat3@CDateTimeParser@@IEAAHPEBGH@Z @572
    ?DateFormat4@CDateTimeParser@@IEAAHPEBGH@Z=C:/Windows/System32/wbemcomn.?DateFormat4@CDateTimeParser@@IEAAHPEBGH@Z @573
    ?DateFormat5@CDateTimeParser@@IEAAHPEBGH@Z=C:/Windows/System32/wbemcomn.?DateFormat5@CDateTimeParser@@IEAAHPEBGH@Z @574
    ?DateFormat6@CDateTimeParser@@IEAAHPEBGH@Z=C:/Windows/System32/wbemcomn.?DateFormat6@CDateTimeParser@@IEAAHPEBGH@Z @575
    ?DateFormat7@CDateTimeParser@@IEAAHPEBGH@Z=C:/Windows/System32/wbemcomn.?DateFormat7@CDateTimeParser@@IEAAHPEBGH@Z @576
    ?DateFormat8@CDateTimeParser@@IEAAHPEBGH@Z=C:/Windows/System32/wbemcomn.?DateFormat8@CDateTimeParser@@IEAAHPEBGH@Z @577
    ?DateFormat9@CDateTimeParser@@IEAAHPEBG0H@Z=C:/Windows/System32/wbemcomn.?DateFormat9@CDateTimeParser@@IEAAHPEBG0H@Z @578
    ?DebugDump@CFlexArray@@QEAAXXZ=C:/Windows/System32/wbemcomn.?DebugDump@CFlexArray@@QEAAXXZ @579
    ?DecrementIndex@CFlexQueue@@IEAAXAEAH@Z=C:/Windows/System32/wbemcomn.?DecrementIndex@CFlexQueue@@IEAAXAEAH@Z @581
    ?DeleteAce@CNtAcl@@QEAAHH@Z=C:/Windows/System32/wbemcomn.?DeleteAce@CNtAcl@@QEAAHH@Z @582
    ?DeletePropertyName@CAbstractQl1Parser@@IEAAXXZ=C:/Windows/System32/wbemcomn.?DeletePropertyName@CAbstractQl1Parser@@IEAAXXZ @583
    ?DeleteSacl@CNtSecurityDescriptor@@QEAAJXZ=C:/Windows/System32/wbemcomn.?DeleteSacl@CNtSecurityDescriptor@@QEAAJXZ @584
    ?DeleteStr@CWStringArray@@QEAAHH@Z=C:/Windows/System32/wbemcomn.?DeleteStr@CWStringArray@@QEAAHH@Z @585
    ?DeleteString@WString2@@AEAAX_N@Z=C:/Windows/System32/wbemcomn.?DeleteString@WString2@@AEAAX_N@Z @586
    ?DeleteString@WString@@AEAAXPEAG@Z=C:/Windows/System32/wbemcomn.?DeleteString@WString@@AEAAXPEAG@Z @587
    ?DeleteValue@Registry@@QEAAHPEBG@Z=C:/Windows/System32/wbemcomn.?DeleteValue@Registry@@QEAAHPEBG@Z @588
    ?Dequeue@CFlexQueue@@QEAAPEAXXZ=C:/Windows/System32/wbemcomn.?Dequeue@CFlexQueue@@QEAAPEAXXZ @589
    ?Dequeue@CInstructionQueue@@QEAAJAEAPEAVCTimerInstruction@@AEAVCWbemTime@@@Z=C:/Windows/System32/wbemcomn.?Dequeue@CInstructionQueue@@QEAAJAEAPEAVCTimerInstruction@@AEAVCWbemTime@@@Z @590
    ?Deserialize@C9XAce@@UEAA_NPEAE@Z=C:/Windows/System32/wbemcomn.?Deserialize@C9XAce@@UEAA_NPEAE@Z @591
    ?Deserialize@CNtAce@@UEAA_NPEAE@Z=C:/Windows/System32/wbemcomn.?Deserialize@CNtAce@@UEAA_NPEAE@Z @592
    ?Difference@CWStringArray@@SAXAEAV1@00@Z=C:/Windows/System32/wbemcomn.?Difference@CWStringArray@@SAXAEAV1@00@Z @593
    ?Disable@CTraceSessionControl@@QEAAKXZ=C:/Windows/System32/wbemcomn.?Disable@CTraceSessionControl@@QEAAKXZ @594
    ?DoLike@CLike@@IEAA_NPEBG0G@Z=C:/Windows/System32/wbemcomn.?DoLike@CLike@@IEAA_NPEBG0G@Z @595
    ?DoesNeedNewThread@CExecQueue@@MEAAHPEAVCExecRequest@@@Z=C:/Windows/System32/wbemcomn.?DoesNeedNewThread@CExecQueue@@MEAAHPEAVCExecRequest@@@Z @596
    ?DoesVectorTypeMatchArrayType@CVarVector@@QEAAHXZ=C:/Windows/System32/wbemcomn.?DoesVectorTypeMatchArrayType@CVarVector@@QEAAHXZ @597
    ?Dump@CWQLScanner@@QEAAXXZ=C:/Windows/System32/wbemcomn.?Dump@CWQLScanner@@QEAAXXZ @598
    ?Dump@QL_LEVEL_1_RPN_EXPRESSION@@QEAAXPEBD@Z=C:/Windows/System32/wbemcomn.?Dump@QL_LEVEL_1_RPN_EXPRESSION@@QEAAXPEBD@Z @599
    ?Dump@QL_LEVEL_1_TOKEN@@QEAAXPEAU_iobuf@@@Z=C:/Windows/System32/wbemcomn.?Dump@QL_LEVEL_1_TOKEN@@QEAAXPEAU_iobuf@@@Z @600
    ?DumpError@CExecRequest@@UEAAXXZ=C:/Windows/System32/wbemcomn.?DumpError@CExecRequest@@UEAAXXZ @602
    ?DumpText@CVar@@QEAAHPEAU_iobuf@@@Z=C:/Windows/System32/wbemcomn.?DumpText@CVar@@QEAAHPEAU_iobuf@@@Z @603
    ?ElementSize@CSafeArray@@QEAAHXZ=C:/Windows/System32/wbemcomn.?ElementSize@CSafeArray@@QEAAHXZ @604
    ?Empty@CFlexArray@@QEAAXXZ=C:/Windows/System32/wbemcomn.?Empty@CFlexArray@@QEAAXXZ @605
    ?Empty@CPropertyName@@QEAAXXZ=C:/Windows/System32/wbemcomn.?Empty@CPropertyName@@QEAAXXZ @606
    ?Empty@CSafeArray@@QEAAXXZ=C:/Windows/System32/wbemcomn.?Empty@CSafeArray@@QEAAXXZ @607
    ?Empty@CVar@@QEAAXXZ=C:/Windows/System32/wbemcomn.?Empty@CVar@@QEAAXXZ @608
    ?Empty@CVarVector@@QEAAXXZ=C:/Windows/System32/wbemcomn.?Empty@CVarVector@@QEAAXXZ @609
    ?Empty@CWStringArray@@QEAAXXZ=C:/Windows/System32/wbemcomn.?Empty@CWStringArray@@QEAAXXZ @610
    ?Empty@WString2@@QEAAXXZ=C:/Windows/System32/wbemcomn.?Empty@WString2@@QEAAXXZ @611
    ?Empty@WString@@QEAAXXZ=C:/Windows/System32/wbemcomn.?Empty@WString@@QEAAXXZ @612
    ?Enable@CTraceSessionControl@@QEAAKXZ=C:/Windows/System32/wbemcomn.?Enable@CTraceSessionControl@@QEAAKXZ @613
    ?EncryptedCall@CIdentitySecurity@@AEAA_NXZ=C:/Windows/System32/wbemcomn.?EncryptedCall@CIdentitySecurity@@AEAA_NXZ @616
    ?Enqueue@CExecQueue@@UEAAJPEAVCExecRequest@@PEAPEAX@Z=C:/Windows/System32/wbemcomn.?Enqueue@CExecQueue@@UEAAJPEAVCExecRequest@@PEAPEAX@Z @617
    ?Enqueue@CFlexQueue@@QEAA_NPEAX@Z=C:/Windows/System32/wbemcomn.?Enqueue@CFlexQueue@@QEAA_NPEAX@Z @618
    ?Enqueue@CInstructionQueue@@QEAAJVCWbemTime@@PEAVCTimerInstruction@@@Z=C:/Windows/System32/wbemcomn.?Enqueue@CInstructionQueue@@QEAAJVCWbemTime@@PEAVCTimerInstruction@@@Z @619
    ?EnqueueAndWait@CExecQueue@@QEAAJPEAVCExecRequest@@@Z=C:/Windows/System32/wbemcomn.?EnqueueAndWait@CExecQueue@@QEAAJPEAVCExecRequest@@@Z @620
    ?EnqueueWithoutSleep@CExecQueue@@QEAAJPEAVCExecRequest@@PEAPEAX@Z=C:/Windows/System32/wbemcomn.?EnqueueWithoutSleep@CExecQueue@@QEAAJPEAVCExecRequest@@PEAPEAX@Z @621
    ?EnsureAllocated@CPropertyName@@IEAAXJ@Z=C:/Windows/System32/wbemcomn.?EnsureAllocated@CPropertyName@@IEAAXJ@Z @622
    ?EnsureExtent@CFlexArray@@QEAAHH@Z=C:/Windows/System32/wbemcomn.?EnsureExtent@CFlexArray@@QEAAHH@Z @623
    ?EnsureExtent@CSmallArrayBlob@@IEAAPEAV1@H@Z=C:/Windows/System32/wbemcomn.?EnsureExtent@CSmallArrayBlob@@IEAAPEAV1@H@Z @624
    ?EnsureMatchState@CLike@@AEAAX_K@Z=C:/Windows/System32/wbemcomn.?EnsureMatchState@CLike@@AEAAX_K@Z @625
    ?EnsureRunning@CTimerGenerator@@AEAAXXZ=C:/Windows/System32/wbemcomn.?EnsureRunning@CTimerGenerator@@AEAAXXZ @626
    ?EnsureSize@CBuffer@@AEAAXK@Z=C:/Windows/System32/wbemcomn.?EnsureSize@CBuffer@@AEAAXK@Z @627
    ?Enter@CCheckedInCritSec@@QEAAXXZ=C:/Windows/System32/wbemcomn.?Enter@CCheckedInCritSec@@QEAAXXZ @628
    ?Enter@CCritSec@@QEAAXXZ=C:/Windows/System32/wbemcomn.?Enter@CCritSec@@QEAAXXZ @629
    ?Enter@CExecQueue@@QEAAXXZ=C:/Windows/System32/wbemcomn.?Enter@CExecQueue@@QEAAXXZ @630
    ?Enter@CStaticCritSec@@QEAAXXZ=C:/Windows/System32/wbemcomn.?Enter@CStaticCritSec@@QEAAXXZ @631
    ?Enter@CWbemCriticalSection@@QEAAHK@Z=C:/Windows/System32/wbemcomn.?Enter@CWbemCriticalSection@@QEAAHK@Z @632
    ?Equal@WString2@@QEBAHPEBG@Z=C:/Windows/System32/wbemcomn.?Equal@WString2@@QEBAHPEBG@Z @633
    ?Equal@WString@@QEBAHPEBG@Z=C:/Windows/System32/wbemcomn.?Equal@WString@@QEBAHPEBG@Z @634
    ?EqualNoCase@WString2@@QEBAHPEBG@Z=C:/Windows/System32/wbemcomn.?EqualNoCase@WString2@@QEBAHPEBG@Z @635
    ?EqualNoCase@WString@@QEBAHPEBG@Z=C:/Windows/System32/wbemcomn.?EqualNoCase@WString@@QEBAHPEBG@Z @636
    ?EscapeQuotes@WString2@@QEBA?AV1@XZ=C:/Windows/System32/wbemcomn.?EscapeQuotes@WString2@@QEBA?AV1@XZ @638
    ?EscapeQuotes@WString@@QEBA?AV1@XZ=C:/Windows/System32/wbemcomn.?EscapeQuotes@WString@@QEBA?AV1@XZ @639
    ?Execute@CExecQueue@@MEAAHPEAVCThreadRecord@1@@Z=C:/Windows/System32/wbemcomn.?Execute@CExecQueue@@MEAAHPEAVCThreadRecord@1@@Z @640
    ?ExpandEnvironmentStringsW@CWbemInstallObject@@SAKPEBGPEAGK@Z=C:/Windows/System32/wbemcomn.?ExpandEnvironmentStringsW@CWbemInstallObject@@SAKPEBGPEAGK@Z @641
    ?ExpandVariableValue@CWbemInstallObject@@CAJPEBGPEAG_KPEA_K@Z=C:/Windows/System32/wbemcomn.?ExpandVariableValue@CWbemInstallObject@@CAJPEBGPEAG_KPEA_K@Z @642
    ?ExtractNext@CWQLScanner@@AEAAPEAUWSLexToken@@H@Z=C:/Windows/System32/wbemcomn.?ExtractNext@CWQLScanner@@AEAAPEAUWSLexToken@@H@Z @644
    ?ExtractSelectType@CWQLScanner@@AEAAHXZ=C:/Windows/System32/wbemcomn.?ExtractSelectType@CWQLScanner@@AEAAHXZ @645
    ?ExtractToken@WString2@@QEAAHGAEAV1@@Z=C:/Windows/System32/wbemcomn.?ExtractToken@WString2@@QEAAHGAEAV1@@Z @646
    ?ExtractToken@WString2@@QEAAHPEBGAEAV1@@Z=C:/Windows/System32/wbemcomn.?ExtractToken@WString2@@QEAAHPEBGAEAV1@@Z @647
    ?ExtractToken@WString@@QEAAHGAEAV1@@Z=C:/Windows/System32/wbemcomn.?ExtractToken@WString@@QEAAHGAEAV1@@Z @648
    ?ExtractToken@WString@@QEAAHPEBGAEAV1@@Z=C:/Windows/System32/wbemcomn.?ExtractToken@WString@@QEAAHPEBGAEAV1@@Z @649
    ?Fatal@CSafeArray@@AEAAXPEBD@Z=C:/Windows/System32/wbemcomn.?Fatal@CSafeArray@@AEAAXPEBD@Z @650
    ?FillCVarAt@CVarVector@@QEAAXHAEAVCVar@@@Z=C:/Windows/System32/wbemcomn.?FillCVarAt@CVarVector@@QEAAXHAEAVCVar@@@Z @651
    ?FillDMTF@CDateTimeParser@@QEAAHPEAG_K@Z=C:/Windows/System32/wbemcomn.?FillDMTF@CDateTimeParser@@QEAAHPEAG_K@Z @652
    ?FillVariant@CVar@@QEAAXPEAUtagVARIANT@@H@Z=C:/Windows/System32/wbemcomn.?FillVariant@CVar@@QEAAXPEAUtagVARIANT@@H@Z @653
    ?FinalizeMatchState@CLike@@AEAAXXZ=C:/Windows/System32/wbemcomn.?FinalizeMatchState@CLike@@AEAAXXZ @654
    ?FindStr@CWStringArray@@QEAAHPEBGH@Z=C:/Windows/System32/wbemcomn.?FindStr@CWStringArray@@QEAAHPEBGH@Z @655
    ?FlipOperator@CAbstractQl1Parser@@IEAAHH@Z=C:/Windows/System32/wbemcomn.?FlipOperator@CAbstractQl1Parser@@IEAAHH@Z @656
    ?FlushRepository@CWbemInstallObject@@SAJXZ=C:/Windows/System32/wbemcomn.?FlushRepository@CWbemInstallObject@@SAJXZ @657
    ?Free@CWin32DefaultArena@@UEAAHPEAX@Z=C:/Windows/System32/wbemcomn.?Free@CWin32DefaultArena@@UEAAHPEAX@Z @658
    ?FreeMap@CWbemInstallObject@@SAXXZ=C:/Windows/System32/wbemcomn.?FreeMap@CWbemInstallObject@@SAXXZ @659
    ?Get100nss@CWbemTime@@QEBA_JXZ=C:/Windows/System32/wbemcomn.?Get100nss@CWbemTime@@QEBA_JXZ @660
    ?GetAbsoluteCopy@CNtSecurityDescriptor@@QEAAPEAUSNtAbsoluteSD@@XZ=C:/Windows/System32/wbemcomn.?GetAbsoluteCopy@CNtSecurityDescriptor@@QEAAPEAUSNtAbsoluteSD@@XZ @661
    ?GetAccessMask@C9XAce@@UEAAKXZ=C:/Windows/System32/wbemcomn.?GetAccessMask@C9XAce@@UEAAKXZ @662
    ?GetAccessMask@CNtAce@@UEAAKXZ=C:/Windows/System32/wbemcomn.?GetAccessMask@CNtAce@@UEAAKXZ @663
    ?GetAce@CNtAcl@@QEAAHHAEAVCNtAce@@@Z=C:/Windows/System32/wbemcomn.?GetAce@CNtAcl@@QEAAHHAEAVCNtAce@@@Z @665
    ?GetAce@CNtAcl@@QEAAPEAVCNtAce@@H@Z=C:/Windows/System32/wbemcomn.?GetAce@CNtAcl@@QEAAPEAVCNtAce@@H@Z @666
    ?GetAclSizeInfo@CNtAcl@@QEAAHPEAK0@Z=C:/Windows/System32/wbemcomn.?GetAclSizeInfo@CNtAcl@@QEAAHPEAK0@Z @667
    ?GetActiveImpersonation@CWbemCallSecurity@@UEAAJXZ=C:/Windows/System32/wbemcomn.?GetActiveImpersonation@CWbemCallSecurity@@UEAAJXZ @668
    ?GetActualVarType@CSafeArray@@QEAAHPEAG@Z=C:/Windows/System32/wbemcomn.?GetActualVarType@CSafeArray@@QEAAHPEAG@Z @669
    ?GetAreaFlags@CWMITraceSettings@@QEAAKXZ=C:/Windows/System32/wbemcomn.?GetAreaFlags@CWMITraceSettings@@QEAAKXZ @670
    ?GetArenaHeap@CWin32DefaultArena@@SAPEAXXZ=C:/Windows/System32/wbemcomn.?GetArenaHeap@CWin32DefaultArena@@SAPEAXXZ @671
    ?GetArray@CSafeArray@@QEAAPEAUtagSAFEARRAY@@XZ=C:/Windows/System32/wbemcomn.?GetArray@CSafeArray@@QEAAPEAUtagSAFEARRAY@@XZ @672
    ?GetArrayCopy@CSafeArray@@QEAAPEAUtagSAFEARRAY@@XZ=C:/Windows/System32/wbemcomn.?GetArrayCopy@CSafeArray@@QEAAPEAUtagSAFEARRAY@@XZ @673
    ?GetArrayPtr@CFlexArray@@QEAAPEAPEAXXZ=C:/Windows/System32/wbemcomn.?GetArrayPtr@CFlexArray@@QEAAPEAPEAXXZ @674
    ?GetArrayPtr@CFlexArray@@QEBAPEBQEAXXZ=C:/Windows/System32/wbemcomn.?GetArrayPtr@CFlexArray@@QEBAPEBQEAXXZ @675
    ?GetArrayPtr@CSmallArrayBlob@@QEAAPEAPEAXXZ=C:/Windows/System32/wbemcomn.?GetArrayPtr@CSmallArrayBlob@@QEAAPEAPEAXXZ @676
    ?GetArrayPtr@CSmallArrayBlob@@QEBAPEBQEAXXZ=C:/Windows/System32/wbemcomn.?GetArrayPtr@CSmallArrayBlob@@QEBAPEBQEAXXZ @677
    ?GetArrayPtr@CWStringArray@@QEAAPEAPEBGXZ=C:/Windows/System32/wbemcomn.?GetArrayPtr@CWStringArray@@QEAAPEAPEBGXZ @678
    ?GetAt@CFlexArray@@QEBAPEAXH@Z=C:/Windows/System32/wbemcomn.?GetAt@CFlexArray@@QEBAPEAXH@Z @679
    ?GetAt@CSmallArrayBlob@@QEBAPEAXH@Z=C:/Windows/System32/wbemcomn.?GetAt@CSmallArrayBlob@@QEBAPEAXH@Z @680
    ?GetAt@CVarVector@@QEAAAEAVCVar@@H@Z=C:/Windows/System32/wbemcomn.?GetAt@CVarVector@@QEAAAEAVCVar@@H@Z @681
    ?GetAt@CWStringArray@@QEBAPEAGH@Z=C:/Windows/System32/wbemcomn.?GetAt@CWStringArray@@QEBAPEAGH@Z @682
    ?GetAuthenticationId@CWbemCallSecurity@@UEAAKAEAU_LUID@@@Z=C:/Windows/System32/wbemcomn.?GetAuthenticationId@CWbemCallSecurity@@UEAAKAEAU_LUID@@@Z @683
    ?GetAutoRecoverFolder@CWbemInstallObject@@SAPEBGXZ=C:/Windows/System32/wbemcomn.?GetAutoRecoverFolder@CWbemInstallObject@@SAPEBGXZ @684
    ?GetBSTR@CVar@@QEAAPEAGXZ=C:/Windows/System32/wbemcomn.?GetBSTR@CVar@@QEAAPEAGXZ @685
    ?GetBSTRAt@CSafeArray@@QEAAPEAGH@Z=C:/Windows/System32/wbemcomn.?GetBSTRAt@CSafeArray@@QEAAPEAGH@Z @686
    ?GetBSTRAtThrow@CSafeArray@@QEAAPEAGH@Z=C:/Windows/System32/wbemcomn.?GetBSTRAtThrow@CSafeArray@@QEAAPEAGH@Z @687
    ?GetBinary@Registry@@QEAAHPEBGPEAPEAEPEAK@Z=C:/Windows/System32/wbemcomn.?GetBinary@Registry@@QEAAHPEBGPEAPEAEPEAK@Z @688
    ?GetBinaryPath@CWbemInstallObject@@SAPEBGXZ=C:/Windows/System32/wbemcomn.?GetBinaryPath@CWbemInstallObject@@SAPEBGXZ @689
    ?GetBlob@CVar@@QEAAPEAUtagBLOB@@XZ=C:/Windows/System32/wbemcomn.?GetBlob@CVar@@QEAAPEAUtagBLOB@@XZ @690
    ?GetBool@CVar@@QEAAFXZ=C:/Windows/System32/wbemcomn.?GetBool@CVar@@QEAAFXZ @691
    ?GetBoolAt@CSafeArray@@QEAAFH@Z=C:/Windows/System32/wbemcomn.?GetBoolAt@CSafeArray@@QEAAFH@Z @692
    ?GetByte@CVar@@QEAAEXZ=C:/Windows/System32/wbemcomn.?GetByte@CVar@@QEAAEXZ @693
    ?GetByteAt@CSafeArray@@QEAAEH@Z=C:/Windows/System32/wbemcomn.?GetByteAt@CSafeArray@@QEAAEH@Z @694
    ?GetCallerIdentity@CWbemCallSecurity@@QEAAPEBGXZ=C:/Windows/System32/wbemcomn.?GetCallerIdentity@CWbemCallSecurity@@QEAAPEBGXZ @695
    ?GetChar@CVar@@QEAADXZ=C:/Windows/System32/wbemcomn.?GetChar@CVar@@QEAADXZ @696
    ?GetChildren@CClientOpsNode@@QEAAPEAV1@XZ=C:/Windows/System32/wbemcomn.?GetChildren@CClientOpsNode@@QEAAPEAV1@XZ @697
    ?GetClsId@CVar@@QEAAPEAU_GUID@@XZ=C:/Windows/System32/wbemcomn.?GetClsId@CVar@@QEAAPEAU_GUID@@XZ @698
    ?GetCompressedFileInfo@CMRCICompression@@SAHPEBGAEAW4CompressionLevel@1@AEAKAEAU_FILETIME@@AEA_J@Z=C:/Windows/System32/wbemcomn.?GetCompressedFileInfo@CMRCICompression@@SAHPEBGAEAW4CompressionLevel@1@AEAKAEAU_FILETIME@@AEA_J@Z @699
    ?GetCreationTime@CEventLogRecord@@QEAA?AVCWbemTime@@XZ=C:/Windows/System32/wbemcomn.?GetCreationTime@CEventLogRecord@@QEAA?AVCWbemTime@@XZ @700
    ?GetCultures@CMUILocaleList@@QEAAPEBGXZ=C:/Windows/System32/wbemcomn.?GetCultures@CMUILocaleList@@QEAAPEBGXZ @701
    ?GetDMTF@CWbemTime@@AEAAHHKPEAG@Z=C:/Windows/System32/wbemcomn.?GetDMTF@CWbemTime@@AEAAHHKPEAG@Z @702
    ?GetDWORD@CVar@@QEAAKXZ=C:/Windows/System32/wbemcomn.?GetDWORD@CVar@@QEAAKXZ @703
    ?GetDWORD@Registry@@QEAAHPEBGPEAK@Z=C:/Windows/System32/wbemcomn.?GetDWORD@Registry@@QEAAHPEBGPEAK@Z @704
    ?GetDWORDStr@Registry@@QEAAHPEBGPEAK@Z=C:/Windows/System32/wbemcomn.?GetDWORDStr@Registry@@QEAAHPEBGPEAK@Z @705
    ?GetDacl@CNtSecurityDescriptor@@QEAAHAEAVCNtAcl@@@Z=C:/Windows/System32/wbemcomn.?GetDacl@CNtSecurityDescriptor@@QEAAHAEAVCNtAcl@@@Z @706
    ?GetDacl@CNtSecurityDescriptor@@QEAAJPEAPEAVCNtAcl@@@Z=C:/Windows/System32/wbemcomn.?GetDacl@CNtSecurityDescriptor@@QEAAJPEAPEAVCNtAcl@@@Z @707
    ?GetDacl@CNtSecurityDescriptor@@QEAAPEAVCNtAcl@@XZ=C:/Windows/System32/wbemcomn.?GetDacl@CNtSecurityDescriptor@@QEAAPEAVCNtAcl@@XZ @708
    ?GetDay@CDateTimeParser@@QEAAEXZ=C:/Windows/System32/wbemcomn.?GetDay@CDateTimeParser@@QEAAEXZ @709
    ?GetDispatch@CVar@@QEAAPEAUIDispatch@@XZ=C:/Windows/System32/wbemcomn.?GetDispatch@CVar@@QEAAPEAUIDispatch@@XZ @710
    ?GetDispatchAt@CSafeArray@@QEAAPEAUIDispatch@@H@Z=C:/Windows/System32/wbemcomn.?GetDispatchAt@CSafeArray@@QEAAPEAUIDispatch@@H@Z @711
    ?GetDouble@CVar@@QEAANXZ=C:/Windows/System32/wbemcomn.?GetDouble@CVar@@QEAANXZ @712
    ?GetDoubleAt@CSafeArray@@QEAANH@Z=C:/Windows/System32/wbemcomn.?GetDoubleAt@CSafeArray@@QEAANH@Z @713
    ?GetElementSize@CVarVector@@QEAAHXZ=C:/Windows/System32/wbemcomn.?GetElementSize@CVarVector@@QEAAHXZ @714
    ?GetEmbeddedObject@CVar@@QEAAPEAUIUnknown@@XZ=C:/Windows/System32/wbemcomn.?GetEmbeddedObject@CVar@@QEAAPEAUIUnknown@@XZ @715
    ?GetEnvironmentValue@CWbemInstallObject@@CAJPEBGPEAPEBG@Z=C:/Windows/System32/wbemcomn.?GetEnvironmentValue@CWbemInstallObject@@CAJPEBGPEAPEBG@Z @716
    ?GetEventTraceProperties@CWMITraceSettings@@QEAAPEAU_EVENT_TRACE_PROPERTIES@@XZ=C:/Windows/System32/wbemcomn.?GetEventTraceProperties@CWMITraceSettings@@QEAAPEAU_EVENT_TRACE_PROPERTIES@@XZ @717
    ?GetExpression@CLike@@QEAAPEBGXZ=C:/Windows/System32/wbemcomn.?GetExpression@CLike@@QEAAPEBGXZ @718
    ?GetFILETIME@CWbemTime@@QEBAHPEAU_FILETIME@@@Z=C:/Windows/System32/wbemcomn.?GetFILETIME@CWbemTime@@QEBAHPEAU_FILETIME@@@Z @719
    ?GetFileTime@CVar@@QEAA?AU_FILETIME@@XZ=C:/Windows/System32/wbemcomn.?GetFileTime@CVar@@QEAA?AU_FILETIME@@XZ @721
    ?GetFirstFiringTime@CBasicUnloadInstruction@@UEBA?AVCWbemTime@@XZ=C:/Windows/System32/wbemcomn.?GetFirstFiringTime@CBasicUnloadInstruction@@UEBA?AVCWbemTime@@XZ @722
    ?GetFirst_ms_XXX_Locale@CMUILocaleList@@QEAAJPEAPEAG@Z=C:/Windows/System32/wbemcomn.?GetFirst_ms_XXX_Locale@CMUILocaleList@@QEAAJPEAPEAG@Z @723
    ?GetFlags@C9XAce@@UEAAHXZ=C:/Windows/System32/wbemcomn.?GetFlags@C9XAce@@UEAAHXZ @724
    ?GetFlags@CNtAce@@UEAAHXZ=C:/Windows/System32/wbemcomn.?GetFlags@CNtAce@@UEAAHXZ @725
    ?GetFloat@CVar@@QEAAMXZ=C:/Windows/System32/wbemcomn.?GetFloat@CVar@@QEAAMXZ @726
    ?GetFloatAt@CSafeArray@@QEAAMH@Z=C:/Windows/System32/wbemcomn.?GetFloatAt@CSafeArray@@QEAAMH@Z @727
    ?GetFunctionPointers@CMUILocale@@CAJXZ=C:/Windows/System32/wbemcomn.?GetFunctionPointers@CMUILocale@@CAJXZ @728
    ?GetFunctionPointers@CPublishWMIOperationEvent@@SAJXZ=C:/Windows/System32/wbemcomn.?GetFunctionPointers@CPublishWMIOperationEvent@@SAJXZ @729
    ?GetGroup@CNtSecurityDescriptor@@QEAAPEAVCNtSid@@XZ=C:/Windows/System32/wbemcomn.?GetGroup@CNtSecurityDescriptor@@QEAAPEAVCNtSid@@XZ @731
    ?GetHandle@CPropertyName@@QEAAPEAXXZ=C:/Windows/System32/wbemcomn.?GetHandle@CPropertyName@@QEAAPEAXXZ @732
    ?GetHours@CDateTimeParser@@QEAAEXZ=C:/Windows/System32/wbemcomn.?GetHours@CDateTimeParser@@QEAAEXZ @733
    ?GetIdleTimeout@CExecQueue@@MEAAKPEAVCThreadRecord@1@@Z=C:/Windows/System32/wbemcomn.?GetIdleTimeout@CExecQueue@@MEAAKPEAVCThreadRecord@1@@Z @734
    ?GetIndex@CBuffer@@QEAAKXZ=C:/Windows/System32/wbemcomn.?GetIndex@CBuffer@@QEAAKXZ @735
    ?GetInfinity@CWbemInterval@@SA?AV1@XZ=C:/Windows/System32/wbemcomn.?GetInfinity@CWbemInterval@@SA?AV1@XZ @736
    ?GetInfinity@CWbemTime@@SA?AV1@XZ=C:/Windows/System32/wbemcomn.?GetInfinity@CWbemTime@@SA?AV1@XZ @737
    ?GetInfo@CClientOpsNode@@QEAAPEAXXZ=C:/Windows/System32/wbemcomn.?GetInfo@CClientOpsNode@@QEAAPEAXXZ @738
    ?GetInfo@CNtSid@@QEAAHPEAPEAG0PEAK@Z=C:/Windows/System32/wbemcomn.?GetInfo@CNtSid@@QEAAHPEAPEAG0PEAK@Z @739
    ?GetInnerUnknown@CUnk@@QEAAPEAUIUnknown@@XZ=C:/Windows/System32/wbemcomn.?GetInnerUnknown@CUnk@@QEAAPEAUIUnknown@@XZ @740
    ?GetInstructionType@CBasicUnloadInstruction@@UEAAHXZ=C:/Windows/System32/wbemcomn.?GetInstructionType@CBasicUnloadInstruction@@UEAAHXZ @741
    ?GetLPSTR@CVar@@QEAAPEADXZ=C:/Windows/System32/wbemcomn.?GetLPSTR@CVar@@QEAAPEADXZ @742
    ?GetLPSTR@WString2@@QEBAPEADXZ=C:/Windows/System32/wbemcomn.?GetLPSTR@WString2@@QEBAPEADXZ @743
    ?GetLPSTR@WString@@QEBAPEADXZ=C:/Windows/System32/wbemcomn.?GetLPSTR@WString@@QEBAPEADXZ @744
    ?GetLPWSTR@CVar@@QEAAPEAGXZ=C:/Windows/System32/wbemcomn.?GetLPWSTR@CVar@@QEAAPEAGXZ @745
    ?GetLToken@WString2@@QEBAPEAGG@Z=C:/Windows/System32/wbemcomn.?GetLToken@WString2@@QEBAPEAGG@Z @746
    ?GetLToken@WString@@QEBAPEAGG@Z=C:/Windows/System32/wbemcomn.?GetLToken@WString@@QEBAPEAGG@Z @747
    ?GetLastError@Registry@@QEAAJXZ=C:/Windows/System32/wbemcomn.?GetLastError@Registry@@QEAAJXZ @748
    ?GetLocalInfoAndAlloc@CDateTimeParser@@IEAAXKAEAPEAG@Z=C:/Windows/System32/wbemcomn.?GetLocalInfoAndAlloc@CDateTimeParser@@IEAAXKAEAPEAG@Z @749
    ?GetLocalOffsetForDate@CWbemTime@@SAJPEBU_SYSTEMTIME@@@Z=C:/Windows/System32/wbemcomn.?GetLocalOffsetForDate@CWbemTime@@SAJPEBU_SYSTEMTIME@@@Z @750
    ?GetLocales@CMUILocaleList@@QEAAPEBGXZ=C:/Windows/System32/wbemcomn.?GetLocales@CMUILocaleList@@QEAAPEBGXZ @751
    ?GetLockCount@CWbemCriticalSection@@QEAAJXZ=C:/Windows/System32/wbemcomn.?GetLockCount@CWbemCriticalSection@@QEAAJXZ @752
    ?GetLong@CVar@@QEAAJXZ=C:/Windows/System32/wbemcomn.?GetLong@CVar@@QEAAJXZ @754
    ?GetLongAt@CSafeArray@@QEAAJH@Z=C:/Windows/System32/wbemcomn.?GetLongAt@CSafeArray@@QEAAJH@Z @755
    ?GetMicroseconds@CDateTimeParser@@QEAAIXZ=C:/Windows/System32/wbemcomn.?GetMicroseconds@CDateTimeParser@@QEAAIXZ @757
    ?GetMilliseconds@CWbemInterval@@QEBAKXZ=C:/Windows/System32/wbemcomn.?GetMilliseconds@CWbemInterval@@QEBAKXZ @758
    ?GetMinutes@CDateTimeParser@@QEAAEXZ=C:/Windows/System32/wbemcomn.?GetMinutes@CDateTimeParser@@QEAAEXZ @759
    ?GetMonth@CDateTimeParser@@QEAAEXZ=C:/Windows/System32/wbemcomn.?GetMonth@CDateTimeParser@@QEAAEXZ @760
    ?GetMultiStr@Registry@@QEAAPEAGPEBGAEAK@Z=C:/Windows/System32/wbemcomn.?GetMultiStr@Registry@@QEAAPEAGPEBGAEAK@Z @761
    ?GetNewSafeArray@CVar@@QEAAPEAUtagSAFEARRAY@@XZ=C:/Windows/System32/wbemcomn.?GetNewSafeArray@CVar@@QEAAPEAUtagSAFEARRAY@@XZ @762
    ?GetNewSafeArray@CVarVector@@QEAAPEAUtagSAFEARRAY@@XZ=C:/Windows/System32/wbemcomn.?GetNewSafeArray@CVarVector@@QEAAPEAUtagSAFEARRAY@@XZ @763
    ?GetNewVariant@CVar@@QEAAPEAUtagVARIANT@@XZ=C:/Windows/System32/wbemcomn.?GetNewVariant@CVar@@QEAAPEAUtagVARIANT@@XZ @764
    ?GetNext@CClientOpsNode@@QEAAPEAV1@XZ=C:/Windows/System32/wbemcomn.?GetNext@CClientOpsNode@@QEAAPEAV1@XZ @765
    ?GetNext@CExecRequest@@QEAAPEAV1@XZ=C:/Windows/System32/wbemcomn.?GetNext@CExecRequest@@QEAAPEAV1@XZ @766
    ?GetNextElement@CCircularQueue@@QEAAKPEAPEAULOG_ELEMENT@@@Z=C:/Windows/System32/wbemcomn.?GetNextElement@CCircularQueue@@QEAAKPEAPEAULOG_ELEMENT@@@Z @767
    ?GetNextFiringTime@CBasicUnloadInstruction@@UEBA?AVCWbemTime@@V2@PEAJ@Z=C:/Windows/System32/wbemcomn.?GetNextFiringTime@CBasicUnloadInstruction@@UEBA?AVCWbemTime@@V2@PEAJ@Z @768
    ?GetNumAces@CNtAcl@@QEAAHXZ=C:/Windows/System32/wbemcomn.?GetNumAces@CNtAcl@@QEAAHXZ @769
    ?GetNumElements@CPropertyName@@QEBAJXZ=C:/Windows/System32/wbemcomn.?GetNumElements@CPropertyName@@QEBAJXZ @770
    ?GetNumInstructions@CInstructionQueue@@QEAAJXZ=C:/Windows/System32/wbemcomn.?GetNumInstructions@CInstructionQueue@@QEAAJXZ @771
    ?GetNumStrings@CEventLogRecord@@QEAAGXZ=C:/Windows/System32/wbemcomn.?GetNumStrings@CEventLogRecord@@QEAAGXZ @772
    ?GetOleType@CVar@@QEAAHXZ=C:/Windows/System32/wbemcomn.?GetOleType@CVar@@QEAAHXZ @773
    ?GetOwner@CNtSecurityDescriptor@@QEAAPEAVCNtSid@@XZ=C:/Windows/System32/wbemcomn.?GetOwner@CNtSecurityDescriptor@@QEAAPEAVCNtSid@@XZ @774
    ?GetOwningThreadId@CWbemCriticalSection@@QEAAKXZ=C:/Windows/System32/wbemcomn.?GetOwningThreadId@CWbemCriticalSection@@QEAAKXZ @775
    ?GetPart@CDatePart@@QEAAJHPEAH@Z=C:/Windows/System32/wbemcomn.?GetPart@CDatePart@@QEAAJHPEAH@Z @776
    ?GetPersistentCfgValue@CPersistentConfig@@QEAAHKAEAK@Z=C:/Windows/System32/wbemcomn.?GetPersistentCfgValue@CPersistentConfig@@QEAAHKAEAK@Z @777
    ?GetPotentialImpersonation@CWbemCallSecurity@@UEAAJXZ=C:/Windows/System32/wbemcomn.?GetPotentialImpersonation@CWbemCallSecurity@@UEAAJXZ @778
    ?GetPreferedDateFormat@CDateTimeParser@@IEAAXXZ=C:/Windows/System32/wbemcomn.?GetPreferedDateFormat@CDateTimeParser@@IEAAXXZ @779
    ?GetPreferredLanguages@CMUILocale@@SAJKPEAPEAGPEAK@Z=C:/Windows/System32/wbemcomn.?GetPreferredLanguages@CMUILocale@@SAJKPEAPEAGPEAK@Z @780
    ?GetPreferredLanguages@CMUILocale@@SAJPEAPEAGPEAK@Z=C:/Windows/System32/wbemcomn.?GetPreferredLanguages@CMUILocale@@SAJPEAPEAGPEAK@Z @781
    ?GetPrevious@CClientOpsNode@@QEAAPEAV1@XZ=C:/Windows/System32/wbemcomn.?GetPrevious@CClientOpsNode@@QEAAPEAV1@XZ @782
    ?GetPriority@CExecRequest@@QEAAJXZ=C:/Windows/System32/wbemcomn.?GetPriority@CExecRequest@@QEAAJXZ @783
    ?GetPropertyFromIUnknown@CTextTemplate@@AEAAPEAGPEAGPEAUIUnknown@@@Z=C:/Windows/System32/wbemcomn.?GetPropertyFromIUnknown@CTextTemplate@@AEAAPEAGPEAGPEAUIUnknown@@@Z @784
    ?GetPtr@CNtAce@@QEAAPEAU_ACCESS_ALLOWED_ACE@@XZ=C:/Windows/System32/wbemcomn.?GetPtr@CNtAce@@QEAAPEAU_ACCESS_ALLOWED_ACE@@XZ @785
    ?GetPtr@CNtAcl@@QEAAPEAU_ACL@@XZ=C:/Windows/System32/wbemcomn.?GetPtr@CNtAcl@@QEAAPEAU_ACL@@XZ @786
    ?GetPtr@CNtSecurityDescriptor@@QEAAPEAXXZ=C:/Windows/System32/wbemcomn.?GetPtr@CNtSecurityDescriptor@@QEAAPEAXXZ @787
    ?GetPtr@CNtSid@@QEAAPEAXXZ=C:/Windows/System32/wbemcomn.?GetPtr@CNtSid@@QEAAPEAXXZ @788
    ?GetQWORD@Registry@@QEAAHPEBGPEA_K@Z=C:/Windows/System32/wbemcomn.?GetQWORD@Registry@@QEAAHPEBGPEA_K@Z @790
    ?GetQueryClass@QL1_Parser@@QEAAHPEAGH@Z=C:/Windows/System32/wbemcomn.?GetQueryClass@QL1_Parser@@QEAAHPEAGH@Z @791
    ?GetQueueSize@CFlexQueue@@QEBAHXZ=C:/Windows/System32/wbemcomn.?GetQueueSize@CFlexQueue@@QEBAHXZ @792
    ?GetRawArrayData@CVarVector@@QEAAJPEAXH@Z=C:/Windows/System32/wbemcomn.?GetRawArrayData@CVarVector@@QEAAJPEAXH@Z @793
    ?GetRawData@CBuffer@@QEAAPEAEXZ=C:/Windows/System32/wbemcomn.?GetRawData@CBuffer@@QEAAPEAEXZ @794
    ?GetRawData@CSafeArray@@QEAAHPEAXH@Z=C:/Windows/System32/wbemcomn.?GetRawData@CSafeArray@@QEAAHPEAXH@Z @795
    ?GetRawData@CVar@@QEAAPEAXXZ=C:/Windows/System32/wbemcomn.?GetRawData@CVar@@QEAAPEAXXZ @796
    ?GetRecursionCount@CWbemCriticalSection@@QEAAJXZ=C:/Windows/System32/wbemcomn.?GetRecursionCount@CWbemCriticalSection@@QEAAJXZ @797
    ?GetReferencedAliases@CWQLScanner@@QEAAHAEAVCWStringArray@@@Z=C:/Windows/System32/wbemcomn.?GetReferencedAliases@CWQLScanner@@QEAAHAEAVCWStringArray@@@Z @798
    ?GetReferencedTables@CWQLScanner@@QEAAHAEAVCWStringArray@@@Z=C:/Windows/System32/wbemcomn.?GetReferencedTables@CWQLScanner@@QEAAHAEAVCWStringArray@@@Z @799
    ?GetRegistryPathCIMOM@CWbemInstallObject@@SAPEBGXZ=C:/Windows/System32/wbemcomn.?GetRegistryPathCIMOM@CWbemInstallObject@@SAPEBGXZ @800
    ?GetRegistryPathWbem@CWbemInstallObject@@SAPEBGXZ=C:/Windows/System32/wbemcomn.?GetRegistryPathWbem@CWbemInstallObject@@SAPEBGXZ @801
    ?GetRepositoryFolder@CWbemInstallObject@@SAPEBGXZ=C:/Windows/System32/wbemcomn.?GetRepositoryFolder@CWbemInstallObject@@SAPEBGXZ @802
    ?GetSYSTEMTIME@CWbemTime@@QEBAHPEAU_SYSTEMTIME@@@Z=C:/Windows/System32/wbemcomn.?GetSYSTEMTIME@CWbemTime@@QEBAHPEAU_SYSTEMTIME@@@Z @803
    ?GetSacl@CNtSecurityDescriptor@@QEAAJPEAPEAVCNtAcl@@@Z=C:/Windows/System32/wbemcomn.?GetSacl@CNtSecurityDescriptor@@QEAAJPEAPEAVCNtAcl@@@Z @804
    ?GetSacl@CNtSecurityDescriptor@@QEAAPEAVCNtAcl@@XZ=C:/Windows/System32/wbemcomn.?GetSacl@CNtSecurityDescriptor@@QEAAPEAVCNtAcl@@XZ @805
    ?GetSafeArray@CVarVector@@QEAAPEAUtagSAFEARRAY@@H@Z=C:/Windows/System32/wbemcomn.?GetSafeArray@CVarVector@@QEAAPEAUtagSAFEARRAY@@H@Z @806
    ?GetScalarAt@CSafeArray@@AEAA?ATSA_ArrayScalar@@H@Z=C:/Windows/System32/wbemcomn.?GetScalarAt@CSafeArray@@AEAA?ATSA_ArrayScalar@@H@Z @807
    ?GetSeconds@CDateTimeParser@@QEAAEXZ=C:/Windows/System32/wbemcomn.?GetSeconds@CDateTimeParser@@QEAAEXZ @808
    ?GetSeconds@CWbemInterval@@QEBAKXZ=C:/Windows/System32/wbemcomn.?GetSeconds@CWbemInterval@@QEBAKXZ @809
    ?GetSelectedColumns@CWQLScanner@@QEAAPEBVCFlexArray@@XZ=C:/Windows/System32/wbemcomn.?GetSelectedColumns@CWQLScanner@@QEAAPEBVCFlexArray@@XZ @811
    ?GetSerializedSize@C9XAce@@UEAAKXZ=C:/Windows/System32/wbemcomn.?GetSerializedSize@C9XAce@@UEAAKXZ @812
    ?GetSerializedSize@CNtAce@@UEAAKXZ=C:/Windows/System32/wbemcomn.?GetSerializedSize@CNtAce@@UEAAKXZ @813
    ?GetSessionName@CWMITraceSettings@@QEAAPEAGXZ=C:/Windows/System32/wbemcomn.?GetSessionName@CWMITraceSettings@@QEAAPEAGXZ @814
    ?GetShort@CVar@@QEAAFXZ=C:/Windows/System32/wbemcomn.?GetShort@CVar@@QEAAFXZ @815
    ?GetShortAt@CSafeArray@@QEAAFH@Z=C:/Windows/System32/wbemcomn.?GetShortAt@CSafeArray@@QEAAFH@Z @816
    ?GetSid@CNtAce@@QEAAHAEAVCNtSid@@@Z=C:/Windows/System32/wbemcomn.?GetSid@CNtAce@@QEAAHAEAVCNtSid@@@Z @817
    ?GetSid@CNtAce@@QEAAPEAVCNtSid@@XZ=C:/Windows/System32/wbemcomn.?GetSid@CNtAce@@QEAAPEAVCNtSid@@XZ @818
    ?GetSidFromThreadOrProcess@CIdentitySecurity@@AEAAJAEAVCNtSid@@@Z=C:/Windows/System32/wbemcomn.?GetSidFromThreadOrProcess@CIdentitySecurity@@AEAAJAEAVCNtSid@@@Z @819
    ?GetSinglePropertyName@CAbstractQl1Parser@@IEAAPEBGXZ=C:/Windows/System32/wbemcomn.?GetSinglePropertyName@CAbstractQl1Parser@@IEAAPEBGXZ @820
    ?GetSitoutPenalty@CExecQueue@@QEAAKXZ=C:/Windows/System32/wbemcomn.?GetSitoutPenalty@CExecQueue@@QEAAKXZ @821
    ?GetSize@CBuffer@@QEAAKXZ=C:/Windows/System32/wbemcomn.?GetSize@CBuffer@@QEAAKXZ @822
    ?GetSize@CNtAce@@QEAAKXZ=C:/Windows/System32/wbemcomn.?GetSize@CNtAce@@QEAAKXZ @823
    ?GetSize@CNtAcl@@QEAAKXZ=C:/Windows/System32/wbemcomn.?GetSize@CNtAcl@@QEAAKXZ @824
    ?GetSize@CNtSecurityDescriptor@@QEAAKXZ=C:/Windows/System32/wbemcomn.?GetSize@CNtSecurityDescriptor@@QEAAKXZ @825
    ?GetSize@CNtSid@@QEAAKXZ=C:/Windows/System32/wbemcomn.?GetSize@CNtSid@@QEAAKXZ @826
    ?GetStatus@C9XAce@@UEAAKXZ=C:/Windows/System32/wbemcomn.?GetStatus@C9XAce@@UEAAKXZ @827
    ?GetStatus@CNtAce@@UEAAKXZ=C:/Windows/System32/wbemcomn.?GetStatus@CNtAce@@UEAAKXZ @828
    ?GetStatus@CNtAcl@@QEAAKXZ=C:/Windows/System32/wbemcomn.?GetStatus@CNtAcl@@QEAAKXZ @829
    ?GetStatus@CNtSecurityDescriptor@@QEAAKXZ=C:/Windows/System32/wbemcomn.?GetStatus@CNtSecurityDescriptor@@QEAAKXZ @830
    ?GetStatus@CNtSid@@QEAAKXZ=C:/Windows/System32/wbemcomn.?GetStatus@CNtSid@@QEAAKXZ @831
    ?GetStr@Registry@@QEAAHPEBGPEAPEAG@Z=C:/Windows/System32/wbemcomn.?GetStr@Registry@@QEAAHPEBGPEAPEAG@Z @832
    ?GetString@CInsertionString@@QEAAPEBGXZ=C:/Windows/System32/wbemcomn.?GetString@CInsertionString@@QEAAPEBGXZ @833
    ?GetStringAt@CEventLogRecord@@QEAAPEBGH@Z=C:/Windows/System32/wbemcomn.?GetStringAt@CEventLogRecord@@QEAAPEBGH@Z @834
    ?GetStringAt@CPropertyName@@QEBAPEBGJ@Z=C:/Windows/System32/wbemcomn.?GetStringAt@CPropertyName@@QEBAPEBGJ@Z @835
    ?GetStringPointerByRef@WString2@@QEBAAEBQEBGXZ=C:/Windows/System32/wbemcomn.?GetStringPointerByRef@WString2@@QEBAAEBQEBGXZ @836
    ?GetStringPointerByRef@WString@@QEBAAEBQEBGXZ=C:/Windows/System32/wbemcomn.?GetStringPointerByRef@WString@@QEBAAEBQEBGXZ @837
    ?GetText@CPropertyName@@QEAAPEAGXZ=C:/Windows/System32/wbemcomn.?GetText@CPropertyName@@QEAAPEAGXZ @838
    ?GetText@CVar@@QEAAPEAGJJPEBG@Z=C:/Windows/System32/wbemcomn.?GetText@CVar@@QEAAPEAGJJPEBG@Z @839
    ?GetText@CVarVector@@QEAAPEAGJJ@Z=C:/Windows/System32/wbemcomn.?GetText@CVarVector@@QEAAPEAGJJ@Z @840
    ?GetText@QL_LEVEL_1_RPN_EXPRESSION@@QEAAPEAGXZ=C:/Windows/System32/wbemcomn.?GetText@QL_LEVEL_1_RPN_EXPRESSION@@QEAAPEAGXZ @841
    ?GetText@QL_LEVEL_1_TOKEN@@QEAAPEAGXZ=C:/Windows/System32/wbemcomn.?GetText@QL_LEVEL_1_TOKEN@@QEAAPEAGXZ @842
    ?GetTextSid@CNtSid@@QEAAHPEAGPEAK@Z=C:/Windows/System32/wbemcomn.?GetTextSid@CNtSid@@QEAAHPEAGPEAK@Z @843
    ?GetTextSid@CNtSid@@QEAAJPEAPEAG@Z=C:/Windows/System32/wbemcomn.?GetTextSid@CNtSid@@QEAAJPEAPEAG@Z @844
    ?GetTickCount@CWbemTime@@SA?AV1@XZ=C:/Windows/System32/wbemcomn.?GetTickCount@CWbemTime@@SA?AV1@XZ @845
    ?GetTlsIndex@CExecQueue@@SAKXZ=C:/Windows/System32/wbemcomn.?GetTlsIndex@CExecQueue@@SAKXZ @846
    ?GetToken@CWbemCallSecurity@@UEAAPEAXXZ=C:/Windows/System32/wbemcomn.?GetToken@CWbemCallSecurity@@UEAAPEAXXZ @847
    ?GetTraceLevel@CWMITraceSettings@@QEAAEXZ=C:/Windows/System32/wbemcomn.?GetTraceLevel@CWMITraceSettings@@QEAAEXZ @848
    ?GetType@C9XAce@@UEAAHXZ=C:/Windows/System32/wbemcomn.?GetType@C9XAce@@UEAAHXZ @849
    ?GetType@CExecQueue@@UEAAPEBGXZ=C:/Windows/System32/wbemcomn.?GetType@CExecQueue@@UEAAPEBGXZ @850
    ?GetType@CNtAce@@UEAAHXZ=C:/Windows/System32/wbemcomn.?GetType@CNtAce@@UEAAHXZ @851
    ?GetType@CSafeArray@@QEAAHXZ=C:/Windows/System32/wbemcomn.?GetType@CSafeArray@@QEAAHXZ @852
    ?GetType@CVar@@QEAAHXZ=C:/Windows/System32/wbemcomn.?GetType@CVar@@QEAAHXZ @853
    ?GetType@CVarVector@@QEAAHXZ=C:/Windows/System32/wbemcomn.?GetType@CVarVector@@QEAAHXZ @854
    ?GetType@Registry@@QEAAHPEBGPEAK@Z=C:/Windows/System32/wbemcomn.?GetType@Registry@@QEAAHPEBGPEAK@Z @855
    ?GetTypeText@CVar@@QEAAPEAGXZ=C:/Windows/System32/wbemcomn.?GetTypeText@CVar@@QEAAPEAGXZ @856
    ?GetUTC@CDateTimeParser@@QEAAHXZ=C:/Windows/System32/wbemcomn.?GetUTC@CDateTimeParser@@QEAAHXZ @857
    ?GetUnknown@CUnk@@QEAAPEAUIUnknown@@XZ=C:/Windows/System32/wbemcomn.?GetUnknown@CUnk@@QEAAPEAUIUnknown@@XZ @858
    ?GetUnknown@CUnkInternal@@QEAAPEAUIUnknown@@XZ=C:/Windows/System32/wbemcomn.?GetUnknown@CUnkInternal@@QEAAPEAUIUnknown@@XZ @859
    ?GetUnknown@CVar@@QEAAPEAUIUnknown@@XZ=C:/Windows/System32/wbemcomn.?GetUnknown@CVar@@QEAAPEAUIUnknown@@XZ @860
    ?GetUnknownAt@CSafeArray@@QEAAPEAUIUnknown@@H@Z=C:/Windows/System32/wbemcomn.?GetUnknownAt@CSafeArray@@QEAAPEAUIUnknown@@H@Z @861
    ?GetValue@CDMTFParser@@QEAAHH@Z=C:/Windows/System32/wbemcomn.?GetValue@CDMTFParser@@QEAAHH@Z @862
    ?GetVarVector@CVar@@QEAAPEAVCVarVector@@XZ=C:/Windows/System32/wbemcomn.?GetVarVector@CVar@@QEAAPEAVCVarVector@@XZ @863
    ?GetVariantAt@CSafeArray@@QEAA?AUtagVARIANT@@H@Z=C:/Windows/System32/wbemcomn.?GetVariantAt@CSafeArray@@QEAA?AUtagVARIANT@@H@Z @864
    ?GetWhenDoneHandle@CExecRequest@@QEAAPEAXXZ=C:/Windows/System32/wbemcomn.?GetWhenDoneHandle@CExecRequest@@QEAAPEAXXZ @867
    ?GetWord@CVar@@QEAAGXZ=C:/Windows/System32/wbemcomn.?GetWord@CVar@@QEAAGXZ @868
    ?GetYear@CDateTimeParser@@QEAAIXZ=C:/Windows/System32/wbemcomn.?GetYear@CDateTimeParser@@QEAAIXZ @869
    ?GetZero@CWbemTime@@SA?AV1@XZ=C:/Windows/System32/wbemcomn.?GetZero@CWbemTime@@SA?AV1@XZ @870
    ?Grow@CFlexQueue@@IEAA_NXZ=C:/Windows/System32/wbemcomn.?Grow@CFlexQueue@@IEAA_NXZ @872
    ?Grow@CSmallArrayBlob@@IEAAPEAV1@XZ=C:/Windows/System32/wbemcomn.?Grow@CSmallArrayBlob@@IEAAPEAV1@XZ @873
    ?Halt@CHaltable@@QEAAJXZ=C:/Windows/System32/wbemcomn.?Halt@CHaltable@@QEAAJXZ @874
    ?HandleEmbeddedObjectProperties@CTextTemplate@@AEAAPEAGPEAGPEAUIWbemClassObject@@@Z=C:/Windows/System32/wbemcomn.?HandleEmbeddedObjectProperties@CTextTemplate@@AEAAPEAGPEAGPEAUIWbemClassObject@@@Z @875
    ?HasChildren@CClientOpsNode@@QEAA_NXZ=C:/Windows/System32/wbemcomn.?HasChildren@CClientOpsNode@@QEAA_NXZ @876
    ?HasOwner@CNtSecurityDescriptor@@QEAAHXZ=C:/Windows/System32/wbemcomn.?HasOwner@CNtSecurityDescriptor@@QEAAHXZ @877
    ?HasToBeEnabled@CTraceSessionControl@@QEAA_NXZ=C:/Windows/System32/wbemcomn.?HasToBeEnabled@CTraceSessionControl@@QEAA_NXZ @878
    ?ImpersonateClient@CWbemCallSecurity@@UEAAJXZ=C:/Windows/System32/wbemcomn.?ImpersonateClient@CWbemCallSecurity@@UEAAJXZ @879
    ?InOrder@CQl1ParseSink@@UEAAXJ@Z=C:/Windows/System32/wbemcomn.?InOrder@CQl1ParseSink@@UEAAXJ@Z @880
    ?IncrementIndex@CFlexQueue@@IEAAXAEAH@Z=C:/Windows/System32/wbemcomn.?IncrementIndex@CFlexQueue@@IEAAXAEAH@Z @881
    ?Init@CPropertyName@@QEAAXXZ=C:/Windows/System32/wbemcomn.?Init@CPropertyName@@QEAAXXZ @882
    ?Init@CPublishWMIOperationEvent@@SAJXZ=C:/Windows/System32/wbemcomn.?Init@CPublishWMIOperationEvent@@SAJXZ @883
    ?Init@CVar@@AEAAXXZ=C:/Windows/System32/wbemcomn.?Init@CVar@@AEAAXXZ @884
    ?InitMap@CWbemInstallObject@@SAXXZ=C:/Windows/System32/wbemcomn.?InitMap@CWbemInstallObject@@SAXXZ @885
    ?InitTls@CExecQueue@@KAXXZ=C:/Windows/System32/wbemcomn.?InitTls@CExecQueue@@KAXXZ @886
    ?InitToken@CAbstractQl1Parser@@KAXPEAU_tag_WbemQl1Token@@@Z=C:/Windows/System32/wbemcomn.?InitToken@CAbstractQl1Parser@@KAXPEAU_tag_WbemQl1Token@@@Z @887
    ?Initialize@CMUILocaleList@@QEAAJPEAG_N@Z=C:/Windows/System32/wbemcomn.?Initialize@CMUILocaleList@@QEAAJPEAG_N@Z @888
    ?Initialize@CSmallArrayBlob@@IEAAXH@Z=C:/Windows/System32/wbemcomn.?Initialize@CSmallArrayBlob@@IEAAXH@Z @889
    ?Initialize@CTraceSessionControl@@QEAAKPEBG@Z=C:/Windows/System32/wbemcomn.?Initialize@CTraceSessionControl@@QEAAKPEBG@Z @890
    ?Initialize@CUnk@@UEAAHXZ=C:/Windows/System32/wbemcomn.?Initialize@CUnk@@UEAAHXZ @891
    ?InitializeThread@CExecQueue@@MEAAJXZ=C:/Windows/System32/wbemcomn.?InitializeThread@CExecQueue@@MEAAJXZ @892
    ?Insert@CClientOpsNode@@AEAAXPEAV1@@Z=C:/Windows/System32/wbemcomn.?Insert@CClientOpsNode@@AEAAXPEAV1@@Z @893
    ?InsertAt@CFlexArray@@QEAAHHPEAX@Z=C:/Windows/System32/wbemcomn.?InsertAt@CFlexArray@@QEAAHHPEAX@Z @894
    ?InsertAt@CSmallArrayBlob@@QEAAPEAV1@HPEAX@Z=C:/Windows/System32/wbemcomn.?InsertAt@CSmallArrayBlob@@QEAAPEAV1@HPEAX@Z @895
    ?InsertAt@CVarVector@@QEAAHHAEAVCVar@@@Z=C:/Windows/System32/wbemcomn.?InsertAt@CVarVector@@QEAAHHAEAVCVar@@@Z @896
    ?InsertAt@CWStringArray@@QEAAHHPEBG@Z=C:/Windows/System32/wbemcomn.?InsertAt@CWStringArray@@QEAAHHPEBG@Z @897
    ?InternalAddRef@CUnkInternal@@QEAAKXZ=C:/Windows/System32/wbemcomn.?InternalAddRef@CUnkInternal@@QEAAKXZ @898
    ?InternalQueryInterface@CUnkInternal@@QEAAJAEBU_GUID@@PEAPEAX@Z=C:/Windows/System32/wbemcomn.?InternalQueryInterface@CUnkInternal@@QEAAJAEBU_GUID@@PEAPEAX@Z @899
    ?InternalRawArrayAccess@CVarVector@@QEAAJXZ=C:/Windows/System32/wbemcomn.?InternalRawArrayAccess@CVarVector@@QEAAJXZ @900
    ?InternalRelease@CUnkInternal@@QEAAKXZ=C:/Windows/System32/wbemcomn.?InternalRelease@CUnkInternal@@QEAAKXZ @901
    ?Intersection@CWStringArray@@SAXAEAV1@00@Z=C:/Windows/System32/wbemcomn.?Intersection@CWStringArray@@SAXAEAV1@00@Z @902
    ?IsAppropriateThread@CExecQueue@@MEAAHXZ=C:/Windows/System32/wbemcomn.?IsAppropriateThread@CExecQueue@@MEAAHXZ @904
    ?IsDataNull@CVar@@QEAAHXZ=C:/Windows/System32/wbemcomn.?IsDataNull@CVar@@QEAAHXZ @905
    ?IsEmbeddedObjectProperty@CTextTemplate@@AEAAHPEAG@Z=C:/Windows/System32/wbemcomn.?IsEmbeddedObjectProperty@CTextTemplate@@AEAAHPEAG@Z @906
    ?IsEmpty@CInsertionString@@QEAAHXZ=C:/Windows/System32/wbemcomn.?IsEmpty@CInsertionString@@QEAAHXZ @907
    ?IsEmpty@CInstructionQueue@@QEAAHXZ=C:/Windows/System32/wbemcomn.?IsEmpty@CInstructionQueue@@QEAAHXZ @908
    ?IsEnabled@CTraceSessionControl@@QEAA_NXZ=C:/Windows/System32/wbemcomn.?IsEnabled@CTraceSessionControl@@QEAA_NXZ @909
    ?IsEntered@CCheckedInCritSec@@QEAAHXZ=C:/Windows/System32/wbemcomn.?IsEntered@CCheckedInCritSec@@QEAAHXZ @910
    ?IsEntered@CEnterWbemCriticalSection@@QEAAHXZ=C:/Windows/System32/wbemcomn.?IsEntered@CEnterWbemCriticalSection@@QEAAHXZ @911
    ?IsEventEnabled@CPublishWMIOperationEvent@@SAJAEBU_EVENT_DESCRIPTOR@@@Z=C:/Windows/System32/wbemcomn.?IsEventEnabled@CPublishWMIOperationEvent@@SAJAEBU_EVENT_DESCRIPTOR@@@Z @912
    ?IsFinite@CWbemInterval@@QEBAHXZ=C:/Windows/System32/wbemcomn.?IsFinite@CWbemInterval@@QEBAHXZ @913
    ?IsFinite@CWbemTime@@QEBAHXZ=C:/Windows/System32/wbemcomn.?IsFinite@CWbemTime@@QEBAHXZ @914
    ?IsHalted@CHaltable@@QEAAHXZ=C:/Windows/System32/wbemcomn.?IsHalted@CHaltable@@QEAAHXZ @915
    ?IsIdleTooLong@CExecQueue@@MEAAHPEAVCThreadRecord@1@K@Z=C:/Windows/System32/wbemcomn.?IsIdleTooLong@CExecQueue@@MEAAHPEAVCThreadRecord@1@K@Z @916
    ?IsImpersonating@CWbemCallSecurity@@UEAAHXZ=C:/Windows/System32/wbemcomn.?IsImpersonating@CWbemCallSecurity@@UEAAHXZ @917
    ?IsInitialized@CWbemInstallObject@@CA_NXZ=C:/Windows/System32/wbemcomn.?IsInitialized@CWbemInstallObject@@CA_NXZ @919
    ?IsInterval@CDMTFParser@@QEAA_NXZ=C:/Windows/System32/wbemcomn.?IsInterval@CDMTFParser@@QEAA_NXZ @920
    ?IsNull@CVar@@QEAAHXZ=C:/Windows/System32/wbemcomn.?IsNull@CVar@@QEAAHXZ @926
    ?IsOffline@CWbemInstallObject@@SA_NXZ=C:/Windows/System32/wbemcomn.?IsOffline@CWbemInstallObject@@SA_NXZ @927
    ?IsOk@CExecRequest@@QEAA_NXZ=C:/Windows/System32/wbemcomn.?IsOk@CExecRequest@@QEAA_NXZ @928
    ?IsOptimized@CVarVector@@QEAAHXZ=C:/Windows/System32/wbemcomn.?IsOptimized@CVarVector@@QEAAHXZ @929
    ?IsSTA@CExecQueue@@MEAAHXZ=C:/Windows/System32/wbemcomn.?IsSTA@CExecQueue@@MEAAHXZ @931
    ?IsSTAThread@CExecQueue@@SAHXZ=C:/Windows/System32/wbemcomn.?IsSTAThread@CExecQueue@@SAHXZ @932
    ?IsSuitableThread@CExecQueue@@MEAAHPEAVCThreadRecord@1@PEAVCExecRequest@@@Z=C:/Windows/System32/wbemcomn.?IsSuitableThread@CExecQueue@@MEAAHPEAVCThreadRecord@1@PEAVCExecRequest@@@Z @933
    ?IsUsed@CDMTFParser@@QEAA_NH@Z=C:/Windows/System32/wbemcomn.?IsUsed@CDMTFParser@@QEAA_NH@Z @934
    ?IsUser@CNtSid@@QEAA_NXZ=C:/Windows/System32/wbemcomn.?IsUser@CNtSid@@QEAA_NXZ @935
    ?IsUserInGroup@CNtSecurity@@SAHPEAXAEAVCNtSid@@PEAH@Z=C:/Windows/System32/wbemcomn.?IsUserInGroup@CNtSecurity@@SAHPEAXAEAVCNtSid@@PEAH@Z @936
    ?IsValid@CDMTFParser@@QEAA_NXZ=C:/Windows/System32/wbemcomn.?IsValid@CDMTFParser@@QEAA_NXZ @937
    ?IsValid@CNtAcl@@QEAAHXZ=C:/Windows/System32/wbemcomn.?IsValid@CNtAcl@@QEAAHXZ @938
    ?IsValid@CNtSecurityDescriptor@@QEAAHXZ=C:/Windows/System32/wbemcomn.?IsValid@CNtSecurityDescriptor@@QEAAHXZ @939
    ?IsValid@CNtSid@@QEAAHXZ=C:/Windows/System32/wbemcomn.?IsValid@CNtSid@@QEAAHXZ @940
    ?IsValidAmPmString@CDateTimeParser@@IEAAHPEAGPEBGQEAPEAG@Z=C:/Windows/System32/wbemcomn.?IsValidAmPmString@CDateTimeParser@@IEAAHPEAGPEBGQEAPEAG@Z @941
    ?IsValidColonMillisecond@CDateTimeParser@@IEAAHPEAGPEBG@Z=C:/Windows/System32/wbemcomn.?IsValidColonMillisecond@CDateTimeParser@@IEAAHPEAGPEBG@Z @942
    ?IsValidDateTime@CDateTimeParser@@QEAAHXZ=C:/Windows/System32/wbemcomn.?IsValidDateTime@CDateTimeParser@@QEAAHXZ @943
    ?IsValidDayNumber@CDateTimeParser@@IEAAHPEAGPEBG@Z=C:/Windows/System32/wbemcomn.?IsValidDayNumber@CDateTimeParser@@IEAAHPEAGPEBG@Z @944
    ?IsValidDotMillisecond@CDateTimeParser@@IEAAHPEAGPEBG@Z=C:/Windows/System32/wbemcomn.?IsValidDotMillisecond@CDateTimeParser@@IEAAHPEAGPEBG@Z @945
    ?IsValidHourNumber@CDateTimeParser@@IEAAHPEAGPEBG@Z=C:/Windows/System32/wbemcomn.?IsValidHourNumber@CDateTimeParser@@IEAAHPEAGPEBG@Z @948
    ?IsValidMinuteNumber@CDateTimeParser@@IEAAHPEAGPEBG@Z=C:/Windows/System32/wbemcomn.?IsValidMinuteNumber@CDateTimeParser@@IEAAHPEAGPEBG@Z @949
    ?IsValidMonthNumber@CDateTimeParser@@IEAAHPEAGPEBG@Z=C:/Windows/System32/wbemcomn.?IsValidMonthNumber@CDateTimeParser@@IEAAHPEAGPEBG@Z @950
    ?IsValidMonthString@CDateTimeParser@@IEAAHPEAGPEBGQEAPEAG2@Z=C:/Windows/System32/wbemcomn.?IsValidMonthString@CDateTimeParser@@IEAAHPEAGPEBGQEAPEAG2@Z @951
    ?IsValidSecondNumber@CDateTimeParser@@IEAAHPEAGPEBG@Z=C:/Windows/System32/wbemcomn.?IsValidSecondNumber@CDateTimeParser@@IEAAHPEAGPEBG@Z @952
    ?IsValidVectorArray@CVarVector@@SAHHPEAUtagSAFEARRAY@@@Z=C:/Windows/System32/wbemcomn.?IsValidVectorArray@CVarVector@@SAHHPEAUtagSAFEARRAY@@@Z @953
    ?IsValidVectorType@CVarVector@@SAHH@Z=C:/Windows/System32/wbemcomn.?IsValidVectorType@CVarVector@@SAHH@Z @954
    ?IsValidYearMonthDayNumber@CDateTimeParser@@IEAAHPEAG@Z=C:/Windows/System32/wbemcomn.?IsValidYearMonthDayNumber@CDateTimeParser@@IEAAHPEAG@Z @955
    ?IsValidYearNumber@CDateTimeParser@@IEAAHPEAGPEBGH@Z=C:/Windows/System32/wbemcomn.?IsValidYearNumber@CDateTimeParser@@IEAAHPEAGPEBGH@Z @956
    ?IsWildcard@CDMTFParser@@QEAA_NH@Z=C:/Windows/System32/wbemcomn.?IsWildcard@CDMTFParser@@QEAA_NH@Z @958
    ?IsZero@CWbemInterval@@QEBAHXZ=C:/Windows/System32/wbemcomn.?IsZero@CWbemInterval@@QEBAHXZ @959
    ?IsZero@CWbemTime@@QEBAHXZ=C:/Windows/System32/wbemcomn.?IsZero@CWbemTime@@QEBAHXZ @960
    ?LCID_To_Culture_Format@CMUILocale@@SAJKPEAG_K@Z=C:/Windows/System32/wbemcomn.?LCID_To_Culture_Format@CMUILocale@@SAJKPEAG_K@Z @961
    ?LCID_To_ms_XXX_Format@CMUILocale@@SAJKPEAG_K@Z=C:/Windows/System32/wbemcomn.?LCID_To_ms_XXX_Format@CMUILocale@@SAJKPEAG_K@Z @962
    ?Leave@CCheckedInCritSec@@QEAAXXZ=C:/Windows/System32/wbemcomn.?Leave@CCheckedInCritSec@@QEAAXXZ @963
    ?Leave@CCritSec@@QEAAXXZ=C:/Windows/System32/wbemcomn.?Leave@CCritSec@@QEAAXXZ @964
    ?Leave@CExecQueue@@QEAAXXZ=C:/Windows/System32/wbemcomn.?Leave@CExecQueue@@QEAAXXZ @965
    ?Leave@CStaticCritSec@@QEAAXXZ=C:/Windows/System32/wbemcomn.?Leave@CStaticCritSec@@QEAAXXZ @966
    ?Leave@CWbemCriticalSection@@QEAAXXZ=C:/Windows/System32/wbemcomn.?Leave@CWbemCriticalSection@@QEAAXXZ @967
    ?Length@WString2@@QEBAHXZ=C:/Windows/System32/wbemcomn.?Length@WString2@@QEBAHXZ @968
    ?Length@WString@@QEBAHXZ=C:/Windows/System32/wbemcomn.?Length@WString@@QEBAHXZ @969
    ?LocaleName_To_LCID@CMUILocale@@SAJPEBGPEA_NPEAK@Z=C:/Windows/System32/wbemcomn.?LocaleName_To_LCID@CMUILocale@@SAJPEBGPEA_NPEAK@Z @970
    ?Lock@?$CLockableFlexArray@VCStaticCritSec@@@@QEAAXXZ=C:/Windows/System32/wbemcomn.?Lock@?$CLockableFlexArray@VCStaticCritSec@@@@QEAAXXZ @971
    ?Lock@CClientOpsNode@@QEAAXXZ=C:/Windows/System32/wbemcomn.?Lock@CClientOpsNode@@QEAAXXZ @972
    ?LockRegion@CBuffer@@UEAAJT_ULARGE_INTEGER@@0K@Z=C:/Windows/System32/wbemcomn.?LockRegion@CBuffer@@UEAAJT_ULARGE_INTEGER@@0K@Z @973
    ?LogError@CExecQueue@@MEAAXPEAVCExecRequest@@H@Z=C:/Windows/System32/wbemcomn.?LogError@CExecQueue@@MEAAXPEAVCExecRequest@@H@Z @974
    ?MakeInternalCopyOfThread@CWbemCallSecurity@@SAPEAV1@XZ=C:/Windows/System32/wbemcomn.?MakeInternalCopyOfThread@CWbemCallSecurity@@SAPEAV1@XZ @976
    ?MakeOptimized@CVarVector@@QEAAHHHH@Z=C:/Windows/System32/wbemcomn.?MakeOptimized@CVarVector@@QEAAHHHH@Z @977
    ?MarkForRemoval@CTimerInstruction@@UEAAJXZ=C:/Windows/System32/wbemcomn.?MarkForRemoval@CTimerInstruction@@UEAAJXZ @978
    ?Match@CLike@@QEAA_NPEBG@Z=C:/Windows/System32/wbemcomn.?Match@CLike@@QEAA_NPEBG@Z @979
    ?MatchSet@CLike@@IEAA_NPEBG0AEAH@Z=C:/Windows/System32/wbemcomn.?MatchSet@CLike@@IEAA_NPEBG0AEAH@Z @980
    ?MoveToSubkey@Registry@@QEAAHPEBG@Z=C:/Windows/System32/wbemcomn.?MoveToSubkey@Registry@@QEAAHPEBG@Z @981
    ?Mrci1Decompress@CBaseMrciCompression@@QEAAIPEAEI0I@Z=C:/Windows/System32/wbemcomn.?Mrci1Decompress@CBaseMrciCompression@@QEAAIPEAEI0I@Z @982
    ?Mrci1MaxCompress@CBaseMrciCompression@@QEAAIPEAEI0I@Z=C:/Windows/System32/wbemcomn.?Mrci1MaxCompress@CBaseMrciCompression@@QEAAIPEAEI0I@Z @983
    ?Mrci2Decompress@CBaseMrciCompression@@QEAAIPEAEI0I@Z=C:/Windows/System32/wbemcomn.?Mrci2Decompress@CBaseMrciCompression@@QEAAIPEAEI0I@Z @984
    ?Mrci2MaxCompress@CBaseMrciCompression@@QEAAIPEAEI0I@Z=C:/Windows/System32/wbemcomn.?Mrci2MaxCompress@CBaseMrciCompression@@QEAAIPEAEI0I@Z @985
    ?Next@CAbstractQl1Parser@@MEAAHH@Z=C:/Windows/System32/wbemcomn.?Next@CAbstractQl1Parser@@MEAAHH@Z @986
    ?Next@CWQLScanner@@AEAAHXZ=C:/Windows/System32/wbemcomn.?Next@CWQLScanner@@AEAAHXZ @987
    ?NotifyStartingThread@CTimerGenerator@@MEAAXXZ=C:/Windows/System32/wbemcomn.?NotifyStartingThread@CTimerGenerator@@MEAAXXZ @989
    ?NotifyStoppingThread@CTimerGenerator@@MEAAXXZ=C:/Windows/System32/wbemcomn.?NotifyStoppingThread@CTimerGenerator@@MEAAXXZ @990
    ?ObjectCreated@CContainerControl@@UEAAHPEAUIUnknown@@@Z=C:/Windows/System32/wbemcomn.?ObjectCreated@CContainerControl@@UEAAHPEAUIUnknown@@@Z @991
    ?ObjectDestroyed@CContainerControl@@UEAAXPEAUIUnknown@@@Z=C:/Windows/System32/wbemcomn.?ObjectDestroyed@CContainerControl@@UEAAXPEAUIUnknown@@@Z @992
    ?OnInitialize@CUnk@@UEAAHXZ=C:/Windows/System32/wbemcomn.?OnInitialize@CUnk@@UEAAHXZ @993
    ?Open@CEventLog@@QEAAHXZ=C:/Windows/System32/wbemcomn.?Open@CEventLog@@QEAAHXZ @994
    ?Open@Registry@@QEAAHPEAUHKEY__@@PEBGK@Z=C:/Windows/System32/wbemcomn.?Open@Registry@@QEAAHPEAUHKEY__@@PEBGK@Z @995
    ?OrderAces@CNtAcl@@QEAAPEAV1@XZ=C:/Windows/System32/wbemcomn.?OrderAces@CNtAcl@@QEAAPEAV1@XZ @996
    ?Parse@CAbstractQl1Parser@@QEAAHPEAVCQl1ParseSink@@H@Z=C:/Windows/System32/wbemcomn.?Parse@CAbstractQl1Parser@@QEAAHPEAVCQl1ParseSink@@H@Z @997
    ?Parse@CWQLScanner@@QEAAHXZ=C:/Windows/System32/wbemcomn.?Parse@CWQLScanner@@QEAAHXZ @998
    ?Parse@QL1_Parser@@QEAAHPEAPEAUQL_LEVEL_1_RPN_EXPRESSION@@@Z=C:/Windows/System32/wbemcomn.?Parse@QL1_Parser@@QEAAHPEAPEAUQL_LEVEL_1_RPN_EXPRESSION@@@Z @999
    ?ParseAbsolute@CDMTFParser@@IEAAXPEBG@Z=C:/Windows/System32/wbemcomn.?ParseAbsolute@CDMTFParser@@IEAAXPEBG@Z @1000
    ?ParseDate@CDMTFParser@@IEAAXPEBG@Z=C:/Windows/System32/wbemcomn.?ParseDate@CDMTFParser@@IEAAXPEBG@Z @1001
    ?ParseInterval@CDMTFParser@@IEAAXPEBG@Z=C:/Windows/System32/wbemcomn.?ParseInterval@CDMTFParser@@IEAAXPEBG@Z @1002
    ?ParsePart@CDMTFParser@@IEAAHPEBGHHPEAHHH@Z=C:/Windows/System32/wbemcomn.?ParsePart@CDMTFParser@@IEAAHPEBGHHPEAHHH@Z @1003
    ?Peek@CFlexQueue@@QEAAPEAXXZ=C:/Windows/System32/wbemcomn.?Peek@CFlexQueue@@QEAAPEAXXZ @1004
    ?ProcessArray@CTextTemplate@@AEAAPEAGAEBUtagVARIANT@@PEAG@Z=C:/Windows/System32/wbemcomn.?ProcessArray@CTextTemplate@@AEAAPEAGAEBUtagVARIANT@@PEAG@Z @1005
    ?Publish@CPublishWMIOperationEvent@@SAJPEAGKK0000K_K0H@Z=C:/Windows/System32/wbemcomn.?Publish@CPublishWMIOperationEvent@@SAJPEAGKK0000K_K0H@Z @1006
    ?PublishClientRequestFailure@CPublishWMIOperationEvent@@SAJPEBGPEAG1K10J0@Z=C:/Windows/System32/wbemcomn.?PublishClientRequestFailure@CPublishWMIOperationEvent@@SAJPEBGPEAG1K10J0@Z @1007
    ?PublishESSDrop@CPublishWMIOperationEvent@@SAJPEAG0@Z=C:/Windows/System32/wbemcomn.?PublishESSDrop@CPublishWMIOperationEvent@@SAJPEAG0@Z @1008
    ?PublishEssStarted@CPublishWMIOperationEvent@@SAJPEAG00K0K0@Z=C:/Windows/System32/wbemcomn.?PublishEssStarted@CPublishWMIOperationEvent@@SAJPEAG00K0K0@Z @1009
    ?PublishEssToConsumer@CPublishWMIOperationEvent@@SAJPEAG0@Z=C:/Windows/System32/wbemcomn.?PublishEssToConsumer@CPublishWMIOperationEvent@@SAJPEAG0@Z @1010
    ?PublishEssToConsumerBinding@CPublishWMIOperationEvent@@SAJPEAG000@Z=C:/Windows/System32/wbemcomn.?PublishEssToConsumerBinding@CPublishWMIOperationEvent@@SAJPEAG000@Z @1011
    ?PublishMethodExec@CPublishWMIOperationEvent@@SAJPEAGKK000000K_K0H@Z=C:/Windows/System32/wbemcomn.?PublishMethodExec@CPublishWMIOperationEvent@@SAJPEAGKK000000K_K0H@Z @1012
    ?PublishProviderInfo@CPublishWMIOperationEvent@@SAJKPEAGK000PEAUIWbemContext@@@Z=C:/Windows/System32/wbemcomn.?PublishProviderInfo@CPublishWMIOperationEvent@@SAJKPEAGK000PEAUIWbemContext@@@Z @1013
    ?PublishProviderStarted@CPublishWMIOperationEvent@@SAJPEAGJ0K0@Z=C:/Windows/System32/wbemcomn.?PublishProviderStarted@CPublishWMIOperationEvent@@SAJPEAGJ0K0@Z @1014
    ?PublishRepDelete@CPublishWMIOperationEvent@@SAJKPEAGPEAUIWbemContext@@K0_KH@Z=C:/Windows/System32/wbemcomn.?PublishRepDelete@CPublishWMIOperationEvent@@SAJKPEAGPEAUIWbemContext@@K0_KH@Z @1015
    ?PublishRepUpdate@CPublishWMIOperationEvent@@SAJKPEAGKPEAUIWbemContext@@K0_KH@Z=C:/Windows/System32/wbemcomn.?PublishRepUpdate@CPublishWMIOperationEvent@@SAJKPEAGKPEAUIWbemContext@@K0_KH@Z @1016
    ?PublishStop@CPublishWMIOperationEvent@@SAJKJPEAG@Z=C:/Windows/System32/wbemcomn.?PublishStop@CPublishWMIOperationEvent@@SAJKJPEAG@Z @1017
    ?PublishTemporaryEssStarted@CPublishWMIOperationEvent@@SAJPEAG00K00@Z=C:/Windows/System32/wbemcomn.?PublishTemporaryEssStarted@CPublishWMIOperationEvent@@SAJPEAG00K00@Z @1018
    ?PublishWin32ProcessCreation@CPublishWMIOperationEvent@@SAJPEAGKK0K_K000K1H@Z=C:/Windows/System32/wbemcomn.?PublishWin32ProcessCreation@CPublishWMIOperationEvent@@SAJPEAGKK0K_K000K1H@Z @1019
    ?Pushback@CWQLScanner@@AEAAHPEAUWSLexToken@@@Z=C:/Windows/System32/wbemcomn.?Pushback@CWQLScanner@@AEAAHPEAUWSLexToken@@@Z @1020
    ?Query@CTraceSessionControl@@SAK_KPEAGPEAPEAVCWMITraceSettings@@@Z=C:/Windows/System32/wbemcomn.?Query@CTraceSessionControl@@SAK_KPEAGPEAPEAVCWMITraceSettings@@@Z @1021
    ?QueryBlanket@CWbemCallSecurity@@UEAAJPEAK0PEAPEAG00PEAPEAX0@Z=C:/Windows/System32/wbemcomn.?QueryBlanket@CWbemCallSecurity@@UEAAJPEAK0PEAPEAG00PEAPEAX0@Z @1022
    ?QueryInterface@CBuffer@@UEAAJAEBU_GUID@@PEAPEAX@Z=C:/Windows/System32/wbemcomn.?QueryInterface@CBuffer@@UEAAJAEBU_GUID@@PEAPEAX@Z @1023
    ?QueryInterface@CUnk@@UEAAJAEBU_GUID@@PEAPEAX@Z=C:/Windows/System32/wbemcomn.?QueryInterface@CUnk@@UEAAJAEBU_GUID@@PEAPEAX@Z @1024
    ?QueryInterface@CUnkInternal@@UEAAJAEBU_GUID@@PEAPEAX@Z=C:/Windows/System32/wbemcomn.?QueryInterface@CUnkInternal@@UEAAJAEBU_GUID@@PEAPEAX@Z @1025
    ?QueryInterface@CWbemCallSecurity@@UEAAJAEBU_GUID@@PEAPEAX@Z=C:/Windows/System32/wbemcomn.?QueryInterface@CWbemCallSecurity@@UEAAJAEBU_GUID@@PEAPEAX@Z @1026
    ?QueueUnblockedWaitForSingleObject@CExecQueue@@SAKPEAXK@Z=C:/Windows/System32/wbemcomn.?QueueUnblockedWaitForSingleObject@CExecQueue@@SAKPEAXK@Z @1027
    ?QueueWaitForSingleObject@CExecQueue@@SAKPEAXK@Z=C:/Windows/System32/wbemcomn.?QueueWaitForSingleObject@CExecQueue@@SAKPEAXK@Z @1028
    ?Read@CBuffer@@UEAAJPEAXKPEAK@Z=C:/Windows/System32/wbemcomn.?Read@CBuffer@@UEAAJPEAXKPEAK@Z @1029
    ?ReadFromRegistry@CWMITraceSettings@@QEAAKPEBG@Z=C:/Windows/System32/wbemcomn.?ReadFromRegistry@CWMITraceSettings@@QEAAKPEBG@Z @1030
    ?ReadLPWSTR@CBuffer@@QEAAJAEAPEBG@Z=C:/Windows/System32/wbemcomn.?ReadLPWSTR@CBuffer@@QEAAJAEAPEBG@Z @1032
    ?Realloc@CWin32DefaultArena@@UEAAPEAXPEAX_K@Z=C:/Windows/System32/wbemcomn.?Realloc@CWin32DefaultArena@@UEAAPEAXPEAX_K@Z @1034
    ?ReduceSql89Joins@CWQLScanner@@AEAAHXZ=C:/Windows/System32/wbemcomn.?ReduceSql89Joins@CWQLScanner@@AEAAHXZ @1035
    ?ReduceSql92Joins@CWQLScanner@@AEAAHXZ=C:/Windows/System32/wbemcomn.?ReduceSql92Joins@CWQLScanner@@AEAAHXZ @1036
    ?Register@CExecQueue@@KAXPEAVCThreadRecord@1@@Z=C:/Windows/System32/wbemcomn.?Register@CExecQueue@@KAXPEAVCThreadRecord@1@@Z @1037
    ?RegisterCMIFlushRepositoryCacheHook@CWbemInstallObject@@SAXP6AJH@Z@Z=C:/Windows/System32/wbemcomn.?RegisterCMIFlushRepositoryCacheHook@CWbemInstallObject@@SAXP6AJH@Z@Z @1038
    ?Release@CBasicUnloadInstruction@@UEAAXXZ=C:/Windows/System32/wbemcomn.?Release@CBasicUnloadInstruction@@UEAAXXZ @1041
    ?Release@CBuffer@@UEAAKXZ=C:/Windows/System32/wbemcomn.?Release@CBuffer@@UEAAKXZ @1042
    ?Release@CContainerControl@@UEAAXPEAUIUnknown@@@Z=C:/Windows/System32/wbemcomn.?Release@CContainerControl@@UEAAXPEAUIUnknown@@@Z @1043
    ?Release@CExecQueue@@QEAAXXZ=C:/Windows/System32/wbemcomn.?Release@CExecQueue@@QEAAXXZ @1044
    ?Release@CUnk@@UEAAKXZ=C:/Windows/System32/wbemcomn.?Release@CUnk@@UEAAKXZ @1045
    ?Release@CUnkInternal@@UEAAKXZ=C:/Windows/System32/wbemcomn.?Release@CUnkInternal@@UEAAKXZ @1046
    ?Release@CWbemCallSecurity@@UEAAKXZ=C:/Windows/System32/wbemcomn.?Release@CWbemCallSecurity@@UEAAKXZ @1047
    ?Release@QL_LEVEL_1_RPN_EXPRESSION@@QEAAXXZ=C:/Windows/System32/wbemcomn.?Release@QL_LEVEL_1_RPN_EXPRESSION@@QEAAXXZ @1048
    ?RemainsUntil@CWbemTime@@QEBA?AVCWbemInterval@@AEBV1@@Z=C:/Windows/System32/wbemcomn.?RemainsUntil@CWbemTime@@QEBA?AVCWbemInterval@@AEBV1@@Z @1049
    ?Remove@CInstructionQueue@@QEAAJPEAVCInstructionTest@@PEAPEAVCTimerInstruction@@@Z=C:/Windows/System32/wbemcomn.?Remove@CInstructionQueue@@QEAAJPEAVCInstructionTest@@PEAPEAVCTimerInstruction@@@Z @1050
    ?Remove@CMinMaxLimitControl@@UEAAJK@Z=C:/Windows/System32/wbemcomn.?Remove@CMinMaxLimitControl@@UEAAJK@Z @1051
    ?Remove@CTimerGenerator@@QEAAJPEAVCInstructionTest@@@Z=C:/Windows/System32/wbemcomn.?Remove@CTimerGenerator@@QEAAJPEAVCInstructionTest@@@Z @1052
    ?RemoveAt@CFlexArray@@QEAAHH@Z=C:/Windows/System32/wbemcomn.?RemoveAt@CFlexArray@@QEAAHH@Z @1053
    ?RemoveAt@CSafeArray@@QEAAHH@Z=C:/Windows/System32/wbemcomn.?RemoveAt@CSafeArray@@QEAAHH@Z @1054
    ?RemoveAt@CSmallArrayBlob@@QEAAPEAV1@HPEAPEAX@Z=C:/Windows/System32/wbemcomn.?RemoveAt@CSmallArrayBlob@@QEAAPEAV1@HPEAPEAX@Z @1055
    ?RemoveAt@CVarVector@@QEAAHH@Z=C:/Windows/System32/wbemcomn.?RemoveAt@CVarVector@@QEAAHH@Z @1056
    ?RemoveAt@CWStringArray@@QEAAHH@Z=C:/Windows/System32/wbemcomn.?RemoveAt@CWStringArray@@QEAAHH@Z @1057
    ?RemoveMember@CLimitControl@@UEAAJXZ=C:/Windows/System32/wbemcomn.?RemoveMember@CLimitControl@@UEAAJXZ @1059
    ?RemoveSelf@CClientOpsNode@@QEAAXXZ=C:/Windows/System32/wbemcomn.?RemoveSelf@CClientOpsNode@@QEAAXXZ @1060
    ?ReplaceAt@CWStringArray@@QEAAHHPEAG@Z=C:/Windows/System32/wbemcomn.?ReplaceAt@CWStringArray@@QEAAHHPEAG@Z @1061
    ?ReplaceClassName@QL1_Parser@@SAPEAGPEAUQL_LEVEL_1_RPN_EXPRESSION@@PEBG@Z=C:/Windows/System32/wbemcomn.?ReplaceClassName@QL1_Parser@@SAPEAGPEAUQL_LEVEL_1_RPN_EXPRESSION@@PEBG@Z @1062
    ?Report@CEventLog@@QEAAHGAEBU_EVENT_DESCRIPTOR@@VCInsertionString@@111111111@Z=C:/Windows/System32/wbemcomn.?Report@CEventLog@@QEAAHGAEBU_EVENT_DESCRIPTOR@@VCInsertionString@@111111111@Z @1063
    ?Requeue@CFlexQueue@@QEAA_NPEAX@Z=C:/Windows/System32/wbemcomn.?Requeue@CFlexQueue@@QEAA_NPEAX@Z @1064
    ?Reread@CRegistryMinMaxLimitControl@@QEAAJXZ=C:/Windows/System32/wbemcomn.?Reread@CRegistryMinMaxLimitControl@@QEAAJXZ @1065
    ?Reset@CBuffer@@QEAAXXZ=C:/Windows/System32/wbemcomn.?Reset@CBuffer@@QEAAXXZ @1066
    ?Reset@CMRCIControl@@QEAAXXZ=C:/Windows/System32/wbemcomn.?Reset@CMRCIControl@@QEAAXXZ @1067
    ?ResetDate@CDateTimeParser@@IEAAXH@Z=C:/Windows/System32/wbemcomn.?ResetDate@CDateTimeParser@@IEAAXH@Z @1068
    ?ResetDateTime@CDateTimeParser@@IEAAXH@Z=C:/Windows/System32/wbemcomn.?ResetDateTime@CDateTimeParser@@IEAAXH@Z @1069
    ?ResetQueue@CFlexQueue@@QEAAXXZ=C:/Windows/System32/wbemcomn.?ResetQueue@CFlexQueue@@QEAAXXZ @1070
    ?ResetTime@CDateTimeParser@@IEAAXH@Z=C:/Windows/System32/wbemcomn.?ResetTime@CDateTimeParser@@IEAAXH@Z @1071
    ?Resize@CNtAcl@@QEAAHK@Z=C:/Windows/System32/wbemcomn.?Resize@CNtAcl@@QEAAHK@Z @1072
    ?Resume@CHaltable@@QEAAJXZ=C:/Windows/System32/wbemcomn.?Resume@CHaltable@@QEAAJXZ @1073
    ?ResumeAll@CHaltable@@QEAAJXZ=C:/Windows/System32/wbemcomn.?ResumeAll@CHaltable@@QEAAJXZ @1074
    ?ReturnEscapedReturns@CTextTemplate@@AEAAPEAGPEAG@Z=C:/Windows/System32/wbemcomn.?ReturnEscapedReturns@CTextTemplate@@AEAAPEAGPEAG@Z @1077
    ?Revert@CBuffer@@UEAAJXZ=C:/Windows/System32/wbemcomn.?Revert@CBuffer@@UEAAJXZ @1078
    ?RevertToSelf@CWbemCallSecurity@@UEAAJXZ=C:/Windows/System32/wbemcomn.?RevertToSelf@CWbemCallSecurity@@UEAAJXZ @1079
    ?ScheduleFreeUnusedLibraries@CTimerGenerator@@QEAAXXZ=C:/Windows/System32/wbemcomn.?ScheduleFreeUnusedLibraries@CTimerGenerator@@QEAAXXZ @1080
    ?SchedulerThread@CTimerGenerator@@CAKPEAX@Z=C:/Windows/System32/wbemcomn.?SchedulerThread@CTimerGenerator@@CAKPEAX@Z @1081
    ?SearchForRecord@CEventLog@@IEAAHPEAVCEventLogRecord@@@Z=C:/Windows/System32/wbemcomn.?SearchForRecord@CEventLog@@IEAAHPEAVCEventLogRecord@@@Z @1082
    ?SearchForSuitableRequest@CExecQueue@@MEAAPEAVCExecRequest@@PEAVCThreadRecord@1@@Z=C:/Windows/System32/wbemcomn.?SearchForSuitableRequest@CExecQueue@@MEAAPEAVCExecRequest@@PEAVCThreadRecord@1@@Z @1083
    ?Seek@CBuffer@@UEAAJT_LARGE_INTEGER@@KPEAT_ULARGE_INTEGER@@@Z=C:/Windows/System32/wbemcomn.?Seek@CBuffer@@UEAAJT_LARGE_INTEGER@@KPEAT_ULARGE_INTEGER@@@Z @1084
    ?SelectList@CWQLScanner@@AEAAHXZ=C:/Windows/System32/wbemcomn.?SelectList@CWQLScanner@@AEAAHXZ @1085
    ?Serialize@C9XAce@@UEAA_NPEAE_K@Z=C:/Windows/System32/wbemcomn.?Serialize@C9XAce@@UEAA_NPEAE_K@Z @1086
    ?Serialize@CNtAce@@UEAA_NPEAE_K@Z=C:/Windows/System32/wbemcomn.?Serialize@CNtAce@@UEAA_NPEAE_K@Z @1087
    ?Set100nss@CWbemTime@@QEAAX_J@Z=C:/Windows/System32/wbemcomn.?Set100nss@CWbemTime@@QEAAX_J@Z @1088
    ?Set@CTimerGenerator@@QEAAJPEAVCTimerInstruction@@VCWbemTime@@@Z=C:/Windows/System32/wbemcomn.?Set@CTimerGenerator@@QEAAJPEAVCTimerInstruction@@VCWbemTime@@@Z @1089
    ?SetAggregated@QL_LEVEL_1_RPN_EXPRESSION@@UEAAXXZ=C:/Windows/System32/wbemcomn.?SetAggregated@QL_LEVEL_1_RPN_EXPRESSION@@UEAAXXZ @1090
    ?SetAggregationTolerance@QL_LEVEL_1_RPN_EXPRESSION@@UEAAXAEBU_tag_WbemQl1Tolerance@@@Z=C:/Windows/System32/wbemcomn.?SetAggregationTolerance@QL_LEVEL_1_RPN_EXPRESSION@@UEAAXAEBU_tag_WbemQl1Tolerance@@@Z @1091
    ?SetAreaFlags@CWMITraceSettings@@QEAAXK@Z=C:/Windows/System32/wbemcomn.?SetAreaFlags@CWMITraceSettings@@QEAAXK@Z @1092
    ?SetAsNull@CVar@@QEAAXXZ=C:/Windows/System32/wbemcomn.?SetAsNull@CVar@@QEAAXXZ @1093
    ?SetAt@CFlexArray@@QEAAXHPEAX@Z=C:/Windows/System32/wbemcomn.?SetAt@CFlexArray@@QEAAXHPEAX@Z @1094
    ?SetAt@CSmallArrayBlob@@QEAAPEAV1@HPEAXPEAPEAX@Z=C:/Windows/System32/wbemcomn.?SetAt@CSmallArrayBlob@@QEAAPEAV1@HPEAXPEAPEAX@Z @1095
    ?SetAt@CWStringArray@@QEAAHHPEBG@Z=C:/Windows/System32/wbemcomn.?SetAt@CWStringArray@@QEAAHHPEBG@Z @1096
    ?SetAutoRecoverFolder@CWbemInstallObject@@SAXPEBG@Z=C:/Windows/System32/wbemcomn.?SetAutoRecoverFolder@CWbemInstallObject@@SAXPEBG@Z @1097
    ?SetBSTR@CVar@@QEAAHPEAG@Z=C:/Windows/System32/wbemcomn.?SetBSTR@CVar@@QEAAHPEAG@Z @1098
    ?SetBSTR@CVar@@QEAAHVauto_bstr@@@Z=C:/Windows/System32/wbemcomn.?SetBSTR@CVar@@QEAAHVauto_bstr@@@Z @1099
    ?SetBSTRAt@CSafeArray@@QEAAHHPEAG@Z=C:/Windows/System32/wbemcomn.?SetBSTRAt@CSafeArray@@QEAAHHPEAG@Z @1100
    ?SetBinary@Registry@@QEAAHPEBGPEAEK@Z=C:/Windows/System32/wbemcomn.?SetBinary@Registry@@QEAAHPEBGPEAEK@Z @1101
    ?SetBinaryPath@CWbemInstallObject@@SAXPEBG@Z=C:/Windows/System32/wbemcomn.?SetBinaryPath@CWbemInstallObject@@SAXPEBG@Z @1102
    ?SetBlob@CVar@@QEAAXPEAUtagBLOB@@H@Z=C:/Windows/System32/wbemcomn.?SetBlob@CVar@@QEAAXPEAUtagBLOB@@H@Z @1103
    ?SetBool@CVar@@QEAAXF@Z=C:/Windows/System32/wbemcomn.?SetBool@CVar@@QEAAXF@Z @1104
    ?SetBoolAt@CSafeArray@@QEAAHHF@Z=C:/Windows/System32/wbemcomn.?SetBoolAt@CSafeArray@@QEAAHHF@Z @1105
    ?SetByte@CVar@@QEAAXE@Z=C:/Windows/System32/wbemcomn.?SetByte@CVar@@QEAAXE@Z @1106
    ?SetByteAt@CSafeArray@@QEAAHHE@Z=C:/Windows/System32/wbemcomn.?SetByteAt@CSafeArray@@QEAAHHE@Z @1107
    ?SetCanDelete@CVar@@QEAAXH@Z=C:/Windows/System32/wbemcomn.?SetCanDelete@CVar@@QEAAXH@Z @1108
    ?SetChar@CVar@@QEAAXD@Z=C:/Windows/System32/wbemcomn.?SetChar@CVar@@QEAAXD@Z @1109
    ?SetClassName@QL_LEVEL_1_RPN_EXPRESSION@@UEAAXPEBG@Z=C:/Windows/System32/wbemcomn.?SetClassName@QL_LEVEL_1_RPN_EXPRESSION@@UEAAXPEBG@Z @1110
    ?SetClsId@CVar@@QEAAXPEAU_GUID@@H@Z=C:/Windows/System32/wbemcomn.?SetClsId@CVar@@QEAAXPEAU_GUID@@H@Z @1111
    ?SetCountQuery@QL_LEVEL_1_RPN_EXPRESSION@@UEAAXXZ=C:/Windows/System32/wbemcomn.?SetCountQuery@QL_LEVEL_1_RPN_EXPRESSION@@UEAAXXZ @1112
    ?SetDMTF@CWbemTime@@QEAAHPEBG@Z=C:/Windows/System32/wbemcomn.?SetDMTF@CWbemTime@@QEAAHPEBG@Z @1113
    ?SetDWORD@CVar@@QEAAXK@Z=C:/Windows/System32/wbemcomn.?SetDWORD@CVar@@QEAAXK@Z @1114
    ?SetDWORD@Registry@@QEAAHPEBGK@Z=C:/Windows/System32/wbemcomn.?SetDWORD@Registry@@QEAAHPEBGK@Z @1115
    ?SetDWORDStr@Registry@@QEAAHPEBGK@Z=C:/Windows/System32/wbemcomn.?SetDWORDStr@Registry@@QEAAHPEBGK@Z @1116
    ?SetDacl@CNtSecurityDescriptor@@QEAAHPEAVCNtAcl@@@Z=C:/Windows/System32/wbemcomn.?SetDacl@CNtSecurityDescriptor@@QEAAHPEAVCNtAcl@@@Z @1117
    ?SetDate@CDatePart@@QEAAJPEBD@Z=C:/Windows/System32/wbemcomn.?SetDate@CDatePart@@QEAAJPEBD@Z @1118
    ?SetDate@CDatePart@@QEAAJPEBG@Z=C:/Windows/System32/wbemcomn.?SetDate@CDatePart@@QEAAJPEBG@Z @1119
    ?SetDateTime@CDateTimeParser@@QEAAHPEBG@Z=C:/Windows/System32/wbemcomn.?SetDateTime@CDateTimeParser@@QEAAHPEBG@Z @1120
    ?SetDefaultValues@CWMITraceSettings@@QEAAKXZ=C:/Windows/System32/wbemcomn.?SetDefaultValues@CWMITraceSettings@@QEAAKXZ @1121
    ?SetDestructorPolicy@CSafeArray@@QEAAXH@Z=C:/Windows/System32/wbemcomn.?SetDestructorPolicy@CSafeArray@@QEAAXH@Z @1122
    ?SetDispatch@CVar@@QEAAXPEAUIDispatch@@@Z=C:/Windows/System32/wbemcomn.?SetDispatch@CVar@@QEAAXPEAUIDispatch@@@Z @1123
    ?SetDispatchAt@CSafeArray@@QEAAHHPEAUIDispatch@@@Z=C:/Windows/System32/wbemcomn.?SetDispatchAt@CSafeArray@@QEAAHHPEAUIDispatch@@@Z @1124
    ?SetDouble@CVar@@QEAAXN@Z=C:/Windows/System32/wbemcomn.?SetDouble@CVar@@QEAAXN@Z @1125
    ?SetDoubleAt@CSafeArray@@QEAAHHN@Z=C:/Windows/System32/wbemcomn.?SetDoubleAt@CSafeArray@@QEAAHHN@Z @1126
    ?SetEmbeddedObject@CVar@@QEAAXPEAUIUnknown@@@Z=C:/Windows/System32/wbemcomn.?SetEmbeddedObject@CVar@@QEAAXPEAUIUnknown@@@Z @1127
    ?SetExpandStr@Registry@@QEAAHPEBG0@Z=C:/Windows/System32/wbemcomn.?SetExpandStr@Registry@@QEAAHPEBG0@Z @1128
    ?SetExpression@CLike@@QEAAXPEBGG@Z=C:/Windows/System32/wbemcomn.?SetExpression@CLike@@QEAAXPEBGG@Z @1129
    ?SetFailure@CStaticCritSec@@SAXXZ=C:/Windows/System32/wbemcomn.?SetFailure@CStaticCritSec@@SAXXZ @1130
    ?SetFileTime@CVar@@QEAAXPEAU_FILETIME@@@Z=C:/Windows/System32/wbemcomn.?SetFileTime@CVar@@QEAAXPEAU_FILETIME@@@Z @1131
    ?SetFileTime@CWbemTime@@QEAAHAEBU_FILETIME@@@Z=C:/Windows/System32/wbemcomn.?SetFileTime@CWbemTime@@QEAAHAEBU_FILETIME@@@Z @1132
    ?SetFlags@C9XAce@@UEAAXJ@Z=C:/Windows/System32/wbemcomn.?SetFlags@C9XAce@@UEAAXJ@Z @1133
    ?SetFlags@CNtAce@@UEAAXJ@Z=C:/Windows/System32/wbemcomn.?SetFlags@CNtAce@@UEAAXJ@Z @1134
    ?SetFloat@CVar@@QEAAXM@Z=C:/Windows/System32/wbemcomn.?SetFloat@CVar@@QEAAXM@Z @1135
    ?SetFloatAt@CSafeArray@@QEAAHHM@Z=C:/Windows/System32/wbemcomn.?SetFloatAt@CSafeArray@@QEAAHHM@Z @1136
    ?SetFromAbsoluteCopy@CNtSecurityDescriptor@@QEAAHPEAUSNtAbsoluteSD@@@Z=C:/Windows/System32/wbemcomn.?SetFromAbsoluteCopy@CNtSecurityDescriptor@@QEAAHPEAUSNtAbsoluteSD@@@Z @1137
    ?SetGroup@CNtSecurityDescriptor@@QEAAHPEAVCNtSid@@@Z=C:/Windows/System32/wbemcomn.?SetGroup@CNtSecurityDescriptor@@QEAAHPEAVCNtSid@@@Z @1138
    ?SetGrowGranularity@CSafeArray@@QEAAXH@Z=C:/Windows/System32/wbemcomn.?SetGrowGranularity@CSafeArray@@QEAAXH@Z @1139
    ?SetHandle@CPropertyName@@QEAAXPEAX@Z=C:/Windows/System32/wbemcomn.?SetHandle@CPropertyName@@QEAAXPEAX@Z @1140
    ?SetIdleTimeout@CExecQueue@@QEAAXK@Z=C:/Windows/System32/wbemcomn.?SetIdleTimeout@CExecQueue@@QEAAXK@Z @1141
    ?SetInfo@CClientOpsNode@@QEAAXPEAX@Z=C:/Windows/System32/wbemcomn.?SetInfo@CClientOpsNode@@QEAAXPEAX@Z @1142
    ?SetInterval@CBasicUnloadInstruction@@QEAAXAEAVCWbemInterval@@@Z=C:/Windows/System32/wbemcomn.?SetInterval@CBasicUnloadInstruction@@QEAAXAEAVCWbemInterval@@@Z @1143
    ?SetLPSTR@CVar@@QEAAHPEADH@Z=C:/Windows/System32/wbemcomn.?SetLPSTR@CVar@@QEAAHPEADH@Z @1144
    ?SetLPWSTR@CVar@@QEAAHPEAGH@Z=C:/Windows/System32/wbemcomn.?SetLPWSTR@CVar@@QEAAHPEAGH@Z @1145
    ?SetLogingEnabled@CMemoryLog@@QEAAX_N@Z=C:/Windows/System32/wbemcomn.?SetLogingEnabled@CMemoryLog@@QEAAX_N@Z @1146
    ?SetLong@CVar@@QEAAXJ@Z=C:/Windows/System32/wbemcomn.?SetLong@CVar@@QEAAXJ@Z @1147
    ?SetLongAt@CSafeArray@@QEAAHHJ@Z=C:/Windows/System32/wbemcomn.?SetLongAt@CSafeArray@@QEAAHHJ@Z @1148
    ?SetMax@CMinMaxLimitControl@@QEAAXK@Z=C:/Windows/System32/wbemcomn.?SetMax@CMinMaxLimitControl@@QEAAXK@Z @1149
    ?SetMilliseconds@CWbemInterval@@QEAAXK@Z=C:/Windows/System32/wbemcomn.?SetMilliseconds@CWbemInterval@@QEAAXK@Z @1150
    ?SetMin@CMinMaxLimitControl@@QEAAXK@Z=C:/Windows/System32/wbemcomn.?SetMin@CMinMaxLimitControl@@QEAAXK@Z @1151
    ?SetMultiStr@Registry@@QEAAHPEBGPEAGK@Z=C:/Windows/System32/wbemcomn.?SetMultiStr@Registry@@QEAAHPEBGPEAGK@Z @1152
    ?SetNext@CExecRequest@@QEAAXPEAV1@@Z=C:/Windows/System32/wbemcomn.?SetNext@CExecRequest@@QEAAXPEAV1@@Z @1153
    ?SetOffline@CWbemInstallObject@@SAX_N@Z=C:/Windows/System32/wbemcomn.?SetOffline@CWbemInstallObject@@SAX_N@Z @1155
    ?SetOverflowIdleTimeout@CExecQueue@@QEAAXK@Z=C:/Windows/System32/wbemcomn.?SetOverflowIdleTimeout@CExecQueue@@QEAAXK@Z @1156
    ?SetOwner@CNtSecurityDescriptor@@QEAAHPEAVCNtSid@@@Z=C:/Windows/System32/wbemcomn.?SetOwner@CNtSecurityDescriptor@@QEAAHPEAVCNtSid@@@Z @1157
    ?SetPersistentCfgValue@CPersistentConfig@@QEAAHKK@Z=C:/Windows/System32/wbemcomn.?SetPersistentCfgValue@CPersistentConfig@@QEAAHKK@Z @1158
    ?SetPreferredLanguages@CMUILocale@@SAJKPEBGPEAK@Z=C:/Windows/System32/wbemcomn.?SetPreferredLanguages@CMUILocale@@SAJKPEBGPEAK@Z @1159
    ?SetPriority@CExecRequest@@QEAAXJ@Z=C:/Windows/System32/wbemcomn.?SetPriority@CExecRequest@@QEAAXJ@Z @1160
    ?SetQWORD@Registry@@QEAAHPEBG_K@Z=C:/Windows/System32/wbemcomn.?SetQWORD@Registry@@QEAAHPEBG_K@Z @1161
    ?SetRaw@CVar@@QEAAXHPEAXH@Z=C:/Windows/System32/wbemcomn.?SetRaw@CVar@@QEAAXHPEAXH@Z @1162
    ?SetRawArrayBinding@CVarVector@@QEAAXH@Z=C:/Windows/System32/wbemcomn.?SetRawArrayBinding@CVarVector@@QEAAXH@Z @1163
    ?SetRawArrayData@CVarVector@@QEAAJPEAXHH@Z=C:/Windows/System32/wbemcomn.?SetRawArrayData@CVarVector@@QEAAJPEAXHH@Z @1164
    ?SetRawArrayMaxElement@CSafeArray@@QEAAXH@Z=C:/Windows/System32/wbemcomn.?SetRawArrayMaxElement@CSafeArray@@QEAAXH@Z @1165
    ?SetRawArraySize@CVarVector@@QEAAHH@Z=C:/Windows/System32/wbemcomn.?SetRawArraySize@CVarVector@@QEAAHH@Z @1166
    ?SetRawData@CSafeArray@@QEAAHPEAXHH@Z=C:/Windows/System32/wbemcomn.?SetRawData@CSafeArray@@QEAAHPEAXHH@Z @1167
    ?SetRegistryPathCIMOM@CWbemInstallObject@@SAXPEBG@Z=C:/Windows/System32/wbemcomn.?SetRegistryPathCIMOM@CWbemInstallObject@@SAXPEBG@Z @1168
    ?SetRegistryPathWbem@CWbemInstallObject@@SAXPEBG@Z=C:/Windows/System32/wbemcomn.?SetRegistryPathWbem@CWbemInstallObject@@SAXPEBG@Z @1169
    ?SetRepositoryFolder@CWbemInstallObject@@SAXPEBG@Z=C:/Windows/System32/wbemcomn.?SetRepositoryFolder@CWbemInstallObject@@SAXPEBG@Z @1170
    ?SetRequestLimits@CExecQueue@@QEAAXJJJ@Z=C:/Windows/System32/wbemcomn.?SetRequestLimits@CExecQueue@@QEAAXJJJ@Z @1171
    ?SetSacl@CNtSecurityDescriptor@@QEAAHPEAVCNtAcl@@@Z=C:/Windows/System32/wbemcomn.?SetSacl@CNtSecurityDescriptor@@QEAAHPEAVCNtAcl@@@Z @1172
    ?SetSafeArray@CVar@@QEAAXHPEAUtagSAFEARRAY@@@Z=C:/Windows/System32/wbemcomn.?SetSafeArray@CVar@@QEAAXHPEAUtagSAFEARRAY@@@Z @1173
    ?SetScalarAt@CSafeArray@@AEAAHHTSA_ArrayScalar@@@Z=C:/Windows/System32/wbemcomn.?SetScalarAt@CSafeArray@@AEAAHHTSA_ArrayScalar@@@Z @1174
    ?SetShort@CVar@@QEAAXF@Z=C:/Windows/System32/wbemcomn.?SetShort@CVar@@QEAAXF@Z @1175
    ?SetShortAt@CSafeArray@@QEAAHHF@Z=C:/Windows/System32/wbemcomn.?SetShortAt@CSafeArray@@QEAAHHF@Z @1176
    ?SetSize@CBuffer@@QEAAJK@Z=C:/Windows/System32/wbemcomn.?SetSize@CBuffer@@QEAAJK@Z @1177
    ?SetSize@CBuffer@@UEAAJT_ULARGE_INTEGER@@@Z=C:/Windows/System32/wbemcomn.?SetSize@CBuffer@@UEAAJT_ULARGE_INTEGER@@@Z @1178
    ?SetSize@CFlexArray@@QEAAXH@Z=C:/Windows/System32/wbemcomn.?SetSize@CFlexArray@@QEAAXH@Z @1179
    ?SetSleepAtMax@CMinMaxLimitControl@@QEAAXK@Z=C:/Windows/System32/wbemcomn.?SetSleepAtMax@CMinMaxLimitControl@@QEAAXK@Z @1180
    ?SetStr@Registry@@QEAAHPEBG0@Z=C:/Windows/System32/wbemcomn.?SetStr@Registry@@QEAAHPEBG0@Z @1181
    ?SetSystemTime@CWbemTime@@QEAAHAEBU_SYSTEMTIME@@@Z=C:/Windows/System32/wbemcomn.?SetSystemTime@CWbemTime@@QEAAHAEBU_SYSTEMTIME@@@Z @1182
    ?SetTemplate@CTextTemplate@@QEAAXPEBG@Z=C:/Windows/System32/wbemcomn.?SetTemplate@CTextTemplate@@QEAAXPEBG@Z @1183
    ?SetThreadLimits@CExecQueue@@QEAAXJJJ@Z=C:/Windows/System32/wbemcomn.?SetThreadLimits@CExecQueue@@QEAAXJJJ@Z @1184
    ?SetTolerance@QL_LEVEL_1_RPN_EXPRESSION@@UEAAXAEBU_tag_WbemQl1Tolerance@@@Z=C:/Windows/System32/wbemcomn.?SetTolerance@QL_LEVEL_1_RPN_EXPRESSION@@UEAAXAEBU_tag_WbemQl1Tolerance@@@Z @1185
    ?SetTraceLevel@CWMITraceSettings@@QEAAXE@Z=C:/Windows/System32/wbemcomn.?SetTraceLevel@CWMITraceSettings@@QEAAXE@Z @1186
    ?SetUnknown@CVar@@QEAAXPEAUIUnknown@@@Z=C:/Windows/System32/wbemcomn.?SetUnknown@CVar@@QEAAXPEAUIUnknown@@@Z @1187
    ?SetUnknownAt@CSafeArray@@QEAAHHPEAUIUnknown@@@Z=C:/Windows/System32/wbemcomn.?SetUnknownAt@CSafeArray@@QEAAHHPEAUIUnknown@@@Z @1188
    ?SetVarVector@CVar@@QEAAXPEAVCVarVector@@H@Z=C:/Windows/System32/wbemcomn.?SetVarVector@CVar@@QEAAXPEAVCVarVector@@H@Z @1189
    ?SetVariant@CVar@@QEAAHPEAUtagVARIANT@@H@Z=C:/Windows/System32/wbemcomn.?SetVariant@CVar@@QEAAHPEAUtagVARIANT@@H@Z @1190
    ?SetVariantAt@CSafeArray@@QEAAHHPEAUtagVARIANT@@@Z=C:/Windows/System32/wbemcomn.?SetVariantAt@CSafeArray@@QEAAHHPEAUtagVARIANT@@@Z @1191
    ?SetWhenDoneHandle@CExecRequest@@QEAAXPEAX@Z=C:/Windows/System32/wbemcomn.?SetWhenDoneHandle@CExecRequest@@QEAAXPEAX@Z @1193
    ?SetWord@CVar@@QEAAXG@Z=C:/Windows/System32/wbemcomn.?SetWord@CVar@@QEAAXG@Z @1194
    ?Shrink@CSmallArrayBlob@@IEAAPEAV1@XZ=C:/Windows/System32/wbemcomn.?Shrink@CSmallArrayBlob@@IEAAPEAV1@XZ @1196
    ?ShrinkIfNeeded@CSmallArrayBlob@@IEAAPEAV1@XZ=C:/Windows/System32/wbemcomn.?ShrinkIfNeeded@CSmallArrayBlob@@IEAAPEAV1@XZ @1197
    ?Shutdown@CExecQueue@@QEAAXXZ=C:/Windows/System32/wbemcomn.?Shutdown@CExecQueue@@QEAAXXZ @1198
    ?Shutdown@CTimerGenerator@@UEAAJXZ=C:/Windows/System32/wbemcomn.?Shutdown@CTimerGenerator@@UEAAJXZ @1199
    ?Shutdown@CWbemInstallObject@@SAXXZ=C:/Windows/System32/wbemcomn.?Shutdown@CWbemInstallObject@@SAXXZ @1200
    ?ShutdownThread@CExecQueue@@MEAAXPEAVCThreadRecord@1@@Z=C:/Windows/System32/wbemcomn.?ShutdownThread@CExecQueue@@MEAAXPEAVCThreadRecord@1@@Z @1201
    ?SitOutPenalty@CExecQueue@@MEAAXJ@Z=C:/Windows/System32/wbemcomn.?SitOutPenalty@CExecQueue@@MEAAXJ@Z @1202
    ?Size@CFlexArray@@QEBAHXZ=C:/Windows/System32/wbemcomn.?Size@CFlexArray@@QEBAHXZ @1203
    ?Size@CSafeArray@@QEAAHXZ=C:/Windows/System32/wbemcomn.?Size@CSafeArray@@QEAAHXZ @1204
    ?Size@CSmallArrayBlob@@QEBAHXZ=C:/Windows/System32/wbemcomn.?Size@CSmallArrayBlob@@QEBAHXZ @1205
    ?Size@CVarVector@@QEAAHXZ=C:/Windows/System32/wbemcomn.?Size@CVarVector@@QEAAHXZ @1206
    ?Size@CWStringArray@@QEBAHXZ=C:/Windows/System32/wbemcomn.?Size@CWStringArray@@QEBAHXZ @1207
    ?Sort@CFlexArray@@QEAAXXZ=C:/Windows/System32/wbemcomn.?Sort@CFlexArray@@QEAAXXZ @1208
    ?Sort@CSmallArrayBlob@@QEAAXXZ=C:/Windows/System32/wbemcomn.?Sort@CSmallArrayBlob@@QEAAXXZ @1209
    ?Sort@CWStringArray@@QEAAXXZ=C:/Windows/System32/wbemcomn.?Sort@CWStringArray@@QEAAXXZ @1210
    ?Start@CTraceSessionControl@@SAKPEBU_GUID@@PEAVCWMITraceSettings@@@Z=C:/Windows/System32/wbemcomn.?Start@CTraceSessionControl@@SAKPEBU_GUID@@PEAVCWMITraceSettings@@@Z @1211
    ?Stat@CBuffer@@UEAAJPEAUtagSTATSTG@@K@Z=C:/Windows/System32/wbemcomn.?Stat@CBuffer@@UEAAJPEAUtagSTATSTG@@K@Z @1212
    ?Status@CSafeArray@@QEAAHXZ=C:/Windows/System32/wbemcomn.?Status@CSafeArray@@QEAAHXZ @1213
    ?Status@CVar@@QEAAHXZ=C:/Windows/System32/wbemcomn.?Status@CVar@@QEAAHXZ @1214
    ?Status@CVarVector@@QEAAHXZ=C:/Windows/System32/wbemcomn.?Status@CVarVector@@QEAAHXZ @1215
    ?StripToToken@WString2@@QEAAAEAV1@GH@Z=C:/Windows/System32/wbemcomn.?StripToToken@WString2@@QEAAAEAV1@GH@Z @1216
    ?StripToToken@WString@@QEAAAEAV1@GH@Z=C:/Windows/System32/wbemcomn.?StripToToken@WString@@QEAAAEAV1@GH@Z @1217
    ?StripWhereClause@CWQLScanner@@AEAAHXZ=C:/Windows/System32/wbemcomn.?StripWhereClause@CWQLScanner@@AEAAHXZ @1218
    ?StripWs@WString2@@QEAAAEAV1@H@Z=C:/Windows/System32/wbemcomn.?StripWs@WString2@@QEAAAEAV1@H@Z @1219
    ?StripWs@WString@@QEAAAEAV1@H@Z=C:/Windows/System32/wbemcomn.?StripWs@WString@@QEAAAEAV1@H@Z @1220
    ?SwitchRow@CLike@@AEAAX_KAEAPEAE1@Z=C:/Windows/System32/wbemcomn.?SwitchRow@CLike@@AEAAX_KAEAPEAE1@Z @1221
    ?Terminate@CBasicUnloadInstruction@@QEAAXXZ=C:/Windows/System32/wbemcomn.?Terminate@CBasicUnloadInstruction@@QEAAXXZ @1222
    ?ThreadMain@CExecQueue@@MEAAXPEAVCThreadRecord@1@@Z=C:/Windows/System32/wbemcomn.?ThreadMain@CExecQueue@@MEAAXPEAVCThreadRecord@1@@Z @1224
    ?TimeFormat1@CDateTimeParser@@IEAAHPEBGH@Z=C:/Windows/System32/wbemcomn.?TimeFormat1@CDateTimeParser@@IEAAHPEBGH@Z @1226
    ?TimeFormat2@CDateTimeParser@@IEAAHPEBGH@Z=C:/Windows/System32/wbemcomn.?TimeFormat2@CDateTimeParser@@IEAAHPEBGH@Z @1227
    ?TimeFormat3@CDateTimeParser@@IEAAHPEBGH@Z=C:/Windows/System32/wbemcomn.?TimeFormat3@CDateTimeParser@@IEAAHPEBGH@Z @1228
    ?TimeFormat4@CDateTimeParser@@IEAAHPEBGH@Z=C:/Windows/System32/wbemcomn.?TimeFormat4@CDateTimeParser@@IEAAHPEBGH@Z @1229
    ?TimeFormat5@CDateTimeParser@@IEAAHPEBGH@Z=C:/Windows/System32/wbemcomn.?TimeFormat5@CDateTimeParser@@IEAAHPEBGH@Z @1230
    ?TimeFormat6@CDateTimeParser@@IEAAHPEBGH@Z=C:/Windows/System32/wbemcomn.?TimeFormat6@CDateTimeParser@@IEAAHPEBGH@Z @1231
    ?TimeFormat7@CDateTimeParser@@IEAAHPEBGH@Z=C:/Windows/System32/wbemcomn.?TimeFormat7@CDateTimeParser@@IEAAHPEBGH@Z @1232
    ?TimeFormat8@CDateTimeParser@@IEAAHPEBGH@Z=C:/Windows/System32/wbemcomn.?TimeFormat8@CDateTimeParser@@IEAAHPEBGH@Z @1233
    ?TimeFormat9@CDateTimeParser@@IEAAHPEBGH@Z=C:/Windows/System32/wbemcomn.?TimeFormat9@CDateTimeParser@@IEAAHPEBGH@Z @1234
    ?TimeToWait@CInstructionQueue@@IEAA?AVCWbemInterval@@XZ=C:/Windows/System32/wbemcomn.?TimeToWait@CInstructionQueue@@IEAA?AVCWbemInterval@@XZ @1235
    ?ToSingleChar@CVar@@QEAAHXZ=C:/Windows/System32/wbemcomn.?ToSingleChar@CVar@@QEAAHXZ @1236
    ?ToSingleChar@CVarVector@@QEAAHXZ=C:/Windows/System32/wbemcomn.?ToSingleChar@CVarVector@@QEAAHXZ @1237
    ?ToUI4@CVar@@QEAAHXZ=C:/Windows/System32/wbemcomn.?ToUI4@CVar@@QEAAHXZ @1238
    ?ToUI4@CVarVector@@QEAAHXZ=C:/Windows/System32/wbemcomn.?ToUI4@CVarVector@@QEAAHXZ @1239
    ?TouchHead@CInstructionQueue@@IEAAXXZ=C:/Windows/System32/wbemcomn.?TouchHead@CInstructionQueue@@IEAAXXZ @1240
    ?Transform@MD5@@SAXPEAXIQEAE@Z=C:/Windows/System32/wbemcomn.?Transform@MD5@@SAXPEAXIQEAE@Z @1241
    ?Transform@SHA256@@SAXPEAXIQEAE@Z=C:/Windows/System32/wbemcomn.?Transform@SHA256@@SAXPEAXIQEAE@Z @1242
    ?TranslateIntrinsic@CAbstractQl1Parser@@KAKPEBG@Z=C:/Windows/System32/wbemcomn.?TranslateIntrinsic@CAbstractQl1Parser@@KAKPEBG@Z @1243
    ?Trim@CFlexArray@@QEAAXXZ=C:/Windows/System32/wbemcomn.?Trim@CFlexArray@@QEAAXXZ @1244
    ?Trim@CSafeArray@@QEAAHXZ=C:/Windows/System32/wbemcomn.?Trim@CSafeArray@@QEAAHXZ @1245
    ?Trim@CSmallArrayBlob@@QEAAXXZ=C:/Windows/System32/wbemcomn.?Trim@CSmallArrayBlob@@QEAAXXZ @1246
    ?TruncAtLToken@WString2@@QEAAAEAV1@G@Z=C:/Windows/System32/wbemcomn.?TruncAtLToken@WString2@@QEAAAEAV1@G@Z @1247
    ?TruncAtLToken@WString@@QEAAAEAV1@G@Z=C:/Windows/System32/wbemcomn.?TruncAtLToken@WString@@QEAAAEAV1@G@Z @1248
    ?TruncAtRToken@WString2@@QEAAAEAV1@G@Z=C:/Windows/System32/wbemcomn.?TruncAtRToken@WString2@@QEAAAEAV1@G@Z @1249
    ?TruncAtRToken@WString@@QEAAAEAV1@G@Z=C:/Windows/System32/wbemcomn.?TruncAtRToken@WString@@QEAAAEAV1@G@Z @1250
    ?TypeToText@CVar@@SAPEAGH@Z=C:/Windows/System32/wbemcomn.?TypeToText@CVar@@SAPEAGH@Z @1251
    ?Unaccess@CSafeArray@@QEAAJXZ=C:/Windows/System32/wbemcomn.?Unaccess@CSafeArray@@QEAAJXZ @1253
    ?UnaccessRawArray@CVarVector@@QEAAJXZ=C:/Windows/System32/wbemcomn.?UnaccessRawArray@CVarVector@@QEAAJXZ @1254
    ?UnbindPtr@CFlexArray@@QEAAPEAPEAXXZ=C:/Windows/System32/wbemcomn.?UnbindPtr@CFlexArray@@QEAAPEAPEAXXZ @1255
    ?UnbindPtr@WString2@@QEAAPEAGXZ=C:/Windows/System32/wbemcomn.?UnbindPtr@WString2@@QEAAPEAGXZ @1256
    ?UnbindPtr@WString@@QEAAPEAGXZ=C:/Windows/System32/wbemcomn.?UnbindPtr@WString@@QEAAPEAGXZ @1257
    ?UnblockedWaitForSingleObject@CExecQueue@@MEAAKPEAXKPEAVCThreadRecord@1@@Z=C:/Windows/System32/wbemcomn.?UnblockedWaitForSingleObject@CExecQueue@@MEAAKPEAXKPEAVCThreadRecord@1@@Z @1258
    ?UncompressBuffer@CMRCICompression@@QEAAIPEAEK0KW4CompressionLevel@1@@Z=C:/Windows/System32/wbemcomn.?UncompressBuffer@CMRCICompression@@QEAAIPEAEK0KW4CompressionLevel@1@@Z @1259
    ?UncompressFile@CMRCICompression@@QEAAHPEBG0@Z=C:/Windows/System32/wbemcomn.?UncompressFile@CMRCICompression@@QEAAHPEBG0@Z @1260
    ?UncompressFileV1@CMRCICompression@@IEAAHHH@Z=C:/Windows/System32/wbemcomn.?UncompressFileV1@CMRCICompression@@IEAAHHH@Z @1261
    ?UninitializeThread@CExecQueue@@MEAAXXZ=C:/Windows/System32/wbemcomn.?UninitializeThread@CExecQueue@@MEAAXXZ @1262
    ?Union@CWStringArray@@SAXAEAV1@00@Z=C:/Windows/System32/wbemcomn.?Union@CWStringArray@@SAXAEAV1@00@Z @1263
    ?Unlock@?$CLockableFlexArray@VCStaticCritSec@@@@QEAAXXZ=C:/Windows/System32/wbemcomn.?Unlock@?$CLockableFlexArray@VCStaticCritSec@@@@QEAAXXZ @1264
    ?Unlock@CClientOpsNode@@QEAAXXZ=C:/Windows/System32/wbemcomn.?Unlock@CClientOpsNode@@QEAAXXZ @1265
    ?UnlockRegion@CBuffer@@UEAAJT_ULARGE_INTEGER@@0K@Z=C:/Windows/System32/wbemcomn.?UnlockRegion@CBuffer@@UEAAJT_ULARGE_INTEGER@@0K@Z @1266
    ?Unqueue@CFlexQueue@@QEAAPEAXXZ=C:/Windows/System32/wbemcomn.?Unqueue@CFlexQueue@@QEAAPEAXXZ @1267
    ?Unquote@WString2@@QEAAXXZ=C:/Windows/System32/wbemcomn.?Unquote@WString2@@QEAAXXZ @1268
    ?Unquote@WString@@QEAAXXZ=C:/Windows/System32/wbemcomn.?Unquote@WString@@QEAAXXZ @1269
    ?UnregisterCMIFlushRepositoryCacheHook@CWbemInstallObject@@SAXXZ=C:/Windows/System32/wbemcomn.?UnregisterCMIFlushRepositoryCacheHook@CWbemInstallObject@@SAXXZ @1270
    ?UpdateChildren@CClientOpsNode@@AEAAXPEAV1@@Z=C:/Windows/System32/wbemcomn.?UpdateChildren@CClientOpsNode@@AEAAXPEAV1@@Z @1272
    ?ValidateMemSize@CWin32DefaultArena@@SAHH@Z=C:/Windows/System32/wbemcomn.?ValidateMemSize@CWin32DefaultArena@@SAHH@Z @1273
    ?WaitAndPeek@CInstructionQueue@@QEAAJAEAPEAVCTimerInstruction@@AEAVCWbemTime@@@Z=C:/Windows/System32/wbemcomn.?WaitAndPeek@CInstructionQueue@@QEAAJAEAPEAVCTimerInstruction@@AEAVCWbemTime@@@Z @1276
    ?WaitForResumption@CHaltable@@QEAAJXZ=C:/Windows/System32/wbemcomn.?WaitForResumption@CHaltable@@QEAAJXZ @1277
    ?WaitForSingleObjectWhileBusy@CExecQueue@@MEAAKPEAXKPEAVCThreadRecord@1@@Z=C:/Windows/System32/wbemcomn.?WaitForSingleObjectWhileBusy@CExecQueue@@MEAAKPEAXKPEAVCThreadRecord@1@@Z @1278
    ?WbemHeapFree@CWin32DefaultArena@@SAXXZ=C:/Windows/System32/wbemcomn.?WbemHeapFree@CWin32DefaultArena@@SAXXZ @1280
    ?WbemHeapInitialize@CWin32DefaultArena@@SAHPEAX@Z=C:/Windows/System32/wbemcomn.?WbemHeapInitialize@CWin32DefaultArena@@SAHPEAX@Z @1281
    ?WbemMemAlloc@CWin32DefaultArena@@SAPEAX_K@Z=C:/Windows/System32/wbemcomn.?WbemMemAlloc@CWin32DefaultArena@@SAPEAX_K@Z @1282
    ?WbemMemFree@CWin32DefaultArena@@SAHPEAX@Z=C:/Windows/System32/wbemcomn.?WbemMemFree@CWin32DefaultArena@@SAHPEAX@Z @1283
    ?WbemMemReAlloc@CWin32DefaultArena@@SAPEAXPEAX_K@Z=C:/Windows/System32/wbemcomn.?WbemMemReAlloc@CWin32DefaultArena@@SAPEAXPEAX_K@Z @1284
    ?WbemMemSize@CWin32DefaultArena@@SA_KPEAX@Z=C:/Windows/System32/wbemcomn.?WbemMemSize@CWin32DefaultArena@@SA_KPEAX@Z @1285
    ?WbemOutOfMemory@CWin32DefaultArena@@SAHXZ=C:/Windows/System32/wbemcomn.?WbemOutOfMemory@CWin32DefaultArena@@SAHXZ @1286
    ?WbemSysAllocString@CWin32DefaultArena@@SAPEAGPEBG@Z=C:/Windows/System32/wbemcomn.?WbemSysAllocString@CWin32DefaultArena@@SAPEAGPEBG@Z @1289
    ?WbemSysAllocStringByteLen@CWin32DefaultArena@@SAPEAGPEBDI@Z=C:/Windows/System32/wbemcomn.?WbemSysAllocStringByteLen@CWin32DefaultArena@@SAPEAGPEBDI@Z @1290
    ?WbemSysAllocStringLen@CWin32DefaultArena@@SAPEAGPEBGI@Z=C:/Windows/System32/wbemcomn.?WbemSysAllocStringLen@CWin32DefaultArena@@SAPEAGPEBGI@Z @1291
    ?WbemSysFreeString@CWin32DefaultArena@@SAXPEAG@Z=C:/Windows/System32/wbemcomn.?WbemSysFreeString@CWin32DefaultArena@@SAXPEAG@Z @1292
    ?WbemSysReAllocString@CWin32DefaultArena@@SAHPEAPEAGPEBG@Z=C:/Windows/System32/wbemcomn.?WbemSysReAllocString@CWin32DefaultArena@@SAHPEAPEAGPEBG@Z @1293
    ?WbemSysReAllocStringLen@CWin32DefaultArena@@SAHPEAPEAGPEBGI@Z=C:/Windows/System32/wbemcomn.?WbemSysReAllocStringLen@CWin32DefaultArena@@SAHPEAPEAGPEBGI@Z @1294
    ?WildcardTest@WString@@QEBAHPEBG@Z=C:/Windows/System32/wbemcomn.?WildcardTest@WString@@QEBAHPEBG@Z @1296
    ?Write@CBuffer@@UEAAJPEBXKPEAK@Z=C:/Windows/System32/wbemcomn.?Write@CBuffer@@UEAAJPEBXKPEAK@Z @1298
    ?Write@CMemoryLog@@QEAAXJ@Z=C:/Windows/System32/wbemcomn.?Write@CMemoryLog@@QEAAXJ@Z @1299
    ?Write@CMemoryLog@@QEAAXPEAXK@Z=C:/Windows/System32/wbemcomn.?Write@CMemoryLog@@QEAAXPEAXK@Z @1300
    ?WriteLPWSTR@CBuffer@@QEAAJPEBG@Z=C:/Windows/System32/wbemcomn.?WriteLPWSTR@CBuffer@@QEAAJPEBG@Z @1301
    ?WriteToRegistry@CWMITraceSettings@@QEAAKPEBG@Z=C:/Windows/System32/wbemcomn.?WriteToRegistry@CWMITraceSettings@@QEAAKPEBG@Z @1302
    ?_Alloc@CMUILocale@@SAPEAX_K@Z=C:/Windows/System32/wbemcomn.?_Alloc@CMUILocale@@SAPEAX_K@Z @1303
    ?_Free@CMUILocale@@SAHPEAX@Z=C:/Windows/System32/wbemcomn.?_Free@CMUILocale@@SAHPEAX@Z @1305
    ?_GetSystemDefaultLocale@CMUILocale@@SAJPEAPEAGK@Z=C:/Windows/System32/wbemcomn.?_GetSystemDefaultLocale@CMUILocale@@SAJPEAPEAGK@Z @1306
    ?_GetSystemDefaultLocaleName@CMUILocale@@SAJPEAPEAG@Z=C:/Windows/System32/wbemcomn.?_GetSystemDefaultLocaleName@CMUILocale@@SAJPEAPEAG@Z @1307
    ?_GetThreadPreferredUILanguages@CMUILocale@@SAJKPEAKPEAG0@Z=C:/Windows/System32/wbemcomn.?_GetThreadPreferredUILanguages@CMUILocale@@SAJKPEAKPEAG0@Z @1308
    ?_LCIDToLocaleName@CMUILocale@@SAJKPEAGHK@Z=C:/Windows/System32/wbemcomn.?_LCIDToLocaleName@CMUILocale@@SAJKPEAGHK@Z @1310
    ?_LocaleNameToLCID@CMUILocale@@SAJPEAGKPEAK@Z=C:/Windows/System32/wbemcomn.?_LocaleNameToLCID@CMUILocale@@SAJPEAGKPEAK@Z @1311
    ?_RetrieveSidFromCall@CIdentitySecurity@@AEAAJAEAVCNtSid@@@Z=C:/Windows/System32/wbemcomn.?_RetrieveSidFromCall@CIdentitySecurity@@AEAAJAEAVCNtSid@@@Z @1312
    ?_SetThreadPreferredUILanguages@CMUILocale@@SAJKPEBGPEAK@Z=C:/Windows/System32/wbemcomn.?_SetThreadPreferredUILanguages@CMUILocale@@SAJKPEBGPEAK@Z @1313
    ?_ThreadEntry@CExecQueue@@KAKPEAX@Z=C:/Windows/System32/wbemcomn.?_ThreadEntry@CExecQueue@@KAKPEAX@Z @1314
    ?aggregate_by@CAbstractQl1Parser@@IEAAHXZ=C:/Windows/System32/wbemcomn.?aggregate_by@CAbstractQl1Parser@@IEAAHXZ @1316
    ?aggregate_within@CAbstractQl1Parser@@IEAAHXZ=C:/Windows/System32/wbemcomn.?aggregate_within@CAbstractQl1Parser@@IEAAHXZ @1317
    ?aggregation_params@CAbstractQl1Parser@@IEAAHXZ=C:/Windows/System32/wbemcomn.?aggregation_params@CAbstractQl1Parser@@IEAAHXZ @1318
    ?anyFailed_@CStaticCritSec@@0HA=C:/Windows/System32/wbemcomn.?anyFailed_@CStaticCritSec@@0HA @1319
    ?anyFailure@CStaticCritSec@@SAHXZ=C:/Windows/System32/wbemcomn.?anyFailure@CStaticCritSec@@SAHXZ @1320
    ?charbuf@CBaseMrciCompression@@AEAAXI@Z=C:/Windows/System32/wbemcomn.?charbuf@CBaseMrciCompression@@AEAAXI@Z @1322
    ?class_name@CAbstractQl1Parser@@IEAAHXZ=C:/Windows/System32/wbemcomn.?class_name@CAbstractQl1Parser@@IEAAHXZ @1323
    ?comp_operator@CAbstractQl1Parser@@IEAAHXZ=C:/Windows/System32/wbemcomn.?comp_operator@CAbstractQl1Parser@@IEAAHXZ @1324
    ?equiv_operator@CAbstractQl1Parser@@IEAAHXZ=C:/Windows/System32/wbemcomn.?equiv_operator@CAbstractQl1Parser@@IEAAHXZ @1325
    ?expandstring@CBaseMrciCompression@@AEAAXPEAPEAEII@Z=C:/Windows/System32/wbemcomn.?expandstring@CBaseMrciCompression@@AEAAXPEAPEAEII@Z @1326
    ?expr2@CAbstractQl1Parser@@IEAAHXZ=C:/Windows/System32/wbemcomn.?expr2@CAbstractQl1Parser@@IEAAHXZ @1327
    ?expr@CAbstractQl1Parser@@IEAAHXZ=C:/Windows/System32/wbemcomn.?expr@CAbstractQl1Parser@@IEAAHXZ @1328
    ?finalize@CAbstractQl1Parser@@IEAAHXZ=C:/Windows/System32/wbemcomn.?finalize@CAbstractQl1Parser@@IEAAHXZ @1329
    ?getbit@CBaseMrciCompression@@AEAAIXZ=C:/Windows/System32/wbemcomn.?getbit@CBaseMrciCompression@@AEAAIXZ @1330
    ?getbits@CBaseMrciCompression@@AEAAII@Z=C:/Windows/System32/wbemcomn.?getbits@CBaseMrciCompression@@AEAAII@Z @1331
    ?inithash@CBaseMrciCompression@@AEAAXXZ=C:/Windows/System32/wbemcomn.?inithash@CBaseMrciCompression@@AEAAXXZ @1332
    ?isValid@CHaltable@@QEAA_NXZ=C:/Windows/System32/wbemcomn.?isValid@CHaltable@@QEAA_NXZ @1333
    ?is_operator@CAbstractQl1Parser@@IEAAHXZ=C:/Windows/System32/wbemcomn.?is_operator@CAbstractQl1Parser@@IEAAHXZ @1334
    ?leading_ident_expr@CAbstractQl1Parser@@IEAAHXZ=C:/Windows/System32/wbemcomn.?leading_ident_expr@CAbstractQl1Parser@@IEAAHXZ @1337
    ?m_bOffline@CWbemInstallObject@@0_NA=C:/Windows/System32/wbemcomn.?m_bOffline@CWbemInstallObject@@0_NA @1338
    ?m_csFunctionPointers@CMUILocale@@0VCCritSec@@A=C:/Windows/System32/wbemcomn.?m_csFunctionPointers@CMUILocale@@0VCCritSec@@A @1339
    ?m_csFunctionPointers@CPublishWMIOperationEvent@@0VCCritSec@@A=C:/Windows/System32/wbemcomn.?m_csFunctionPointers@CPublishWMIOperationEvent@@0VCCritSec@@A @1340
    ?m_csGlobal@CClientOpsNode@@0VCCritSec@@A=C:/Windows/System32/wbemcomn.?m_csGlobal@CClientOpsNode@@0VCCritSec@@A @1341
    ?m_fEventActivityIdControl@CPublishWMIOperationEvent@@2P6AKKPEAU_GUID@@@ZEA=C:/Windows/System32/wbemcomn.?m_fEventActivityIdControl@CPublishWMIOperationEvent@@2P6AKKPEAU_GUID@@@ZEA @1342
    ?m_fEventEnabled@CPublishWMIOperationEvent@@0P6AE_KPEBU_EVENT_DESCRIPTOR@@@ZEA=C:/Windows/System32/wbemcomn.?m_fEventEnabled@CPublishWMIOperationEvent@@0P6AE_KPEBU_EVENT_DESCRIPTOR@@@ZEA @1343
    ?m_fEventRegister@CPublishWMIOperationEvent@@0P6AKPEBU_GUID@@P6AX0KE_K1PEAU_EVENT_FILTER_DESCRIPTOR@@PEAX@Z3PEA_K@ZEA=C:/Windows/System32/wbemcomn.?m_fEventRegister@CPublishWMIOperationEvent@@0P6AKPEBU_GUID@@P6AX0KE_K1PEAU_EVENT_FILTER_DESCRIPTOR@@PEAX@Z3PEA_K@ZEA @1344
    ?m_fEventUnregister@CPublishWMIOperationEvent@@0P6AK_K@ZEA=C:/Windows/System32/wbemcomn.?m_fEventUnregister@CPublishWMIOperationEvent@@0P6AK_K@ZEA @1345
    ?m_fEventWrite@CPublishWMIOperationEvent@@0P6AK_KPEAU_EVENT_DESCRIPTOR@@KPEAU_EVENT_DATA_DESCRIPTOR@@@ZEA=C:/Windows/System32/wbemcomn.?m_fEventWrite@CPublishWMIOperationEvent@@0P6AK_KPEAU_EVENT_DESCRIPTOR@@KPEAU_EVENT_DATA_DESCRIPTOR@@@ZEA @1346
    ?m_fEventWriteTransfer@CPublishWMIOperationEvent@@2P6AK_KPEBU_EVENT_DESCRIPTOR@@PEBU_GUID@@2KPEAU_EVENT_DATA_DESCRIPTOR@@@ZEA=C:/Windows/System32/wbemcomn.?m_fEventWriteTransfer@CPublishWMIOperationEvent@@2P6AK_KPEBU_EVENT_DESCRIPTOR@@PEBU_GUID@@2KPEAU_EVENT_DATA_DESCRIPTOR@@@ZEA @1347
    ?m_fGetLocaleInfoEx@CMUILocale@@0PEAXEA=C:/Windows/System32/wbemcomn.?m_fGetLocaleInfoEx@CMUILocale@@0PEAXEA @1348
    ?m_fGetSystemDefaultLocaleName@CMUILocale@@0PEAXEA=C:/Windows/System32/wbemcomn.?m_fGetSystemDefaultLocaleName@CMUILocale@@0PEAXEA @1349
    ?m_fGetThreadPreferredUILanguages@CMUILocale@@0PEAXEA=C:/Windows/System32/wbemcomn.?m_fGetThreadPreferredUILanguages@CMUILocale@@0PEAXEA @1350
    ?m_fLCIDToLocaleName@CMUILocale@@0PEAXEA=C:/Windows/System32/wbemcomn.?m_fLCIDToLocaleName@CMUILocale@@0PEAXEA @1351
    ?m_fLocaleNameToLCID@CMUILocale@@0PEAXEA=C:/Windows/System32/wbemcomn.?m_fLocaleNameToLCID@CMUILocale@@0PEAXEA @1352
    ?m_fSetThreadPreferredUILanguages@CMUILocale@@0PEAXEA=C:/Windows/System32/wbemcomn.?m_fSetThreadPreferredUILanguages@CMUILocale@@0PEAXEA @1353
    ?m_hAdvAPI32@CPublishWMIOperationEvent@@0PEAUHINSTANCE__@@EA=C:/Windows/System32/wbemcomn.?m_hAdvAPI32@CPublishWMIOperationEvent@@0PEAUHINSTANCE__@@EA @1354
    ?m_hKernel32@CMUILocale@@0PEAUHINSTANCE__@@EA=C:/Windows/System32/wbemcomn.?m_hKernel32@CMUILocale@@0PEAUHINSTANCE__@@EA @1355
    ?m_pEnvironmentMap@CWbemInstallObject@@0PEAV?$map@PEBGPEBGU?$SZLess@PEBG@@V?$wbem_allocator@PEBG@@@std@@EA=C:/Windows/System32/wbemcomn.?m_pEnvironmentMap@CWbemInstallObject@@0PEAV?$map@PEBGPEBGU?$SZLess@PEBG@@V?$wbem_allocator@PEBG@@@std@@EA @1356
    ?m_pfFlushCache@CWbemInstallObject@@0P6AJH@ZEA=C:/Windows/System32/wbemcomn.?m_pfFlushCache@CWbemInstallObject@@0P6AJH@ZEA @1357
    ?m_publisher@CPublishWMIOperationEvent@@2_KA=C:/Windows/System32/wbemcomn.?m_publisher@CPublishWMIOperationEvent@@2_KA @1358
    ?m_pwszAutoRecoverPath@CWbemInstallObject@@0PEBGEB=C:/Windows/System32/wbemcomn.?m_pwszAutoRecoverPath@CWbemInstallObject@@0PEBGEB @1359
    ?m_pwszBinaryPath@CWbemInstallObject@@0PEBGEB=C:/Windows/System32/wbemcomn.?m_pwszBinaryPath@CWbemInstallObject@@0PEBGEB @1360
    ?m_pwszRegistryPathCIMOM@CWbemInstallObject@@0PEBGEB=C:/Windows/System32/wbemcomn.?m_pwszRegistryPathCIMOM@CWbemInstallObject@@0PEBGEB @1361
    ?m_pwszRegistryPathWbem@CWbemInstallObject@@0PEBGEB=C:/Windows/System32/wbemcomn.?m_pwszRegistryPathWbem@CWbemInstallObject@@0PEBGEB @1362
    ?m_pwszRepositoryPath@CWbemInstallObject@@0PEBGEB=C:/Windows/System32/wbemcomn.?m_pwszRepositoryPath@CWbemInstallObject@@0PEBGEB @1363
    ?m_rgClsidDllMap@CWbemInstallObject@@0PAUClsidDllMapping@@A=C:/Windows/System32/wbemcomn.?m_rgClsidDllMap@CWbemInstallObject@@0PAUClsidDllMapping@@A @1364
    ?m_rgDllModules@CWbemInstallObject@@0PAUDllModuleHandle@@A=C:/Windows/System32/wbemcomn.?m_rgDllModules@CWbemInstallObject@@0PAUDllModuleHandle@@A @1365
    ?mrci1outsingle@CBaseMrciCompression@@AEAAXI@Z=C:/Windows/System32/wbemcomn.?mrci1outsingle@CBaseMrciCompression@@AEAAXI@Z @1366
    ?mrci1outstring@CBaseMrciCompression@@AEAAXII@Z=C:/Windows/System32/wbemcomn.?mrci1outstring@CBaseMrciCompression@@AEAAXII@Z @1367
    ?mrci2outsingle@CBaseMrciCompression@@AEAAXI@Z=C:/Windows/System32/wbemcomn.?mrci2outsingle@CBaseMrciCompression@@AEAAXI@Z @1368
    ?mrci2outstring@CBaseMrciCompression@@AEAAXII@Z=C:/Windows/System32/wbemcomn.?mrci2outstring@CBaseMrciCompression@@AEAAXII@Z @1369
    ?ms_XXX_Locale_From_LCID@CMUILocale@@SAJKPEAPEAG@Z=C:/Windows/System32/wbemcomn.?ms_XXX_Locale_From_LCID@CMUILocale@@SAJKPEAPEAG@Z @1370
    ?ms_XXX_Locale_To_LCID@CMUILocale@@SAJPEBGPEAK@Z=C:/Windows/System32/wbemcomn.?ms_XXX_Locale_To_LCID@CMUILocale@@SAJPEBGPEAK@Z @1371
    ?mstatic_lNumInits@CExecQueue@@1JA=C:/Windows/System32/wbemcomn.?mstatic_lNumInits@CExecQueue@@1JA @1373
    ?opt_aggregation@CAbstractQl1Parser@@IEAAHXZ=C:/Windows/System32/wbemcomn.?opt_aggregation@CAbstractQl1Parser@@IEAAHXZ @1374
    ?opt_having@CAbstractQl1Parser@@IEAAHXZ=C:/Windows/System32/wbemcomn.?opt_having@CAbstractQl1Parser@@IEAAHXZ @1375
    ?opt_where@CAbstractQl1Parser@@IEAAHXZ=C:/Windows/System32/wbemcomn.?opt_where@CAbstractQl1Parser@@IEAAHXZ @1376
    ?outlength@CBaseMrciCompression@@AEAAXI@Z=C:/Windows/System32/wbemcomn.?outlength@CBaseMrciCompression@@AEAAXI@Z @1377
    ?parse@CAbstractQl1Parser@@IEAAHH@Z=C:/Windows/System32/wbemcomn.?parse@CAbstractQl1Parser@@IEAAHH@Z @1378
    ?parse_property_name@CAbstractQl1Parser@@IEAAHAEAVCPropertyName@@@Z=C:/Windows/System32/wbemcomn.?parse_property_name@CAbstractQl1Parser@@IEAAHAEAVCPropertyName@@@Z @1379
    ?prop_list@CAbstractQl1Parser@@IEAAHXZ=C:/Windows/System32/wbemcomn.?prop_list@CAbstractQl1Parser@@IEAAHXZ @1380
    ?prop_list_2@CAbstractQl1Parser@@IEAAHXZ=C:/Windows/System32/wbemcomn.?prop_list_2@CAbstractQl1Parser@@IEAAHXZ @1381
    ?property_name@CAbstractQl1Parser@@IEAAHXZ=C:/Windows/System32/wbemcomn.?property_name@CAbstractQl1Parser@@IEAAHXZ @1382
    ?putbits@CBaseMrciCompression@@AEAAXII@Z=C:/Windows/System32/wbemcomn.?putbits@CBaseMrciCompression@@AEAAXII@Z @1383
    ?rel_operator@CAbstractQl1Parser@@IEAAHXZ=C:/Windows/System32/wbemcomn.?rel_operator@CAbstractQl1Parser@@IEAAHXZ @1384
    ?sMatachedWithOneChar@CLike@@0EB=C:/Windows/System32/wbemcomn.?sMatachedWithOneChar@CLike@@0EB @1385
    ?sMatachedWithWildcardChar@CLike@@0EB=C:/Windows/System32/wbemcomn.?sMatachedWithWildcardChar@CLike@@0EB @1386
    ?sNoMatch@CLike@@0EB=C:/Windows/System32/wbemcomn.?sNoMatch@CLike@@0EB @1387
    ?simple_expr@CAbstractQl1Parser@@IEAAHXZ=C:/Windows/System32/wbemcomn.?simple_expr@CAbstractQl1Parser@@IEAAHXZ @1388
    ?staticRead@CBasicUnloadInstruction@@SA?AVCWbemInterval@@PEAUIWbemServices@@PEAUIWbemContext@@PEBG@Z=C:/Windows/System32/wbemcomn.?staticRead@CBasicUnloadInstruction@@SA?AVCWbemInterval@@PEAUIWbemServices@@PEAUIWbemContext@@PEBG@Z @1389
    ?term2@CAbstractQl1Parser@@IEAAHXZ=C:/Windows/System32/wbemcomn.?term2@CAbstractQl1Parser@@IEAAHXZ @1390
    ?term@CAbstractQl1Parser@@IEAAHXZ=C:/Windows/System32/wbemcomn.?term@CAbstractQl1Parser@@IEAAHXZ @1391
    ?tolerance@CAbstractQl1Parser@@IEAAHXZ=C:/Windows/System32/wbemcomn.?tolerance@CAbstractQl1Parser@@IEAAHXZ @1392
    ?trailing_const_expr@CAbstractQl1Parser@@IEAAHXZ=C:/Windows/System32/wbemcomn.?trailing_const_expr@CAbstractQl1Parser@@IEAAHXZ @1393
    ?trailing_ident_expr@CAbstractQl1Parser@@IEAAHXZ=C:/Windows/System32/wbemcomn.?trailing_ident_expr@CAbstractQl1Parser@@IEAAHXZ @1394
    ?trailing_or_null@CAbstractQl1Parser@@IEAAHXZ=C:/Windows/System32/wbemcomn.?trailing_or_null@CAbstractQl1Parser@@IEAAHXZ @1395
    ?trailing_prop_expr@CAbstractQl1Parser@@IEAAHXZ=C:/Windows/System32/wbemcomn.?trailing_prop_expr@CAbstractQl1Parser@@IEAAHXZ @1396
    ?typed_constant@CAbstractQl1Parser@@IEAAHXZ=C:/Windows/System32/wbemcomn.?typed_constant@CAbstractQl1Parser@@IEAAHXZ @1397
    AdjustPrivIfLocalSystem=C:/Windows/System32/wbemcomn.AdjustPrivIfLocalSystem @492
    BlobAssign=C:/Windows/System32/wbemcomn.BlobAssign @504
    BlobClear=C:/Windows/System32/wbemcomn.BlobClear @505
    BlobCopy=C:/Windows/System32/wbemcomn.BlobCopy @506
    BreakOnDbgAndRenterLoop=C:/Windows/System32/wbemcomn.BreakOnDbgAndRenterLoop @507
    BuildOperationInfo=C:/Windows/System32/wbemcomn.BuildOperationInfo @509
    BuildSecurityDescriptorParameter=C:/Windows/System32/wbemcomn.BuildSecurityDescriptorParameter @511
    ChangeVariantToCIMTYPE=C:/Windows/System32/wbemcomn.ChangeVariantToCIMTYPE @518
    ComposeName=C:/Windows/System32/wbemcomn.ComposeName @542
    CopyFileToAutorecover=C:/Windows/System32/wbemcomn.CopyFileToAutorecover @554
    CriticalFailADAPTrace=C:/Windows/System32/wbemcomn.CriticalFailADAPTrace @561
    DebugTrace=C:/Windows/System32/wbemcomn.DebugTrace @580
    DumpClientOps=C:/Windows/System32/wbemcomn.DumpClientOps @601
    EnableAllPrivileges=C:/Windows/System32/wbemcomn.EnableAllPrivileges @614
    EnablePrivilege=C:/Windows/System32/wbemcomn.EnablePrivilege @615
    ErrorTrace=C:/Windows/System32/wbemcomn.ErrorTrace @637
    ExtractMachineName=C:/Windows/System32/wbemcomn.ExtractMachineName @643
    GetAccessToken=C:/Windows/System32/wbemcomn.GetAccessToken @664
    GetFQDN_Ipv4=C:/Windows/System32/wbemcomn.GetFQDN_Ipv4 @720
    GetGlobalClientOps=C:/Windows/System32/wbemcomn.GetGlobalClientOps @730
    GetLoggingLevelEnabled=C:/Windows/System32/wbemcomn.GetLoggingLevelEnabled @753
    GetMemLogObject=C:/Windows/System32/wbemcomn.GetMemLogObject @756
    GetQFDN_Ipv6=C:/Windows/System32/wbemcomn.GetQFDN_Ipv6 @789
    GetSecurityDescriptorFromParameters=C:/Windows/System32/wbemcomn.GetSecurityDescriptorFromParameters @810
    GetWMIADAPCmdLine=C:/Windows/System32/wbemcomn.GetWMIADAPCmdLine @865
    GetWMITraceSession=C:/Windows/System32/wbemcomn.GetWMITraceSession @866
    Get_WPP_INIT_TRACING_Call_State=C:/Windows/System32/wbemcomn.Get_WPP_INIT_TRACING_Call_State @871
    IsAdmin=C:/Windows/System32/wbemcomn.IsAdmin @903
    IsInAdminGroup=C:/Windows/System32/wbemcomn.IsInAdminGroup @918
    IsLocalConnection=C:/Windows/System32/wbemcomn.IsLocalConnection @921
    IsLocalService=C:/Windows/System32/wbemcomn.IsLocalService @922
    IsNT=C:/Windows/System32/wbemcomn.IsNT @923
    IsNetworkService=C:/Windows/System32/wbemcomn.IsNetworkService @924
    IsNtSetupRunning=C:/Windows/System32/wbemcomn.IsNtSetupRunning @925
    IsPrivilegePresent=C:/Windows/System32/wbemcomn.IsPrivilegePresent @930
    IsValidElementName=C:/Windows/System32/wbemcomn.IsValidElementName @947
    IsValidElementName2=C:/Windows/System32/wbemcomn.IsValidElementName2 @946
    IsW2KOrMore=C:/Windows/System32/wbemcomn.IsW2KOrMore @957
    LoggingLevelEnabled=C:/Windows/System32/wbemcomn.LoggingLevelEnabled @975
    NormalizeCimDateTime=C:/Windows/System32/wbemcomn.NormalizeCimDateTime @988
    ReadI64=C:/Windows/System32/wbemcomn.ReadI64 @1031
    ReadUI64=C:/Windows/System32/wbemcomn.ReadUI64 @1033
    RegisterDLL=C:/Windows/System32/wbemcomn.RegisterDLL @1039
    RegisterDllAppid=C:/Windows/System32/wbemcomn.RegisterDllAppid @1040
    RemoveFileFromAutoRecoverFolder=C:/Windows/System32/wbemcomn.RemoveFileFromAutoRecoverFolder @1058
    RetrieveSidFromCall=C:/Windows/System32/wbemcomn.RetrieveSidFromCall @1075
    RetrieveSidFromToken=C:/Windows/System32/wbemcomn.RetrieveSidFromToken @1076
    SetObjectAccess2=C:/Windows/System32/wbemcomn.SetObjectAccess2 @1154
    SetWMITraceSession=C:/Windows/System32/wbemcomn.SetWMITraceSession @1192
    Set_WPP_INIT_TRACING_Call_State=C:/Windows/System32/wbemcomn.Set_WPP_INIT_TRACING_Call_State @1195
    TestDirExistAndCreateWithSDIfNotThere=C:/Windows/System32/wbemcomn.TestDirExistAndCreateWithSDIfNotThere @1223
    Throttle=C:/Windows/System32/wbemcomn.Throttle @1225
    UnRegisterDLL=C:/Windows/System32/wbemcomn.UnRegisterDLL @1252
    UnregisterDllAppid=C:/Windows/System32/wbemcomn.UnregisterDllAppid @1271
    WMIControlCallback=C:/Windows/System32/wbemcomn.WMIControlCallback @1274
    WMIControlClientOpsCallback=C:/Windows/System32/wbemcomn.WMIControlClientOpsCallback @1275
    WbemGetMachineShutdown=C:/Windows/System32/wbemcomn.WbemGetMachineShutdown @1279
    WbemSetDynamicCloaking=C:/Windows/System32/wbemcomn.WbemSetDynamicCloaking @1287
    WbemSetMachineShutdown=C:/Windows/System32/wbemcomn.WbemSetMachineShutdown @1288
    WbemVariantChangeType=C:/Windows/System32/wbemcomn.WbemVariantChangeType @1295
    WinPEKey=C:/Windows/System32/wbemcomn.WinPEKey @1297
    _DoTraceHRFailure_=C:/Windows/System32/wbemcomn._DoTraceHRFailure_ @1304
    _IsValidElementName=C:/Windows/System32/wbemcomn._IsValidElementName @1309
    _ThrowMemoryException_=C:/Windows/System32/wbemcomn._ThrowMemoryException_ @1315
    bAreWeLocal=C:/Windows/System32/wbemcomn.bAreWeLocal @1321
    isunialpha=C:/Windows/System32/wbemcomn.isunialpha @1335
    isunialphanum=C:/Windows/System32/wbemcomn.isunialphanum @1336
    mstatic_dwTlsIndex=C:/Windows/System32/wbemcomn.mstatic_dwTlsIndex @1372
